
UDPServer.elf:     file format elf32-littleriscv
UDPServer.elf
architecture: riscv:rv32, flags 0x00000112:
EXEC_P, HAS_SYMS, D_PAGED
start address 0x00000000

Program Header:
    LOAD off    0x00001000 vaddr 0x00000000 paddr 0x00000000 align 2**12
         filesz 0x00009e64 memsz 0x00009e64 flags r-x
    LOAD off    0x0000b000 vaddr 0x20000000 paddr 0x00009e64 align 2**12
         filesz 0x00000280 memsz 0x000067ac flags rw-
    LOAD off    0x0000b800 vaddr 0x2000f800 paddr 0x2000f800 align 2**12
         filesz 0x00000000 memsz 0x00000800 flags rw-

Sections:
Idx Name           Size      VMA       LMA       File off  Algn  Flags
  0 .init          00000004  00000000  00000000  00001000  2**1  CONTENTS, ALLOC, LOAD, READONLY, CODE
  1 .vector        000001bc  00000004  00000004  00001004  2**1  CONTENTS, ALLOC, LOAD, READONLY, CODE
  2 .text          00009ca4  000001c0  000001c0  000011c0  2**2  CONTENTS, ALLOC, LOAD, READONLY, CODE
  3 .fini          00000000  00009e64  00009e64  0000b280  2**0  CONTENTS, ALLOC, LOAD, CODE
  4 .dalign        00000000  20000000  20000000  0000b280  2**0  CONTENTS
  5 .dlalign       00000000  00009e64  00009e64  0000b280  2**0  CONTENTS
  6 .data          00000280  20000000  00009e64  0000b000  2**2  CONTENTS, ALLOC, LOAD, DATA
  7 .bss           0000652c  20000280  0000a0e4  0000b280  2**2  ALLOC
  8 .stack         00000800  2000f800  2000f800  0000b800  2**0  ALLOC
  9 .debug_info    0001619c  00000000  00000000  0000b280  2**0  CONTENTS, READONLY, DEBUGGING
 10 .debug_abbrev  000036de  00000000  00000000  0002141c  2**0  CONTENTS, READONLY, DEBUGGING
 11 .debug_aranges 00000d60  00000000  00000000  00024b00  2**3  CONTENTS, READONLY, DEBUGGING
 12 .debug_ranges  00000e88  00000000  00000000  00025860  2**3  CONTENTS, READONLY, DEBUGGING
 13 .debug_line    00012235  00000000  00000000  000266e8  2**0  CONTENTS, READONLY, DEBUGGING
 14 .debug_str     0000476a  00000000  00000000  0003891d  2**0  CONTENTS, READONLY, DEBUGGING
 15 .comment       00000066  00000000  00000000  0003d087  2**0  CONTENTS, READONLY
 16 .debug_frame   000027a0  00000000  00000000  0003d0f0  2**2  CONTENTS, READONLY, DEBUGGING
 17 .debug_loc     00005924  00000000  00000000  0003f890  2**0  CONTENTS, READONLY, DEBUGGING
 18 .stabstr       000000a9  00000000  00000000  000451b4  2**0  CONTENTS, READONLY, DEBUGGING
SYMBOL TABLE:
00000000 l    d  .init	00000000 .init
00000004 l    d  .vector	00000000 .vector
000001c0 l    d  .text	00000000 .text
00009e64 l    d  .fini	00000000 .fini
20000000 l    d  .dalign	00000000 .dalign
00009e64 l    d  .dlalign	00000000 .dlalign
20000000 l    d  .data	00000000 .data
20000280 l    d  .bss	00000000 .bss
2000f800 l    d  .stack	00000000 .stack
00000000 l    d  .debug_info	00000000 .debug_info
00000000 l    d  .debug_abbrev	00000000 .debug_abbrev
00000000 l    d  .debug_aranges	00000000 .debug_aranges
00000000 l    d  .debug_ranges	00000000 .debug_ranges
00000000 l    d  .debug_line	00000000 .debug_line
00000000 l    d  .debug_str	00000000 .debug_str
00000000 l    d  .comment	00000000 .comment
00000000 l    d  .debug_frame	00000000 .debug_frame
00000000 l    d  .debug_loc	00000000 .debug_loc
00000000 l    d  .stabstr	00000000 .stabstr
00000000 l    df *ABS*	00000000 ./Startup/startup_ch32v30x_D8C.o
00000004 l       .vector	00000000 _vector_base
00000000 l    df *ABS*	00000000 ch32v30x_it.c
00000000 l    df *ABS*	00000000 config.c
000004a6 l     F .text	00000430 cfg_handler
00009514 l     O .text	00000417 g_ini_text
00000000 l    df *ABS*	00000000 gpio_mgr.c
00009984 l     O .text	00000038 reserved_pins
00000000 l    df *ABS*	00000000 ini_parser.c
00000ad4 l     F .text	00000058 trim.part.0
00000000 l    df *ABS*	00000000 main.c
00000be2 l     F .text	00000034 read_encoder_state
20001768 l     O .bss	00000100 btn_state
20001868 l     O .bss	00000020 enc_state
00009c48 l     O .text	00000010 quad_table
00000000 l    df *ABS*	00000000 system_ch32v30x.c
00000000 l    df *ABS*	00000000 timebase.c
2000028c l     O .bss	00000004 g_msTicks
00000000 l    df *ABS*	00000000 ch32v30x_dbgmcu.c
00000000 l    df *ABS*	00000000 ch32v30x_eth.c
00000000 l    df *ABS*	00000000 ch32v30x_exti.c
00000000 l    df *ABS*	00000000 ch32v30x_gpio.c
00000000 l    df *ABS*	00000000 ch32v30x_rcc.c
20000040 l     O .data	00000010 APBAHBPrescTable
20000240 l     O .data	00000004 ADCPrescTable
00000000 l    df *ABS*	00000000 ch32v30x_tim.c
00000000 l    df *ABS*	00000000 ch32v30x_usart.c
00000000 l    df *ABS*	00000000 eth_driver_10M.c
00000000 l    df *ABS*	00000000 debug.c
200002c8 l     O .bss	00000002 p_ms
200002ca l     O .bss	00000001 p_us
20000248 l     O .data	00000004 curbrk.5590
00000000 l    df *ABS*	00000000 core_riscv.c
00000000 l    df *ABS*	00000000 eth_api.c
00000000 l    df *ABS*	00000000 ipcheck.c
00000000 l    df *ABS*	00000000 socket.c
00000000 l    df *ABS*	00000000 etharp.c
00002d12 l     F .text	00000180 find_entry
00002e92 l     F .text	000000b2 update_arp_entry
200002dd l     O .bss	00000001 etharp_cached_entry
00000000 l    df *ABS*	00000000 ethernetif.c
0000350a l     F .text	00000052 low_level_output
00000000 l    df *ABS*	00000000 inet.c
00000000 l    df *ABS*	00000000 ip.c
200002e8 l     O .bss	00000002 ip_id.2947
00000000 l    df *ABS*	00000000 ip_addr.c
00000000 l    df *ABS*	00000000 ip_frag.c
200002ea l     O .bss	00000002 ip_reass_pbufcount
200002ec l     O .bss	00000004 reassdatagrams
00000000 l    df *ABS*	00000000 dhcp.c
000040a8 l     F .text	00000016 dhcp_set_state
000040be l     F .text	00000020 dhcp_option
000040de l     F .text	00000012 dhcp_option_byte
000040f0 l     F .text	00000048 dhcp_option_long
00004138 l     F .text	00000034 dhcp_option_trailer
0000416c l     F .text	0000018a dhcp_create_request
000042f6 l     F .text	0000001e dhcp_delete_request
00000000 l    df *ABS*	00000000 init.c
00000000 l    df *ABS*	00000000 mem.c
200002f0 l     O .bss	00000004 lfree
200002f4 l     O .bss	00000004 ram
200002f8 l     O .bss	00000004 ram_end
00000000 l    df *ABS*	00000000 memp.c
20006774 l     O .bss	00000020 memp_tab
00000000 l    df *ABS*	00000000 netif.c
20000304 l     O .bss	00000001 netifnum.2482
00000000 l    df *ABS*	00000000 pbuf.c
00000000 l    df *ABS*	00000000 raw.c
20000308 l     O .bss	00000004 raw_pcbs
00000000 l    df *ABS*	00000000 tcp.c
00004cf4 l     F .text	0000005c tcp_new_port
2000025c l     O .data	00000004 iss.3197
20000260 l     O .data	00000002 port.3029
00000000 l    df *ABS*	00000000 tcp_in.c
00005322 l     F .text	000000ce tcp_oos_insert_segment
000053f0 l     F .text	00000944 tcp_receive
00005d34 l     F .text	000000a6 tcp_parseopt.isra.0
20006794 l     O .bss	00000014 inseg
20000324 l     O .bss	00000004 ackno
20000328 l     O .bss	00000001 flags
2000032c l     O .bss	00000004 iphdr
20000330 l     O .bss	00000004 recv_data
20000334 l     O .bss	00000001 recv_flags
20000338 l     O .bss	00000004 seqno
20000340 l     O .bss	00000004 tcphdr
20000344 l     O .bss	00000002 tcplen
00000000 l    df *ABS*	00000000 tcp_out.c
00006842 l     F .text	000000d4 tcp_output_set_header.isra.0.constprop.1
00000000 l    df *ABS*	00000000 udp.c
00000000 l    df *ABS*	00000000 icmp.c
000077b0 l     F .text	00000076 icmp_send_response.isra.0
00000000 l    df *ABS*	00000000 inet_chksum.c
00007a8a l     F .text	0000007e lwip_standard_chksum
00000000 l    df *ABS*	00000000 wchprintf.c
00000000 l    df *ABS*	00000000 atoi.c
00000000 l    df *ABS*	00000000 locale.c
00000000 l    df *ABS*	00000000 mbtowc_r.c
00000000 l    df *ABS*	00000000 memcpy.c
00000000 l    df *ABS*	00000000 memmove.c
00000000 l    df *ABS*	00000000 sscanf.c
00000000 l    df *ABS*	00000000 stdio.c
00000000 l    df *ABS*	00000000 strchr.c
00000000 l    df *ABS*	00000000 strlen.c
00000000 l    df *ABS*	00000000 strncat.c
00000000 l    df *ABS*	00000000 strncpy.c
00000000 l    df *ABS*	00000000 strtok.c
00000000 l    df *ABS*	00000000 strtok_r.c
00000000 l    df *ABS*	00000000 strtol.c
0000855e l     F .text	0000013a _strtol_l.isra.0
00000000 l    df *ABS*	00000000 wctomb_r.c
00000000 l    df *ABS*	00000000 malloc.c
00000000 l    df *ABS*	00000000 nano-mallocr.c
00000000 l    df *ABS*	00000000 nano-mallocr.c
00000000 l    df *ABS*	00000000 nano-vfscanf.c
00000000 l    df *ABS*	00000000 nano-vfscanf_i.c
00000000 l    df *ABS*	00000000 sbrkr.c
00000000 l    df *ABS*	00000000 sccl.c
00000000 l    df *ABS*	00000000 strtoul.c
000090de l     F .text	00000130 _strtoul_l.isra.0
00000000 l    df *ABS*	00000000 ungetc.c
00000000 l    df *ABS*	00000000 memchr.c
00000000 l    df *ABS*	00000000 mlock.c
00000000 l    df *ABS*	00000000 nano-mallocr.c
00000000 l    df *ABS*	00000000 nano-mallocr.c
00000000 l    df *ABS*	00000000 ctype_.c
00000000 l    df *ABS*	00000000 findfp.c
00000000 l    df *ABS*	00000000 impure.c
200001bc l     O .data	00000060 impure_data
00000000 l    df *ABS*	00000000 net_dhcp.c
00000000 l    df *ABS*	00000000 reent.c
00000000 l    df *ABS*	00000000 close.c
00007eb0  w    F .text	00000004 printDouble
00001a6a g     F .text	00000016 TIM_TimeBaseStructInit
0000931c g     F .text	00000014 _malloc_usable_size_r
00001426  w      .text	00000000 EXTI2_IRQHandler
00007c12 g     F .text	00000014 inet_chksum
00008cf2 g     F .text	000000e2 _scanf_chars
00001426  w      .text	00000000 TIM8_TRG_COM_IRQHandler
00004c82 g     F .text	0000001e raw_bind
00003b4e g     F .text	000003dc ip_reass
00001426  w      .text	00000000 TIM8_CC_IRQHandler
00004ada g     F .text	00000058 pbuf_realloc
20000238 g     O .data	00000002 srcport
000051a0 g     F .text	00000010 tcp_next_iss
00004e66 g     F .text	00000048 tcp_update_rcv_ann_wnd
000023f0 g     F .text	00000012 setRxBuffAddr
00001622 g     F .text	00000010 ETH_FlushTransmitFIFO
000019a2 g     F .text	0000001e RCC_AHBPeriphResetCmd
20000300 g     O .bss	00000004 netif_list
00001426  w      .text	00000000 UART8_IRQHandler
0000714c g     F .text	00000108 tcp_rst
00007eb4  w    F .text	00000320 print
00003106 g     F .text	000000ce etharp_request
000081d4  w    F .text	00000024 printf
20000a20 g       .data	00000000 __global_pointer$
000001c8 g     F .text	00000028 .hidden __riscv_save_8
00004f5e g     F .text	00000006 tcp_err
20000278 g     O .data	00000004 ip_addr_any
00001426  w      .text	00000000 TIM1_CC_IRQHandler
00007b08 g     F .text	0000010a inet_chksum_pseudo
00006d5e g     F .text	00000016 tcp_send_ctrl
000003e4 g     F .text	00000052 HardFault_Handler
00003974 g     F .text	0000015a ip_output_if
0000477a g     F .text	00000018 memp_free
00007dba  w    F .text	000000f2 printInt
000092c2 g     F .text	00000002 __malloc_unlock
0000494c g     F .text	0000004e pbuf_free
00000214 g     F .text	0000000c .hidden __riscv_restore_3
00001426  w      .text	00000000 TIM6_IRQHandler
00002086 g     F .text	0000008e ETH_Init
00001426  w      .text	00000000 SysTick_Handler
00004b4e g     F .text	0000001c pbuf_cat
00001426  w      .text	00000000 PVD_IRQHandler
00001426  w      .text	00000000 SDIO_IRQHandler
200002d0 g     O .bss	00000001 ARP_Retry_Cnt
00008372 g     F .text	00000046 memmove
00003ace g     F .text	00000036 ip_output
00001c9a g     F .text	00000056 ETH_LinkUpCfg
00001426  w      .text	00000000 TIM9_BRK_IRQHandler
00000200 g     F .text	00000020 .hidden __riscv_restore_10
000076da g     F .text	0000002e udp_sendto
00001b84 g     F .text	00000040 ETH_TxPktChainMode
00008276 g     F .text	00000018 __locale_ctype_ptr
00001426  w      .text	00000000 DMA2_Channel8_IRQHandler
000003e2 g     F .text	00000002 NMI_Handler
00008502 g     F .text	0000005c __strtok_r
00001426  w      .text	00000000 CAN2_RX1_IRQHandler
00001426  w      .text	00000000 EXTI3_IRQHandler
000026fc g     F .text	000000ac WCHNET_Init
000001c8 g     F .text	00000028 .hidden __riscv_save_11
000014b6 g     F .text	0000000a DBGMCU_GetCHIPID
000051b0 g     F .text	00000134 tcp_alloc
000022f8 g     F .text	00000014 WCHNET_NetInput
00009c68 g     O .text	00000010 MemSize
00007604 g     F .text	000000d6 udp_sendto_if
00002008 g     F .text	0000007e WCHNET_ETHIsr
20000280 g     O .bss	00000004 current_len
00004f5a g     F .text	00000004 tcp_arg
00001426  w      .text	00000000 USBHS_IRQHandler
000013b0 g     F .text	0000004c Timebase_Init
00002f9e g     F .text	00000168 etharp_arp_input
2000030c g     O .bss	00000004 tcp_active_pcbs
00001b7a g     F .text	0000000a USART_GetFlagStatus
00001426  w      .text	00000000 DMA2_Channel9_IRQHandler
20000348 g     O .bss	00000004 udp_pcbs
00001426  w      .text	00000000 TIM10_CC_IRQHandler
200067a8 g     O .bss	00000004 errno
20000284 g     O .bss	00000006 MACAddr
00003420 g     F .text	00000086 ethernet_input
00008dd4 g     F .text	00000256 _scanf_i
00008408 g     F .text	00000004 __seofread
00000966 g     F .text	0000013c GPIO_ParsePin
20000280 g       .bss	00000000 _sbss
00000800 g       *ABS*	00000000 __stack_size
00004b44 g     F .text	0000000a pbuf_ref
00002224 g     F .text	0000005a USART_Printf_Init
20000298 g     O .bss	00000004 ChipId
000050d6 g     F .text	00000030 tcp_recv_null
200002d4 g     O .bss	00000001 SockNumber
00001426  w      .text	00000000 USBFS_IRQHandler
00005024 g     F .text	000000b2 tcp_close
20006648 g     O .bss	0000000c SelARP
00004eae g     F .text	0000003c tcp_recved
00000214 g     F .text	0000000c .hidden __riscv_restore_2
2000029c g     O .bss	00000004 LinkSuccTime
00004f64 g     F .text	0000004e tcp_pcb_purge
00001bc4 g     F .text	00000022 ETH_LedDataSet
000014c0 g     F .text	00000014 ETH_DeInit
000082c0 g     F .text	000000b2 memcpy
000044ec g     F .text	00000084 mem_free
20000318 g     O .bss	00000004 tcp_ticks
20000314 g     O .bss	00000004 tcp_listen_pcbs
00003b04 g     F .text	0000004a ip_addr_isbroadcast
00007eac  w    F .text	00000004 printLongLongInt
20000290 g     O .bss	00000004 DMARxDescToGet
000052e4 g     F .text	00000010 tcp_new
00001426  w      .text	00000000 EXTI0_IRQHandler
00001426  w      .text	00000000 I2C2_EV_IRQHandler
00002434 g     F .text	0000000e GetChipID
00001426  w      .text	00000000 TIM10_TRG_COM_IRQHandler
00001a80 g     F .text	00000018 TIM_Cmd
00008220 g     F .text	0000004a puts
20006654 g     O .bss	00000018 DHCPCtrl
2000023c g     O .data	00000004 SystemCoreClock
00007c26 g     F .text	0000006a inet_chksum_pbuf
000086ea g     F .text	0000000a malloc
00001ab4 g     F .text	0000000c TIM_ClearFlag
00007826 g     F .text	00000250 icmp_input
00000004 g       .init	00000000 _einit
00001ac0 g     F .text	0000000c TIM_ClearITPendingBit
00004876 g     F .text	0000005a netif_add
000018f2 g     F .text	0000001e RCC_APB2PeriphClockCmd
000001c0 g     F .text	00000030 .hidden __riscv_save_12
00004f14 g     F .text	0000001e tcp_segs_free
00001426  w      .text	00000000 CAN2_SCE_IRQHandler
00001426  w      .text	00000000 ADC1_2_IRQHandler
0000890c g     F .text	00000044 __ssrefill_r
0000168c g     F .text	000000c0 GPIO_Init
200002b8 g     O .bss	00000001 phyLinkCnt
00001426  w      .text	00000000 Break_Point_Handler
00004792 g     F .text	00000096 netif_set_ipaddr
00000200 g     F .text	00000020 .hidden __riscv_restore_11
00001426  w      .text	00000000 SPI1_IRQHandler
00001b5c g     F .text	00000016 USART_Cmd
0000902a g     F .text	00000032 _sbrk_r
00001426  w      .text	00000000 TAMPER_IRQHandler
000001f0 g     F .text	0000000c .hidden __riscv_save_1
20006710 g     O .bss	0000002c WCHCfg
00000214 g     F .text	0000000c .hidden __riscv_restore_0
00001e80 g     F .text	000000a4 ETH_RegInit
000001d6 g     F .text	0000001a .hidden __riscv_save_7
00001426  w      .text	00000000 CAN2_RX0_IRQHandler
2000024c g     O .data	00000004 DHCPXid
00004d50 g     F .text	00000116 tcp_bind
20001918 g     O .bss	000029ac MACRxBuf
00008950 g     F .text	000003a2 __ssvfscanf_r
00001426  w      .text	00000000 TIM8_UP_IRQHandler
00000d62 g     F .text	0000005a WCHNET_CreateUdpSocket
00003f2a g     F .text	0000017e ip_frag
00001910 g     F .text	0000001e RCC_APB1PeriphClockCmd
200002b0 g     O .bss	00000004 pDMARxSet
00001426  w      .text	00000000 Ecall_M_Mode_Handler
2000f800 g       .stack	00000000 _heap_end
2000666c g     O .bss	00000040 dhcp_host_name
000021b8 g     F .text	00000036 Delay_Us
0000020a g     F .text	00000016 .hidden __riscv_restore_5
2000028a g     O .bss	00000001 SocketId
000092c4 g     F .text	00000058 _realloc_r
00001aaa g     F .text	0000000a TIM_GetFlagStatus
00001426  w      .text	00000000 DMA2_Channel2_IRQHandler
000018d4 g     F .text	0000001e RCC_AHBPeriphClockCmd
00001426  w      .text	00000000 DMA1_Channel4_IRQHandler
000022bc g     F .text	0000002a _sbrk
00004b7e g     F .text	0000009c pbuf_copy
00007254 g     F .text	0000007c tcp_rexmit
20000294 g     O .bss	00000004 DMATxDescToSet
000086ae g     F .text	0000001e strtol
20000234 g     O .data	00000004 IPMask
00001426  w      .text	00000000 TIM9_UP_IRQHandler
0000020a g     F .text	00000016 .hidden __riscv_restore_6
00001426  w      .text	00000000 USART3_IRQHandler
00001682 g     F .text	0000000a EXTI_ClearITPendingBit
00001426  w      .text	00000000 RTC_IRQHandler
2000031c g     O .bss	00000004 tcp_tmp_pcb
200067ac g       .bss	00000000 _ebss
2000535c g     O .bss	0000066c Mem_Heap_Memory
00001426  w      .text	00000000 DMA1_Channel7_IRQHandler
00001426  w      .text	00000000 CAN1_RX1_IRQHandler
00002192 g     F .text	00000026 Delay_Init
00000aa2 g     F .text	0000001e GPIO_ConfigInputPullup
000044ae g     F .text	0000003e mem_init
0000161a g     F .text	00000008 ETH_DMAClearITPendingBit
00001426  w      .text	00000000 DVP_IRQHandler
00001426  w      .text	00000000 UART5_IRQHandler
0000192e g     F .text	0000002e RCC_GetFlagStatus
200002ae g     O .bss	00000002 gPHYAddress
200002c4 g     O .bss	00000001 phyNegoStat
00006de4 g     F .text	00000368 tcp_output
00001be6 g     F .text	00000022 ETH_LedLinkSet
00001756 g     F .text	00000004 GPIO_SetBits
00001426  w      .text	00000000 TIM4_IRQHandler
2000033c g     O .bss	00000004 tcp_input_pcb
00004c1a g     F .text	00000068 raw_input
00006d74 g     F .text	00000070 tcp_send_empty_ack
000001c8 g     F .text	00000028 .hidden __riscv_save_9
000072d0 g     F .text	00000062 tcp_rexmit_fast
00001426  w      .text	00000000 DMA2_Channel1_IRQHandler
200059c8 g     O .bss	00000c43 Memp_Memory
00001664 g     F .text	0000001e ETH_DMAITConfig
000035cc g     F .text	00000076 wch_ethernetif_init
00002442 g     F .text	0000006a getTxBuffAddr
00003682 g     F .text	0000000c ntohl
0000160c g     F .text	0000000e ETH_SoftwareReset
00009e04 g     O .text	00000020 __sf_fake_stderr
000001d6 g     F .text	0000001a .hidden __riscv_save_4
000048d0 g     F .text	00000006 netif_set_default
000026b0 g     F .text	0000004c WCHSocketInit
0000152c g     F .text	00000052 ETH_WritePHYRegister
00007786 g     F .text	00000006 udp_recv
00001426  w      .text	00000000 I2C1_EV_IRQHandler
200002b9 g     O .bss	00000001 phyLinkReset
000024ca g     F .text	0000002c IPConflictHandle
0000499a g     F .text	00000140 pbuf_alloc
00002be4 g     F .text	00000052 WCHScokedIntHandle
0000175e g     F .text	00000176 RCC_GetClocksFreq
00002b1e g     F .text	000000c6 WCHNET_SocketUdpSendTo
00001426  w      .text	00000000 DMA1_Channel6_IRQHandler
20000244 g     O .data	00000001 phyPN
00001426  w      .text	00000000 UART4_IRQHandler
200002d8 g     O .bss	00000004 TCPVerifyConnCallback
00001426  w      .text	00000000 DMA2_Channel4_IRQHandler
000092a8 g     F .text	00000018 memchr
2000027c g     O .data	00000004 ip_addr_broadcast
000008d6 g     F .text	00000090 Config_Load
00001acc g     F .text	00000090 USART_Init
20000258 g     O .data	00000004 memp_sizes
000086f4 g     F .text	000000a8 _free_r
00001c08 g     F .text	00000020 WCHNET_GetMacAddr
00001426  w      .text	00000000 TIM3_IRQHandler
00001426  w      .text	00000000 RCC_IRQHandler
200018f8 g     O .bss	00000020 DMATxDscrTab
000001f0 g     F .text	0000000c .hidden __riscv_save_3
00007708 g     F .text	0000007e udp_connect
00001426  w      .text	00000000 TIM1_TRG_COM_IRQHandler
00009c78 g     O .text	00000010 ErrTable
00001426  w      .text	00000000 DMA1_Channel1_IRQHandler
00008876 g     F .text	00000096 _sungetc_r
00004828 g     F .text	0000004e netif_set_addr
00004314 g     F .text	00000182 dhcp_arp_reply
00000000 g       .init	00000000 _start
00001426  w      .text	00000000 DMA2_Channel7_IRQHandler
20000030 g     O .data	00000010 AHBPrescTable
0000475a g     F .text	00000020 memp_malloc
00007cda  w    F .text	000000e0 prints
00001426  w      .text	00000000 EXTI15_10_IRQHandler
00001a98 g     F .text	00000012 TIM_ITConfig
200066c0 g     O .bss	0000000c KeepLiveCfg
20000228 g     O .data	00000002 BroadcastPort
0000294e g     F .text	000001d0 WCHNET_SocketCreat
200002c5 g     O .bss	00000001 phyStatus
2000673c g     O .bss	00000038 WCHNetIf
00008462 g     F .text	00000024 strncpy
20000310 g     O .bss	00000004 tcp_bound_pcbs
0000365e g     F .text	00000024 htonl
00004eea g     F .text	0000002a tcp_seg_free
0000920e g     F .text	00000016 _strtoul_r
00002c36 g     F .text	0000009e LwipRemoveTcpPcb
0000175a g     F .text	00000004 GPIO_ResetBits
000022ec g     F .text	00000006 __get_MCAUSE
00001426  w      .text	00000000 TIM7_IRQHandler
200002c0 g     O .bss	00000004 phyNegoLinkTime
0000463a g     F .text	000000d0 mem_malloc
00001426  w      .text	00000000 CAN2_TX_IRQHandler
20000000 g       .dalign	00000000 _data_vma
00001c78 g     F .text	00000022 ETH_SetClock
00001426  w      .text	00000000 TIM5_IRQHandler
00008486 g     F .text	0000007c strtok
000015c0 g     F .text	0000004c ETH_DMARxDescChainInit
000083b8 g     F .text	00000050 sscanf
000014d4 g     F .text	00000058 ETH_ReadPHYRegister
00000436 g     F .text	00000054 EXTI9_5_IRQHandler
00008436 g     F .text	0000002c strncat
00006916 g     F .text	00000448 tcp_enqueue
000052f4 g     F .text	0000002e tcp_eff_send_mss
000028f0 g     F .text	0000005e WCHFindCorrectTCBPcb
000001c8 g     F .text	00000028 .hidden __riscv_save_10
00002114 g     F .text	0000007e ETH_LibInit
0000195c g     F .text	00000010 RCC_PREDIV2Config
00001426  w      .text	00000000 ETH_WKUP_IRQHandler
000092c0 g     F .text	00000002 __malloc_lock
0000020a g     F .text	00000016 .hidden __riscv_restore_4
000022f2 g     F .text	00000006 __get_MTVAL
00000200 g     F .text	00000020 .hidden __riscv_restore_8
000022e6 g     F .text	00000006 __get_MEPC
00000ccc g     F .text	0000002c UdpSend
000001d6 g     F .text	0000001a .hidden __riscv_save_6
00004ca0 g     F .text	0000001e raw_connect
00001426  w      .text	00000000 SPI2_IRQHandler
00009e24 g     O .text	00000020 __sf_fake_stdin
200002d2 g     O .bss	00000002 Arp_Entry_timeout
00001c34 g     F .text	00000044 ETH_LedConfiguration
00000220 g     F .text	000000a8 memset
00000ac0 g     F .text	00000014 GPIO_ReadPin
00000200 g     F .text	00000020 .hidden __riscv_restore_9
0000020a g     F .text	00000016 .hidden __riscv_restore_7
00001016 g     F .text	00000176 main
200002a0 g     O .bss	00000004 LocalTime
20000254 g     O .data	00000004 memp_num
00001426  w      .text	00000000 TIM10_BRK_IRQHandler
2000022c g     O .data	00000004 GWIPAddr
00000c16 g     F .text	0000001a mStopIfError
00001426  w      .text	00000000 TIM9_CC_IRQHandler
00007a76 g     F .text	00000014 icmp_dest_unreach
000024f8 g     F .text	000000c4 SocketIPRAWReceive
000048d6 g     F .text	00000008 netif_is_up
00001426  w      .text	00000000 DMA2_Channel5_IRQHandler
00008698 g     F .text	00000016 _strtol_r
00003650 g     F .text	0000000e ntohs
0000879c g     F .text	000000da _malloc_r
00004cc4 g     F .text	00000030 raw_new
000024f6 g     F .text	00000002 NET_TCPError
000086cc g     F .text	0000001e __ascii_wctomb
0000355c g     F .text	00000070 ethernetif_input
00000b2c g     F .text	000000b6 INI_Parse
00009224 g     F .text	00000084 __submore
00001426  w      .text	00000000 DMA1_Channel5_IRQHandler
200002c6 g     O .bss	00000001 phySucCnt
00001426  w      .text	00000000 EXTI4_IRQHandler
000021ee g     F .text	00000036 Delay_Ms
00001426  w      .text	00000000 USB_LP_CAN1_RX0_IRQHandler
200002a4 g     O .bss	00000001 PhyPolarityDetect
200066ac g     O .bss	00000014 DNSInf
0000756a g     F .text	0000009a udp_bind
000031d4 g     F .text	00000118 etharp_query
000002c8 g     F .text	0000011a strcmp
00004496 g     F .text	00000018 lwip_init
000083b8 g     F .text	00000050 siscanf
00000c9e g     F .text	0000002e CalcBroadcastIP
00002402 g     F .text	00000032 WCHNET_Tx
00000e1e g     F .text	000000c6 Button_Task
000032ec g     F .text	00000134 etharp_output
0000118c g     F .text	000000fa SystemInit
00001426  w      .text	00000000 RNG_IRQHandler
20001888 g     O .bss	00000070 DMARxDscrTab
200002bc g     O .bss	00000004 phyLinkTime
00007c90  w    F .text	0000004a printchar
00001426  w      .text	00000000 USB_HP_CAN1_TX_IRQHandler
00000dbc g     F .text	00000062 Button_Init
000081f8 g     F .text	00000028 sprintf
00004b32 g     F .text	00000012 pbuf_clen
00000000 g       .init	00000000 _sinit
00000ee4 g     F .text	0000005e Encoder_Init
00002696 g     F .text	0000001a ErrorEncode
00001426  w      .text	00000000 DMA1_Channel3_IRQHandler
00004cbe g     F .text	00000006 raw_recv
200002e0 g     O .bss	00000008 frame
00009c58 g     O .text	00000010 MemNum
0000048a g     F .text	00000008 ETH_IRQHandler
20000264 g     O .data	00000004 _impure_ptr
00001426  w      .text	00000000 TIM1_UP_IRQHandler
20000354 g     O .bss	00000e54 g_cfg
0000235a g     F .text	00000096 WCHNET_Rx
20000000 g     O .data	0000002d SocketMyBuf
00000cf8 g     F .text	0000006a WCHNET_UdpServerRecv
20000230 g     O .data	00000004 IPAddr
00001426  w      .text	00000000 WWDG_IRQHandler
00001426  w      .text	00000000 USBHSWakeup_IRQHandler
00001426  w      .text	00000000 DMA2_Channel11_IRQHandler
0000828e g     F .text	00000032 __ascii_mbtowc
00001632 g     F .text	00000032 ETH_Start
00001426  w      .text	00000000 Ecall_U_Mode_Handler
000034a6 g     F .text	00000064 ethernetif_init
00001426  w      .text	00000000 DMA2_Channel6_IRQHandler
00000492 g     F .text	00000014 TIM2_IRQHandler
20010000 g       .stack	00000000 _eusrstack
000001f0 g     F .text	0000000c .hidden __riscv_save_2
00001426  w      .text	00000000 SW_Handler
200042c4 g     O .bss	00000be8 MACTxBuf
00008950 g     F .text	000003a2 __ssvfiscanf_r
200002b4 g     O .bss	00000004 pDMATxSet
00002cd4 g     F .text	0000000a WCHNET_GetPHYStatus
000024ac g     F .text	0000001e IPCheckParaInit
00000f42 g     F .text	000000d4 Encoder_Task
00001426  w      .text	00000000 TIM1_BRK_IRQHandler
00001b72 g     F .text	00000008 USART_SendData
20000320 g     O .bss	00000004 tcp_tw_pcbs
00001426  w      .text	00000000 DMA2_Channel10_IRQHandler
00001426  w      .text	00000000 EXTI1_IRQHandler
00007332 g     F .text	00000238 udp_input
000001d6 g     F .text	0000001a .hidden __riscv_save_5
200002cc g     O .bss	00000004 TxTimer
0000227e g     F .text	0000003e _write
20000280 g       .data	00000000 _edata
200067ac g       .bss	00000000 _end
00003642 g     F .text	0000000e htons
00001f24 g     F .text	000000e4 ETH_Configuration
000019c0 g     F .text	000000aa TIM_TimeBaseInit
0000368e g     F .text	0000004c ip_route
00001426  w      .text	00000000 RTCAlarm_IRQHandler
200002ac g     O .bss	00000001 TRDetectStep
00009e64 g       .dlalign	00000000 _data_lma
00001426  w      .text	00000000 TIM10_UP_IRQHandler
00001426  w      .text	00000000 TIM9_TRG_COM_IRQHandler
00001426  w      .text	00000000 UART7_IRQHandler
000048de g     F .text	0000006e pbuf_header
00004570 g     F .text	000000ca mem_realloc
200002fc g     O .bss	00000004 netif_default
00004fb2 g     F .text	00000072 tcp_pcb_remove
00001426  w      .text	00000000 USART2_IRQHandler
00001426  w      .text	00000000 UART6_IRQHandler
200002ba g     O .bss	00000001 phyLinkStatus
00004b6a g     F .text	00000014 pbuf_chain
20004eac g     O .bss	000004b0 Mem_ArpTable
00005106 g     F .text	0000009a tcp_abandon
20000250 g     O .data	00000004 arp_table
000025bc g     F .text	000000da SocketUdpReceive
00001286 g     F .text	0000012a SystemCoreClockUpdate
2000660c g     O .bss	0000003c SocketInf
0000470a g     F .text	00000050 memp_init
000028ec g     F .text	00000004 WCHNET_GetVer
00001426  w      .text	00000000 I2C2_ER_IRQHandler
200002dc g     O .bss	00000001 phydata
00001426  w      .text	00000000 DMA1_Channel2_IRQHandler
00009e44 g     O .text	00000020 __sf_fake_stdout
0000197e g     F .text	00000024 RCC_PLL3Cmd
0000905c g     F .text	00000082 __sccl
0000826a g     F .text	00000006 atoi
00002f44 g     F .text	0000005a etharp_ip_input
000001fc g     F .text	00000024 .hidden __riscv_restore_12
00001426  w      .text	00000000 TIM8_BRK_IRQHandler
00009cdc g     O .text	00000101 _ctype_
00001428  w      .text	00000000 handle_reset
00001426  w      .text	00000000 CAN1_SCE_IRQHandler
200011a8 g     O .bss	000005c0 SocketRecvBuf
00001cf0 g     F .text	00000190 ETH_PHYLink
00001426  w      .text	00000000 FLASH_IRQHandler
000001f0 g     F .text	0000000c .hidden __riscv_save_0
00002cde g     F .text	0000000e QueryPingEnable
00004f32 g     F .text	00000028 tcp_seg_copy
200002a8 g     O .bss	00000004 RandVal
00000c30 g     F .text	0000006e TIM2_Init
00001426  w      .text	00000000 USART1_IRQHandler
00008424 g     F .text	00000012 strlen
00001426  w      .text	00000000 SPI3_IRQHandler
00008270 g     F .text	00000006 __locale_ctype_ptr_l
0000778c g     F .text	00000024 udp_new
20000350 g     O .bss	00000004 __malloc_sbrk_start
00001426  w      .text	00000000 I2C1_ER_IRQHandler
20000220 g     O .data	00000002 newline_str
0000840c g     F .text	00000018 strchr
20000268 g     O .data	00000006 ethbroadcast
00001c28 g     F .text	0000000c WCHNET_TimeIsr
2000034c g     O .bss	00000004 __malloc_free_list
00000214 g     F .text	0000000c .hidden __riscv_restore_1
200066cc g     O .bss	00000044 NetInf
00002d06 g     F .text	0000000c LwipArpCheck
0000174c g     F .text	0000000a GPIO_ReadInputDataBit
00005dda g     F .text	00000a68 tcp_input
000013fc g     F .text	0000002a millis
20000050 g     O .data	0000016c __global_locale
000036da g     F .text	0000029a ip_input
20000270 g     O .data	00000006 ethzero
20000224 g     O .data	00000004 BroadcastAddr
00001426  w      .text	00000000 USBWakeUp_IRQHandler
0000196c g     F .text	00000012 RCC_PLL3Config
000027a8 g     F .text	00000144 WCHNET_ConfigLIB
00002cec g     F .text	0000001a LwipUnreachPort
200002d1 g     O .bss	00000001 ARP_Retry_Period
00001426  w      .text	00000000 DMA2_Channel3_IRQHandler
0000230c g     F .text	0000004e WCHNET_PhyStatus
0000157e g     F .text	00000042 ETH_DMATxDescChainInit



Disassembly of section .init:

00000000 <_sinit>:
_start():
/home/randy/mounriver-studio-projects/UdpServer/obj/../Startup/startup_ch32v30x_D8C.S:17

	.section	.init,"ax",@progbits
	.global	_start
	.align	1
_start:
	j	handle_reset
   0:	4280106f          	j	1428 <handle_reset>

Disassembly of section .vector:

00000004 <_vector_base>:
	...
_vector_base():
   c:	03e2                	slli	t2,t2,0x18
   e:	0000                	unimp
  10:	03e4                	addi	s1,sp,460
  12:	0000                	unimp
  14:	0000                	unimp
  16:	0000                	unimp
  18:	1426                	slli	s0,s0,0x29
	...
  22:	0000                	unimp
  24:	1426                	slli	s0,s0,0x29
  26:	0000                	unimp
  28:	1426                	slli	s0,s0,0x29
	...
  32:	0000                	unimp
  34:	1426                	slli	s0,s0,0x29
  36:	0000                	unimp
  38:	0000                	unimp
  3a:	0000                	unimp
  3c:	1426                	slli	s0,s0,0x29
  3e:	0000                	unimp
  40:	0000                	unimp
  42:	0000                	unimp
  44:	1426                	slli	s0,s0,0x29
  46:	0000                	unimp
  48:	1426                	slli	s0,s0,0x29
  4a:	0000                	unimp
  4c:	1426                	slli	s0,s0,0x29
  4e:	0000                	unimp
  50:	1426                	slli	s0,s0,0x29
  52:	0000                	unimp
  54:	1426                	slli	s0,s0,0x29
  56:	0000                	unimp
  58:	1426                	slli	s0,s0,0x29
  5a:	0000                	unimp
  5c:	1426                	slli	s0,s0,0x29
  5e:	0000                	unimp
  60:	1426                	slli	s0,s0,0x29
  62:	0000                	unimp
  64:	1426                	slli	s0,s0,0x29
  66:	0000                	unimp
  68:	1426                	slli	s0,s0,0x29
  6a:	0000                	unimp
  6c:	1426                	slli	s0,s0,0x29
  6e:	0000                	unimp
  70:	1426                	slli	s0,s0,0x29
  72:	0000                	unimp
  74:	1426                	slli	s0,s0,0x29
  76:	0000                	unimp
  78:	1426                	slli	s0,s0,0x29
  7a:	0000                	unimp
  7c:	1426                	slli	s0,s0,0x29
  7e:	0000                	unimp
  80:	1426                	slli	s0,s0,0x29
  82:	0000                	unimp
  84:	1426                	slli	s0,s0,0x29
  86:	0000                	unimp
  88:	1426                	slli	s0,s0,0x29
  8a:	0000                	unimp
  8c:	1426                	slli	s0,s0,0x29
  8e:	0000                	unimp
  90:	1426                	slli	s0,s0,0x29
  92:	0000                	unimp
  94:	1426                	slli	s0,s0,0x29
  96:	0000                	unimp
  98:	1426                	slli	s0,s0,0x29
  9a:	0000                	unimp
  9c:	1426                	slli	s0,s0,0x29
  9e:	0000                	unimp
  a0:	0436                	slli	s0,s0,0xd
  a2:	0000                	unimp
  a4:	1426                	slli	s0,s0,0x29
  a6:	0000                	unimp
  a8:	1426                	slli	s0,s0,0x29
  aa:	0000                	unimp
  ac:	1426                	slli	s0,s0,0x29
  ae:	0000                	unimp
  b0:	1426                	slli	s0,s0,0x29
  b2:	0000                	unimp
  b4:	0492                	slli	s1,s1,0x4
  b6:	0000                	unimp
  b8:	1426                	slli	s0,s0,0x29
  ba:	0000                	unimp
  bc:	1426                	slli	s0,s0,0x29
  be:	0000                	unimp
  c0:	1426                	slli	s0,s0,0x29
  c2:	0000                	unimp
  c4:	1426                	slli	s0,s0,0x29
  c6:	0000                	unimp
  c8:	1426                	slli	s0,s0,0x29
  ca:	0000                	unimp
  cc:	1426                	slli	s0,s0,0x29
  ce:	0000                	unimp
  d0:	1426                	slli	s0,s0,0x29
  d2:	0000                	unimp
  d4:	1426                	slli	s0,s0,0x29
  d6:	0000                	unimp
  d8:	1426                	slli	s0,s0,0x29
  da:	0000                	unimp
  dc:	1426                	slli	s0,s0,0x29
  de:	0000                	unimp
  e0:	1426                	slli	s0,s0,0x29
  e2:	0000                	unimp
  e4:	1426                	slli	s0,s0,0x29
  e6:	0000                	unimp
  e8:	1426                	slli	s0,s0,0x29
  ea:	0000                	unimp
  ec:	1426                	slli	s0,s0,0x29
  ee:	0000                	unimp
  f0:	1426                	slli	s0,s0,0x29
  f2:	0000                	unimp
  f4:	1426                	slli	s0,s0,0x29
  f6:	0000                	unimp
  f8:	1426                	slli	s0,s0,0x29
  fa:	0000                	unimp
  fc:	1426                	slli	s0,s0,0x29
  fe:	0000                	unimp
 100:	1426                	slli	s0,s0,0x29
 102:	0000                	unimp
 104:	0000                	unimp
 106:	0000                	unimp
 108:	1426                	slli	s0,s0,0x29
 10a:	0000                	unimp
 10c:	1426                	slli	s0,s0,0x29
 10e:	0000                	unimp
 110:	1426                	slli	s0,s0,0x29
 112:	0000                	unimp
 114:	1426                	slli	s0,s0,0x29
 116:	0000                	unimp
 118:	1426                	slli	s0,s0,0x29
 11a:	0000                	unimp
 11c:	1426                	slli	s0,s0,0x29
 11e:	0000                	unimp
 120:	1426                	slli	s0,s0,0x29
 122:	0000                	unimp
 124:	1426                	slli	s0,s0,0x29
 126:	0000                	unimp
 128:	1426                	slli	s0,s0,0x29
 12a:	0000                	unimp
 12c:	1426                	slli	s0,s0,0x29
 12e:	0000                	unimp
 130:	1426                	slli	s0,s0,0x29
 132:	0000                	unimp
 134:	1426                	slli	s0,s0,0x29
 136:	0000                	unimp
 138:	048a                	slli	s1,s1,0x2
 13a:	0000                	unimp
 13c:	1426                	slli	s0,s0,0x29
 13e:	0000                	unimp
 140:	1426                	slli	s0,s0,0x29
 142:	0000                	unimp
 144:	1426                	slli	s0,s0,0x29
 146:	0000                	unimp
 148:	1426                	slli	s0,s0,0x29
 14a:	0000                	unimp
 14c:	1426                	slli	s0,s0,0x29
 14e:	0000                	unimp
 150:	1426                	slli	s0,s0,0x29
 152:	0000                	unimp
 154:	1426                	slli	s0,s0,0x29
 156:	0000                	unimp
 158:	1426                	slli	s0,s0,0x29
 15a:	0000                	unimp
 15c:	1426                	slli	s0,s0,0x29
 15e:	0000                	unimp
 160:	1426                	slli	s0,s0,0x29
 162:	0000                	unimp
 164:	1426                	slli	s0,s0,0x29
 166:	0000                	unimp
 168:	1426                	slli	s0,s0,0x29
 16a:	0000                	unimp
 16c:	1426                	slli	s0,s0,0x29
 16e:	0000                	unimp
 170:	1426                	slli	s0,s0,0x29
 172:	0000                	unimp
 174:	1426                	slli	s0,s0,0x29
 176:	0000                	unimp
 178:	1426                	slli	s0,s0,0x29
 17a:	0000                	unimp
 17c:	1426                	slli	s0,s0,0x29
 17e:	0000                	unimp
 180:	1426                	slli	s0,s0,0x29
 182:	0000                	unimp
 184:	1426                	slli	s0,s0,0x29
 186:	0000                	unimp
 188:	1426                	slli	s0,s0,0x29
 18a:	0000                	unimp
 18c:	1426                	slli	s0,s0,0x29
 18e:	0000                	unimp
 190:	1426                	slli	s0,s0,0x29
 192:	0000                	unimp
 194:	1426                	slli	s0,s0,0x29
 196:	0000                	unimp
 198:	1426                	slli	s0,s0,0x29
 19a:	0000                	unimp
 19c:	1426                	slli	s0,s0,0x29
 19e:	0000                	unimp
 1a0:	1426                	slli	s0,s0,0x29
	...

Disassembly of section .text:

000001c0 <__riscv_save_12>:
__riscv_save_12():
     1c0:	7139                	addi	sp,sp,-64
     1c2:	4301                	li	t1,0
     1c4:	c66e                	sw	s11,12(sp)
     1c6:	a019                	j	1cc <__riscv_save_10+0x4>

000001c8 <__riscv_save_10>:
     1c8:	7139                	addi	sp,sp,-64
     1ca:	5341                	li	t1,-16
     1cc:	c86a                	sw	s10,16(sp)
     1ce:	ca66                	sw	s9,20(sp)
     1d0:	cc62                	sw	s8,24(sp)
     1d2:	ce5e                	sw	s7,28(sp)
     1d4:	a019                	j	1da <__riscv_save_4+0x4>

000001d6 <__riscv_save_4>:
     1d6:	7139                	addi	sp,sp,-64
     1d8:	5301                	li	t1,-32
     1da:	d05a                	sw	s6,32(sp)
     1dc:	d256                	sw	s5,36(sp)
     1de:	d452                	sw	s4,40(sp)
     1e0:	d64e                	sw	s3,44(sp)
     1e2:	d84a                	sw	s2,48(sp)
     1e4:	da26                	sw	s1,52(sp)
     1e6:	dc22                	sw	s0,56(sp)
     1e8:	de06                	sw	ra,60(sp)
     1ea:	40610133          	sub	sp,sp,t1
     1ee:	8282                	jr	t0

000001f0 <__riscv_save_0>:
__riscv_save_1():
     1f0:	1141                	addi	sp,sp,-16
     1f2:	c04a                	sw	s2,0(sp)
     1f4:	c226                	sw	s1,4(sp)
     1f6:	c422                	sw	s0,8(sp)
     1f8:	c606                	sw	ra,12(sp)
     1fa:	8282                	jr	t0

000001fc <__riscv_restore_12>:
__riscv_restore_12():
     1fc:	4db2                	lw	s11,12(sp)
     1fe:	0141                	addi	sp,sp,16

00000200 <__riscv_restore_10>:
     200:	4d02                	lw	s10,0(sp)
     202:	4c92                	lw	s9,4(sp)
     204:	4c22                	lw	s8,8(sp)
     206:	4bb2                	lw	s7,12(sp)
     208:	0141                	addi	sp,sp,16

0000020a <__riscv_restore_4>:
     20a:	4b02                	lw	s6,0(sp)
     20c:	4a92                	lw	s5,4(sp)
     20e:	4a22                	lw	s4,8(sp)
     210:	49b2                	lw	s3,12(sp)
     212:	0141                	addi	sp,sp,16

00000214 <__riscv_restore_0>:
     214:	4902                	lw	s2,0(sp)
     216:	4492                	lw	s1,4(sp)
     218:	4422                	lw	s0,8(sp)
     21a:	40b2                	lw	ra,12(sp)
     21c:	0141                	addi	sp,sp,16
     21e:	8082                	ret

00000220 <memset>:
memset():
     220:	433d                	li	t1,15
     222:	872a                	mv	a4,a0
     224:	02c37363          	bgeu	t1,a2,24a <memset+0x2a>
     228:	00f77793          	andi	a5,a4,15
     22c:	efbd                	bnez	a5,2aa <memset+0x8a>
     22e:	e5ad                	bnez	a1,298 <memset+0x78>
     230:	ff067693          	andi	a3,a2,-16
     234:	8a3d                	andi	a2,a2,15
     236:	96ba                	add	a3,a3,a4
     238:	c30c                	sw	a1,0(a4)
     23a:	c34c                	sw	a1,4(a4)
     23c:	c70c                	sw	a1,8(a4)
     23e:	c74c                	sw	a1,12(a4)
     240:	0741                	addi	a4,a4,16
     242:	fed76be3          	bltu	a4,a3,238 <memset+0x18>
     246:	e211                	bnez	a2,24a <memset+0x2a>
     248:	8082                	ret
     24a:	40c306b3          	sub	a3,t1,a2
     24e:	068a                	slli	a3,a3,0x2
     250:	00000297          	auipc	t0,0x0
     254:	9696                	add	a3,a3,t0
     256:	00a68067          	jr	10(a3)
     25a:	00b70723          	sb	a1,14(a4)
     25e:	00b706a3          	sb	a1,13(a4)
     262:	00b70623          	sb	a1,12(a4)
     266:	00b705a3          	sb	a1,11(a4)
     26a:	00b70523          	sb	a1,10(a4)
     26e:	00b704a3          	sb	a1,9(a4)
     272:	00b70423          	sb	a1,8(a4)
     276:	00b703a3          	sb	a1,7(a4)
     27a:	00b70323          	sb	a1,6(a4)
     27e:	00b702a3          	sb	a1,5(a4)
     282:	00b70223          	sb	a1,4(a4)
     286:	00b701a3          	sb	a1,3(a4)
     28a:	00b70123          	sb	a1,2(a4)
     28e:	00b700a3          	sb	a1,1(a4)
     292:	00b70023          	sb	a1,0(a4)
     296:	8082                	ret
     298:	0ff5f593          	andi	a1,a1,255
     29c:	00859693          	slli	a3,a1,0x8
     2a0:	8dd5                	or	a1,a1,a3
     2a2:	01059693          	slli	a3,a1,0x10
     2a6:	8dd5                	or	a1,a1,a3
     2a8:	b761                	j	230 <memset+0x10>
     2aa:	00279693          	slli	a3,a5,0x2
     2ae:	00000297          	auipc	t0,0x0
     2b2:	9696                	add	a3,a3,t0
     2b4:	8286                	mv	t0,ra
     2b6:	fa8680e7          	jalr	-88(a3)
     2ba:	8096                	mv	ra,t0
     2bc:	17c1                	addi	a5,a5,-16
     2be:	8f1d                	sub	a4,a4,a5
     2c0:	963e                	add	a2,a2,a5
     2c2:	f8c374e3          	bgeu	t1,a2,24a <memset+0x2a>
     2c6:	b7a5                	j	22e <memset+0xe>

000002c8 <strcmp>:
strcmp():
     2c8:	00b56733          	or	a4,a0,a1
     2cc:	53fd                	li	t2,-1
     2ce:	8b0d                	andi	a4,a4,3
     2d0:	e779                	bnez	a4,39e <strcmp+0xd6>
     2d2:	7f7f87b7          	lui	a5,0x7f7f8
     2d6:	f7f78793          	addi	a5,a5,-129 # 7f7f7f7f <_eusrstack+0x5f7e7f7f>
     2da:	4110                	lw	a2,0(a0)
     2dc:	4194                	lw	a3,0(a1)
     2de:	00f672b3          	and	t0,a2,a5
     2e2:	00f66333          	or	t1,a2,a5
     2e6:	92be                	add	t0,t0,a5
     2e8:	0062e2b3          	or	t0,t0,t1
     2ec:	0c729563          	bne	t0,t2,3b6 <strcmp+0xee>
     2f0:	06d61863          	bne	a2,a3,360 <strcmp+0x98>
     2f4:	4150                	lw	a2,4(a0)
     2f6:	41d4                	lw	a3,4(a1)
     2f8:	00f672b3          	and	t0,a2,a5
     2fc:	00f66333          	or	t1,a2,a5
     300:	92be                	add	t0,t0,a5
     302:	0062e2b3          	or	t0,t0,t1
     306:	0a729663          	bne	t0,t2,3b2 <strcmp+0xea>
     30a:	04d61b63          	bne	a2,a3,360 <strcmp+0x98>
     30e:	4510                	lw	a2,8(a0)
     310:	4594                	lw	a3,8(a1)
     312:	00f672b3          	and	t0,a2,a5
     316:	00f66333          	or	t1,a2,a5
     31a:	92be                	add	t0,t0,a5
     31c:	0062e2b3          	or	t0,t0,t1
     320:	08729f63          	bne	t0,t2,3be <strcmp+0xf6>
     324:	02d61e63          	bne	a2,a3,360 <strcmp+0x98>
     328:	4550                	lw	a2,12(a0)
     32a:	45d4                	lw	a3,12(a1)
     32c:	00f672b3          	and	t0,a2,a5
     330:	00f66333          	or	t1,a2,a5
     334:	92be                	add	t0,t0,a5
     336:	0062e2b3          	or	t0,t0,t1
     33a:	08729863          	bne	t0,t2,3ca <strcmp+0x102>
     33e:	02d61163          	bne	a2,a3,360 <strcmp+0x98>
     342:	4910                	lw	a2,16(a0)
     344:	4994                	lw	a3,16(a1)
     346:	00f672b3          	and	t0,a2,a5
     34a:	00f66333          	or	t1,a2,a5
     34e:	92be                	add	t0,t0,a5
     350:	0062e2b3          	or	t0,t0,t1
     354:	08729163          	bne	t0,t2,3d6 <strcmp+0x10e>
     358:	0551                	addi	a0,a0,20
     35a:	05d1                	addi	a1,a1,20
     35c:	f6d60fe3          	beq	a2,a3,2da <strcmp+0x12>
     360:	01061713          	slli	a4,a2,0x10
     364:	01069793          	slli	a5,a3,0x10
     368:	00f71c63          	bne	a4,a5,380 <strcmp+0xb8>
     36c:	01065713          	srli	a4,a2,0x10
     370:	0106d793          	srli	a5,a3,0x10
     374:	40f70533          	sub	a0,a4,a5
     378:	0ff57593          	andi	a1,a0,255
     37c:	e991                	bnez	a1,390 <strcmp+0xc8>
     37e:	8082                	ret
     380:	8341                	srli	a4,a4,0x10
     382:	83c1                	srli	a5,a5,0x10
     384:	40f70533          	sub	a0,a4,a5
     388:	0ff57593          	andi	a1,a0,255
     38c:	e191                	bnez	a1,390 <strcmp+0xc8>
     38e:	8082                	ret
     390:	0ff77713          	andi	a4,a4,255
     394:	0ff7f793          	andi	a5,a5,255
     398:	40f70533          	sub	a0,a4,a5
     39c:	8082                	ret
     39e:	2110                	lbu	a2,0(a0)
     3a0:	2194                	lbu	a3,0(a1)
     3a2:	0505                	addi	a0,a0,1
     3a4:	0585                	addi	a1,a1,1
     3a6:	00d61363          	bne	a2,a3,3ac <strcmp+0xe4>
     3aa:	fa75                	bnez	a2,39e <strcmp+0xd6>
     3ac:	40d60533          	sub	a0,a2,a3
     3b0:	8082                	ret
     3b2:	0511                	addi	a0,a0,4
     3b4:	0591                	addi	a1,a1,4
     3b6:	fed614e3          	bne	a2,a3,39e <strcmp+0xd6>
     3ba:	4501                	li	a0,0
     3bc:	8082                	ret
     3be:	0521                	addi	a0,a0,8
     3c0:	05a1                	addi	a1,a1,8
     3c2:	fcd61ee3          	bne	a2,a3,39e <strcmp+0xd6>
     3c6:	4501                	li	a0,0
     3c8:	8082                	ret
     3ca:	0531                	addi	a0,a0,12
     3cc:	05b1                	addi	a1,a1,12
     3ce:	fcd618e3          	bne	a2,a3,39e <strcmp+0xd6>
     3d2:	4501                	li	a0,0
     3d4:	8082                	ret
     3d6:	0541                	addi	a0,a0,16
     3d8:	05c1                	addi	a1,a1,16
     3da:	fcd612e3          	bne	a2,a3,39e <strcmp+0xd6>
     3de:	4501                	li	a0,0
     3e0:	8082                	ret

000003e2 <NMI_Handler>:
NMI_Handler():
/home/randy/mounriver-studio-projects/UdpServer/obj/../User/ch32v30x_it.c:31 (discriminator 1)
 */
void NMI_Handler(void)
{
  while (1)
  {
  }
     3e2:	a001                	j	3e2 <NMI_Handler>

000003e4 <HardFault_Handler>:
HardFault_Handler():
/home/randy/mounriver-studio-projects/UdpServer/obj/../User/ch32v30x_it.c:43
 *
 * @return  none
 */
void HardFault_Handler(void)
{
    printf("HardFault_Handler\r\n");
     3e4:	00009537          	lui	a0,0x9
     3e8:	33050513          	addi	a0,a0,816 # 9330 <_malloc_usable_size_r+0x14>
     3ec:	635070ef          	jal	ra,8220 <puts>
/home/randy/mounriver-studio-projects/UdpServer/obj/../User/ch32v30x_it.c:45

    printf("mepc  :%08x\r\n", __get_MEPC());
     3f0:	6f7010ef          	jal	ra,22e6 <__get_MEPC>
     3f4:	85aa                	mv	a1,a0
     3f6:	00009537          	lui	a0,0x9
     3fa:	34450513          	addi	a0,a0,836 # 9344 <_malloc_usable_size_r+0x28>
     3fe:	5d7070ef          	jal	ra,81d4 <printf>
/home/randy/mounriver-studio-projects/UdpServer/obj/../User/ch32v30x_it.c:46
    printf("mcause:%08x\r\n", __get_MCAUSE());
     402:	6eb010ef          	jal	ra,22ec <__get_MCAUSE>
     406:	85aa                	mv	a1,a0
     408:	00009537          	lui	a0,0x9
     40c:	35450513          	addi	a0,a0,852 # 9354 <_malloc_usable_size_r+0x38>
     410:	5c5070ef          	jal	ra,81d4 <printf>
/home/randy/mounriver-studio-projects/UdpServer/obj/../User/ch32v30x_it.c:47
    printf("mtval :%08x\r\n", __get_MTVAL());
     414:	6df010ef          	jal	ra,22f2 <__get_MTVAL>
     418:	85aa                	mv	a1,a0
     41a:	00009537          	lui	a0,0x9
     41e:	36450513          	addi	a0,a0,868 # 9364 <_malloc_usable_size_r+0x48>
     422:	5b3070ef          	jal	ra,81d4 <printf>
NVIC_SystemReset():
/home/randy/mounriver-studio-projects/UdpServer/Core/core_riscv.h:382
 *
 * @return  none
 */
__attribute__( ( always_inline ) ) RV_STATIC_INLINE void NVIC_SystemReset(void)
{
  NVIC->CFGR = NVIC_KEY3|(1<<7);
     426:	beef07b7          	lui	a5,0xbeef0
     42a:	e000e737          	lui	a4,0xe000e
     42e:	08078793          	addi	a5,a5,128 # beef0080 <_eusrstack+0x9eee0080>
     432:	c73c                	sw	a5,72(a4)
HardFault_Handler():
/home/randy/mounriver-studio-projects/UdpServer/obj/../User/ch32v30x_it.c:49 (discriminator 1)
    NVIC_SystemReset();
    while(1);
     434:	a001                	j	434 <HardFault_Handler+0x50>

00000436 <EXTI9_5_IRQHandler>:
EXTI9_5_IRQHandler():
/home/randy/mounriver-studio-projects/UdpServer/obj/../User/ch32v30x_it.c:60
 * @brief   This function handles GPIO exception.
 *
 * @return  none
 */
void EXTI9_5_IRQHandler(void)
{
     436:	7139                	addi	sp,sp,-64
     438:	de06                	sw	ra,60(sp)
     43a:	dc16                	sw	t0,56(sp)
     43c:	da1a                	sw	t1,52(sp)
     43e:	d81e                	sw	t2,48(sp)
     440:	d62a                	sw	a0,44(sp)
     442:	d42e                	sw	a1,40(sp)
     444:	d232                	sw	a2,36(sp)
     446:	d036                	sw	a3,32(sp)
     448:	ce3a                	sw	a4,28(sp)
     44a:	cc3e                	sw	a5,24(sp)
     44c:	ca42                	sw	a6,20(sp)
     44e:	c846                	sw	a7,16(sp)
     450:	c672                	sw	t3,12(sp)
     452:	c476                	sw	t4,8(sp)
     454:	c27a                	sw	t5,4(sp)
     456:	c07e                	sw	t6,0(sp)
/home/randy/mounriver-studio-projects/UdpServer/obj/../User/ch32v30x_it.c:61
    ETH_PHYLink( );
     458:	099010ef          	jal	ra,1cf0 <ETH_PHYLink>
/home/randy/mounriver-studio-projects/UdpServer/obj/../User/ch32v30x_it.c:62
    EXTI_ClearITPendingBit(EXTI_Line7);     /* Clear Flag */
     45c:	08000513          	li	a0,128
     460:	222010ef          	jal	ra,1682 <EXTI_ClearITPendingBit>
/home/randy/mounriver-studio-projects/UdpServer/obj/../User/ch32v30x_it.c:63
}
     464:	50f2                	lw	ra,60(sp)
     466:	52e2                	lw	t0,56(sp)
     468:	5352                	lw	t1,52(sp)
     46a:	53c2                	lw	t2,48(sp)
     46c:	5532                	lw	a0,44(sp)
     46e:	55a2                	lw	a1,40(sp)
     470:	5612                	lw	a2,36(sp)
     472:	5682                	lw	a3,32(sp)
     474:	4772                	lw	a4,28(sp)
     476:	47e2                	lw	a5,24(sp)
     478:	4852                	lw	a6,20(sp)
     47a:	48c2                	lw	a7,16(sp)
     47c:	4e32                	lw	t3,12(sp)
     47e:	4ea2                	lw	t4,8(sp)
     480:	4f12                	lw	t5,4(sp)
     482:	4f82                	lw	t6,0(sp)
     484:	6121                	addi	sp,sp,64
     486:	30200073          	mret

0000048a <ETH_IRQHandler>:
ETH_IRQHandler():
/home/randy/mounriver-studio-projects/UdpServer/obj/../User/ch32v30x_it.c:74
 *
 * @return  none
 */
void ETH_IRQHandler(void)
{
    WCHNET_ETHIsr();
     48a:	37f010ef          	jal	ra,2008 <WCHNET_ETHIsr>
/home/randy/mounriver-studio-projects/UdpServer/obj/../User/ch32v30x_it.c:75
}
     48e:	30200073          	mret

00000492 <TIM2_IRQHandler>:
TIM2_IRQHandler():
/home/randy/mounriver-studio-projects/UdpServer/obj/../User/ch32v30x_it.c:86
 *
 * @return  none
 */
void TIM2_IRQHandler(void)
{
    WCHNET_TimeIsr(WCHNETTIMERPERIOD);
     492:	4529                	li	a0,10
     494:	794010ef          	jal	ra,1c28 <WCHNET_TimeIsr>
/home/randy/mounriver-studio-projects/UdpServer/obj/../User/ch32v30x_it.c:87
    TIM_ClearITPendingBit(TIM2, TIM_IT_Update);
     498:	4585                	li	a1,1
     49a:	40000537          	lui	a0,0x40000
     49e:	622010ef          	jal	ra,1ac0 <TIM_ClearITPendingBit>
/home/randy/mounriver-studio-projects/UdpServer/obj/../User/ch32v30x_it.c:88
}
     4a2:	30200073          	mret

000004a6 <cfg_handler>:
cfg_handler():
/home/randy/mounriver-studio-projects/UdpServer/obj/../User/config.c:28
/* ---------------- PARSER CALLBACK ---------------- */

static void cfg_handler(const char *section,
                        const char *key,
                        const char *value)
{
     4a6:	d1bff2ef          	jal	t0,1c0 <__riscv_save_12>
     4aa:	842e                	mv	s0,a1
/home/randy/mounriver-studio-projects/UdpServer/obj/../User/config.c:31
    char *octet;
    int place = 1;
    if (strcmp(section, "general") == 0)
     4ac:	000095b7          	lui	a1,0x9
/home/randy/mounriver-studio-projects/UdpServer/obj/../User/config.c:28
{
     4b0:	1101                	addi	sp,sp,-32
/home/randy/mounriver-studio-projects/UdpServer/obj/../User/config.c:31
    if (strcmp(section, "general") == 0)
     4b2:	3dc58593          	addi	a1,a1,988 # 93dc <_malloc_usable_size_r+0xc0>
/home/randy/mounriver-studio-projects/UdpServer/obj/../User/config.c:28
{
     4b6:	892a                	mv	s2,a0
     4b8:	84b2                	mv	s1,a2
/home/randy/mounriver-studio-projects/UdpServer/obj/../User/config.c:31
    if (strcmp(section, "general") == 0)
     4ba:	3539                	jal	2c8 <strcmp>
     4bc:	e121                	bnez	a0,4fc <cfg_handler+0x56>
/home/randy/mounriver-studio-projects/UdpServer/obj/../User/config.c:33
    {
        if (strcmp(key, "debounce_ms") == 0)
     4be:	000095b7          	lui	a1,0x9
     4c2:	3e458593          	addi	a1,a1,996 # 93e4 <_malloc_usable_size_r+0xc8>
     4c6:	8522                	mv	a0,s0
     4c8:	3501                	jal	2c8 <strcmp>
     4ca:	e911                	bnez	a0,4de <cfg_handler+0x38>
/home/randy/mounriver-studio-projects/UdpServer/obj/../User/config.c:34
            g_cfg.debounce_ms = atoi(value);
     4cc:	8526                	mv	a0,s1
     4ce:	59d070ef          	jal	ra,826a <atoi>
     4d2:	200007b7          	lui	a5,0x20000
     4d6:	34a79a23          	sh	a0,852(a5) # 20000354 <g_cfg>
/home/randy/mounriver-studio-projects/UdpServer/obj/../User/config.c:179
                    newline_str,
                    sizeof(g_cfg.buttons[i].release_text) - current_len - 1);
            }
        }
    }
}
     4da:	6105                	addi	sp,sp,32
     4dc:	b305                	j	1fc <__riscv_restore_12>
/home/randy/mounriver-studio-projects/UdpServer/obj/../User/config.c:35
        else if (strcmp(key, "max_text_length") == 0)
     4de:	000095b7          	lui	a1,0x9
     4e2:	3f058593          	addi	a1,a1,1008 # 93f0 <_malloc_usable_size_r+0xd4>
     4e6:	8522                	mv	a0,s0
     4e8:	33c5                	jal	2c8 <strcmp>
     4ea:	f965                	bnez	a0,4da <cfg_handler+0x34>
/home/randy/mounriver-studio-projects/UdpServer/obj/../User/config.c:36
            g_cfg.max_text_length = atoi(value);
     4ec:	8526                	mv	a0,s1
     4ee:	57d070ef          	jal	ra,826a <atoi>
     4f2:	200007b7          	lui	a5,0x20000
     4f6:	34a79b23          	sh	a0,854(a5) # 20000356 <g_cfg+0x2>
     4fa:	b7c5                	j	4da <cfg_handler+0x34>
/home/randy/mounriver-studio-projects/UdpServer/obj/../User/config.c:38
    else if (strcmp(section, "network") == 0)
     4fc:	000095b7          	lui	a1,0x9
     500:	40058593          	addi	a1,a1,1024 # 9400 <_malloc_usable_size_r+0xe4>
     504:	854a                	mv	a0,s2
     506:	33c9                	jal	2c8 <strcmp>
     508:	1c051e63          	bnez	a0,6e4 <cfg_handler+0x23e>
/home/randy/mounriver-studio-projects/UdpServer/obj/../User/config.c:40
        if (strcmp(key, "dhcp") == 0)
     50c:	000095b7          	lui	a1,0x9
     510:	40858593          	addi	a1,a1,1032 # 9408 <_malloc_usable_size_r+0xec>
     514:	8522                	mv	a0,s0
     516:	3b4d                	jal	2c8 <strcmp>
     518:	e919                	bnez	a0,52e <cfg_handler+0x88>
/home/randy/mounriver-studio-projects/UdpServer/obj/../User/config.c:41
            g_cfg.net.dhcp = atoi(value);
     51a:	8526                	mv	a0,s1
     51c:	54f070ef          	jal	ra,826a <atoi>
     520:	200017b7          	lui	a5,0x20001
     524:	35478793          	addi	a5,a5,852 # 20001354 <SocketRecvBuf+0x1ac>
     528:	e2a78c23          	sb	a0,-456(a5)
     52c:	b77d                	j	4da <cfg_handler+0x34>
/home/randy/mounriver-studio-projects/UdpServer/obj/../User/config.c:42
        else if (strcmp(key, "join_multicast") == 0)
     52e:	000095b7          	lui	a1,0x9
     532:	41058593          	addi	a1,a1,1040 # 9410 <_malloc_usable_size_r+0xf4>
     536:	8522                	mv	a0,s0
     538:	3b41                	jal	2c8 <strcmp>
     53a:	e919                	bnez	a0,550 <cfg_handler+0xaa>
/home/randy/mounriver-studio-projects/UdpServer/obj/../User/config.c:43
            g_cfg.net.join_multicast = atoi(value);
     53c:	8526                	mv	a0,s1
     53e:	52d070ef          	jal	ra,826a <atoi>
     542:	200017b7          	lui	a5,0x20001
     546:	35478793          	addi	a5,a5,852 # 20001354 <SocketRecvBuf+0x1ac>
     54a:	e2a78ca3          	sb	a0,-455(a5)
     54e:	b771                	j	4da <cfg_handler+0x34>
/home/randy/mounriver-studio-projects/UdpServer/obj/../User/config.c:44
        else if (strcmp(key, "port") == 0)
     550:	000095b7          	lui	a1,0x9
     554:	42058593          	addi	a1,a1,1056 # 9420 <_malloc_usable_size_r+0x104>
     558:	8522                	mv	a0,s0
     55a:	33bd                	jal	2c8 <strcmp>
     55c:	e919                	bnez	a0,572 <cfg_handler+0xcc>
/home/randy/mounriver-studio-projects/UdpServer/obj/../User/config.c:45
            g_cfg.net.port = atoi(value);
     55e:	8526                	mv	a0,s1
     560:	50b070ef          	jal	ra,826a <atoi>
     564:	200017b7          	lui	a5,0x20001
     568:	35478793          	addi	a5,a5,852 # 20001354 <SocketRecvBuf+0x1ac>
     56c:	e4a79823          	sh	a0,-432(a5)
     570:	b7ad                	j	4da <cfg_handler+0x34>
/home/randy/mounriver-studio-projects/UdpServer/obj/../User/config.c:46
        else if (strcmp(key, "fallback_ip") == 0){
     572:	000095b7          	lui	a1,0x9
     576:	42858593          	addi	a1,a1,1064 # 9428 <_malloc_usable_size_r+0x10c>
     57a:	8522                	mv	a0,s0
     57c:	33b1                	jal	2c8 <strcmp>
     57e:	e531                	bnez	a0,5ca <cfg_handler+0x124>
/home/randy/mounriver-studio-projects/UdpServer/obj/../User/config.c:48
            octet = strtok(value, ".");
     580:	00009937          	lui	s2,0x9
     584:	43490593          	addi	a1,s2,1076 # 9434 <_malloc_usable_size_r+0x118>
     588:	8526                	mv	a0,s1
     58a:	6fd070ef          	jal	ra,8486 <strtok>
/home/randy/mounriver-studio-projects/UdpServer/obj/../User/config.c:49
            g_cfg.net.ip[0] = atoi(octet);
     58e:	20000437          	lui	s0,0x20000
/home/randy/mounriver-studio-projects/UdpServer/obj/../User/config.c:48
            octet = strtok(value, ".");
     592:	89aa                	mv	s3,a0
/home/randy/mounriver-studio-projects/UdpServer/obj/../User/config.c:49
            g_cfg.net.ip[0] = atoi(octet);
     594:	4d7070ef          	jal	ra,826a <atoi>
     598:	35440713          	addi	a4,s0,852 # 20000354 <g_cfg>
     59c:	6785                	lui	a5,0x1
     59e:	973e                	add	a4,a4,a5
     5a0:	e4a70023          	sb	a0,-448(a4) # e000de40 <_eusrstack+0xbfffde40>
/home/randy/mounriver-studio-projects/UdpServer/obj/../User/config.c:51
            while (octet != NULL) {
     5a4:	35440413          	addi	s0,s0,852
/home/randy/mounriver-studio-projects/UdpServer/obj/../User/config.c:54
                g_cfg.net.ip[place] = atoi(octet);
     5a8:	e4078493          	addi	s1,a5,-448 # e40 <Button_Task+0x22>
     5ac:	0405                	addi	s0,s0,1
/home/randy/mounriver-studio-projects/UdpServer/obj/../User/config.c:51
            while (octet != NULL) {
     5ae:	f20986e3          	beqz	s3,4da <cfg_handler+0x34>
/home/randy/mounriver-studio-projects/UdpServer/obj/../User/config.c:53
                octet = strtok(NULL, ".");
     5b2:	43490593          	addi	a1,s2,1076
     5b6:	4501                	li	a0,0
     5b8:	6cf070ef          	jal	ra,8486 <strtok>
     5bc:	89aa                	mv	s3,a0
/home/randy/mounriver-studio-projects/UdpServer/obj/../User/config.c:54
                g_cfg.net.ip[place] = atoi(octet);
     5be:	4ad070ef          	jal	ra,826a <atoi>
     5c2:	009407b3          	add	a5,s0,s1
     5c6:	a388                	sb	a0,0(a5)
/home/randy/mounriver-studio-projects/UdpServer/obj/../User/config.c:55
                place++;
     5c8:	b7d5                	j	5ac <cfg_handler+0x106>
/home/randy/mounriver-studio-projects/UdpServer/obj/../User/config.c:60
        else if (strcmp(key, "subnet_mask") == 0){
     5ca:	000095b7          	lui	a1,0x9
     5ce:	43858593          	addi	a1,a1,1080 # 9438 <_malloc_usable_size_r+0x11c>
     5d2:	8522                	mv	a0,s0
     5d4:	39d5                	jal	2c8 <strcmp>
     5d6:	e531                	bnez	a0,622 <cfg_handler+0x17c>
/home/randy/mounriver-studio-projects/UdpServer/obj/../User/config.c:62
            octet = strtok(value, ".");
     5d8:	00009937          	lui	s2,0x9
     5dc:	43490593          	addi	a1,s2,1076 # 9434 <_malloc_usable_size_r+0x118>
     5e0:	8526                	mv	a0,s1
     5e2:	6a5070ef          	jal	ra,8486 <strtok>
/home/randy/mounriver-studio-projects/UdpServer/obj/../User/config.c:63
            g_cfg.net.mask[0] = atoi(octet);
     5e6:	20000437          	lui	s0,0x20000
/home/randy/mounriver-studio-projects/UdpServer/obj/../User/config.c:62
            octet = strtok(value, ".");
     5ea:	89aa                	mv	s3,a0
/home/randy/mounriver-studio-projects/UdpServer/obj/../User/config.c:63
            g_cfg.net.mask[0] = atoi(octet);
     5ec:	47f070ef          	jal	ra,826a <atoi>
     5f0:	35440713          	addi	a4,s0,852 # 20000354 <g_cfg>
     5f4:	6785                	lui	a5,0x1
     5f6:	973e                	add	a4,a4,a5
     5f8:	e4a70223          	sb	a0,-444(a4)
/home/randy/mounriver-studio-projects/UdpServer/obj/../User/config.c:65
            while (octet != NULL) {
     5fc:	35440413          	addi	s0,s0,852
/home/randy/mounriver-studio-projects/UdpServer/obj/../User/config.c:68
                g_cfg.net.mask[place] = atoi(octet);
     600:	e4478493          	addi	s1,a5,-444 # e44 <Button_Task+0x26>
     604:	0405                	addi	s0,s0,1
/home/randy/mounriver-studio-projects/UdpServer/obj/../User/config.c:65
            while (octet != NULL) {
     606:	ec098ae3          	beqz	s3,4da <cfg_handler+0x34>
/home/randy/mounriver-studio-projects/UdpServer/obj/../User/config.c:67
                octet = strtok(NULL, ".");
     60a:	43490593          	addi	a1,s2,1076
     60e:	4501                	li	a0,0
     610:	677070ef          	jal	ra,8486 <strtok>
     614:	89aa                	mv	s3,a0
/home/randy/mounriver-studio-projects/UdpServer/obj/../User/config.c:68
                g_cfg.net.mask[place] = atoi(octet);
     616:	455070ef          	jal	ra,826a <atoi>
     61a:	009407b3          	add	a5,s0,s1
     61e:	a388                	sb	a0,0(a5)
/home/randy/mounriver-studio-projects/UdpServer/obj/../User/config.c:69
                place++;
     620:	b7d5                	j	604 <cfg_handler+0x15e>
/home/randy/mounriver-studio-projects/UdpServer/obj/../User/config.c:74
        else if (strcmp(key, "gateway") == 0){
     622:	000095b7          	lui	a1,0x9
     626:	44458593          	addi	a1,a1,1092 # 9444 <_malloc_usable_size_r+0x128>
     62a:	8522                	mv	a0,s0
     62c:	3971                	jal	2c8 <strcmp>
     62e:	e531                	bnez	a0,67a <cfg_handler+0x1d4>
/home/randy/mounriver-studio-projects/UdpServer/obj/../User/config.c:76
            octet = strtok(value, ".");
     630:	00009937          	lui	s2,0x9
     634:	43490593          	addi	a1,s2,1076 # 9434 <_malloc_usable_size_r+0x118>
     638:	8526                	mv	a0,s1
     63a:	64d070ef          	jal	ra,8486 <strtok>
/home/randy/mounriver-studio-projects/UdpServer/obj/../User/config.c:77
            g_cfg.net.gw[0] = atoi(octet);
     63e:	20000437          	lui	s0,0x20000
/home/randy/mounriver-studio-projects/UdpServer/obj/../User/config.c:76
            octet = strtok(value, ".");
     642:	89aa                	mv	s3,a0
/home/randy/mounriver-studio-projects/UdpServer/obj/../User/config.c:77
            g_cfg.net.gw[0] = atoi(octet);
     644:	427070ef          	jal	ra,826a <atoi>
     648:	35440713          	addi	a4,s0,852 # 20000354 <g_cfg>
     64c:	6785                	lui	a5,0x1
     64e:	973e                	add	a4,a4,a5
     650:	e4a70423          	sb	a0,-440(a4)
/home/randy/mounriver-studio-projects/UdpServer/obj/../User/config.c:79
            while (octet != NULL) {
     654:	35440413          	addi	s0,s0,852
/home/randy/mounriver-studio-projects/UdpServer/obj/../User/config.c:82
                g_cfg.net.gw[place] = atoi(octet);
     658:	e4878493          	addi	s1,a5,-440 # e48 <Button_Task+0x2a>
     65c:	0405                	addi	s0,s0,1
/home/randy/mounriver-studio-projects/UdpServer/obj/../User/config.c:79
            while (octet != NULL) {
     65e:	e6098ee3          	beqz	s3,4da <cfg_handler+0x34>
/home/randy/mounriver-studio-projects/UdpServer/obj/../User/config.c:81
                octet = strtok(NULL, ".");
     662:	43490593          	addi	a1,s2,1076
     666:	4501                	li	a0,0
     668:	61f070ef          	jal	ra,8486 <strtok>
     66c:	89aa                	mv	s3,a0
/home/randy/mounriver-studio-projects/UdpServer/obj/../User/config.c:82
                g_cfg.net.gw[place] = atoi(octet);
     66e:	3fd070ef          	jal	ra,826a <atoi>
     672:	009407b3          	add	a5,s0,s1
     676:	a388                	sb	a0,0(a5)
/home/randy/mounriver-studio-projects/UdpServer/obj/../User/config.c:83
                place++;
     678:	b7d5                	j	65c <cfg_handler+0x1b6>
/home/randy/mounriver-studio-projects/UdpServer/obj/../User/config.c:88
        else if (strcmp(key, "mac") == 0)
     67a:	000095b7          	lui	a1,0x9
     67e:	8522                	mv	a0,s0
     680:	44c58593          	addi	a1,a1,1100 # 944c <_malloc_usable_size_r+0x130>
     684:	3191                	jal	2c8 <strcmp>
     686:	842a                	mv	s0,a0
     688:	e40519e3          	bnez	a0,4da <cfg_handler+0x34>
/home/randy/mounriver-studio-projects/UdpServer/obj/../User/config.c:91
                if (sscanf(value, "%02x:%02x:%02x:%02x:%02x:%02x",
     68c:	000095b7          	lui	a1,0x9
     690:	007c                	addi	a5,sp,12
     692:	01410893          	addi	a7,sp,20
     696:	01010813          	addi	a6,sp,16
     69a:	0038                	addi	a4,sp,8
     69c:	0054                	addi	a3,sp,4
     69e:	860a                	mv	a2,sp
     6a0:	45058593          	addi	a1,a1,1104 # 9450 <_malloc_usable_size_r+0x134>
     6a4:	8526                	mv	a0,s1
     6a6:	513070ef          	jal	ra,83b8 <siscanf>
     6aa:	4799                	li	a5,6
     6ac:	02f51563          	bne	a0,a5,6d6 <cfg_handler+0x230>
/home/randy/mounriver-studio-projects/UdpServer/obj/../User/config.c:96
                        g_cfg.net.mac[i] = (uint8_t)m[i];
     6b0:	6605                	lui	a2,0x1
     6b2:	200006b7          	lui	a3,0x20000
     6b6:	878a                	mv	a5,sp
     6b8:	e3a60613          	addi	a2,a2,-454 # e3a <Button_Task+0x1c>
     6bc:	35468693          	addi	a3,a3,852 # 20000354 <g_cfg>
/home/randy/mounriver-studio-projects/UdpServer/obj/../User/config.c:95
                    for (int i = 0; i < 6; i++)
     6c0:	4599                	li	a1,6
/home/randy/mounriver-studio-projects/UdpServer/obj/../User/config.c:96
                        g_cfg.net.mac[i] = (uint8_t)m[i];
     6c2:	4388                	lw	a0,0(a5)
     6c4:	00c40733          	add	a4,s0,a2
     6c8:	9736                	add	a4,a4,a3
     6ca:	a308                	sb	a0,0(a4)
/home/randy/mounriver-studio-projects/UdpServer/obj/../User/config.c:95
                    for (int i = 0; i < 6; i++)
     6cc:	0405                	addi	s0,s0,1
     6ce:	0791                	addi	a5,a5,4
     6d0:	feb419e3          	bne	s0,a1,6c2 <cfg_handler+0x21c>
     6d4:	b519                	j	4da <cfg_handler+0x34>
/home/randy/mounriver-studio-projects/UdpServer/obj/../User/config.c:100
                    printf("[CFG] Invalid MAC format\r\n");
     6d6:	00009537          	lui	a0,0x9
     6da:	47050513          	addi	a0,a0,1136 # 9470 <_malloc_usable_size_r+0x154>
     6de:	343070ef          	jal	ra,8220 <puts>
     6e2:	bbe5                	j	4da <cfg_handler+0x34>
/home/randy/mounriver-studio-projects/UdpServer/obj/../User/config.c:105
    else if (strcmp(section, "encoders") == 0)
     6e4:	000095b7          	lui	a1,0x9
     6e8:	48c58593          	addi	a1,a1,1164 # 948c <_malloc_usable_size_r+0x170>
     6ec:	854a                	mv	a0,s2
     6ee:	3ee9                	jal	2c8 <strcmp>
     6f0:	89aa                	mv	s3,a0
     6f2:	0e051d63          	bnez	a0,7ec <cfg_handler+0x346>
/home/randy/mounriver-studio-projects/UdpServer/obj/../User/config.c:107
        if (strcmp(key, "count") == 0)
     6f6:	000095b7          	lui	a1,0x9
     6fa:	49858593          	addi	a1,a1,1176 # 9498 <_malloc_usable_size_r+0x17c>
     6fe:	8522                	mv	a0,s0
     700:	20000937          	lui	s2,0x20000
     704:	36d1                	jal	2c8 <strcmp>
     706:	35490913          	addi	s2,s2,852 # 20000354 <g_cfg>
     70a:	e511                	bnez	a0,716 <cfg_handler+0x270>
/home/randy/mounriver-studio-projects/UdpServer/obj/../User/config.c:108
            g_cfg.encoder_count = atoi(value);
     70c:	8526                	mv	a0,s1
     70e:	35d070ef          	jal	ra,826a <atoi>
     712:	00a90223          	sb	a0,4(s2)
/home/randy/mounriver-studio-projects/UdpServer/obj/../User/config.c:113
            sprintf(tmp, "enc%d_a_pin", i);
     716:	00009c37          	lui	s8,0x9
/home/randy/mounriver-studio-projects/UdpServer/obj/../User/config.c:117
            sprintf(tmp, "enc%d_b_pin", i);
     71a:	00009cb7          	lui	s9,0x9
/home/randy/mounriver-studio-projects/UdpServer/obj/../User/config.c:121
            sprintf(tmp, "enc%d_cw_text", i);
     71e:	00009d37          	lui	s10,0x9
/home/randy/mounriver-studio-projects/UdpServer/obj/../User/config.c:127
                strncat(g_cfg.encoders[i].cw_text,
     722:	02c00b13          	li	s6,44
     726:	20000bb7          	lui	s7,0x20000
/home/randy/mounriver-studio-projects/UdpServer/obj/../User/config.c:132
            sprintf(tmp, "enc%d_ccw_text", i);
     72a:	00009db7          	lui	s11,0x9
/home/randy/mounriver-studio-projects/UdpServer/obj/../User/config.c:113
            sprintf(tmp, "enc%d_a_pin", i);
     72e:	4a0c0593          	addi	a1,s8,1184 # 94a0 <_malloc_usable_size_r+0x184>
     732:	864e                	mv	a2,s3
     734:	850a                	mv	a0,sp
     736:	2c3070ef          	jal	ra,81f8 <sprintf>
/home/randy/mounriver-studio-projects/UdpServer/obj/../User/config.c:114
            if (strcmp(key, tmp) == 0)
     73a:	858a                	mv	a1,sp
     73c:	8522                	mv	a0,s0
     73e:	3669                	jal	2c8 <strcmp>
     740:	e509                	bnez	a0,74a <cfg_handler+0x2a4>
/home/randy/mounriver-studio-projects/UdpServer/obj/../User/config.c:115
                GPIO_ParsePin(value, &g_cfg.encoders[i].a_pin);
     742:	00890593          	addi	a1,s2,8
     746:	8526                	mv	a0,s1
     748:	2c39                	jal	966 <GPIO_ParsePin>
/home/randy/mounriver-studio-projects/UdpServer/obj/../User/config.c:117
            sprintf(tmp, "enc%d_b_pin", i);
     74a:	4acc8593          	addi	a1,s9,1196 # 94ac <_malloc_usable_size_r+0x190>
     74e:	864e                	mv	a2,s3
     750:	850a                	mv	a0,sp
     752:	2a7070ef          	jal	ra,81f8 <sprintf>
/home/randy/mounriver-studio-projects/UdpServer/obj/../User/config.c:118
            if (strcmp(key, tmp) == 0)
     756:	858a                	mv	a1,sp
     758:	8522                	mv	a0,s0
     75a:	36bd                	jal	2c8 <strcmp>
     75c:	e509                	bnez	a0,766 <cfg_handler+0x2c0>
/home/randy/mounriver-studio-projects/UdpServer/obj/../User/config.c:119
                GPIO_ParsePin(value, &g_cfg.encoders[i].b_pin);
     75e:	01090593          	addi	a1,s2,16
     762:	8526                	mv	a0,s1
     764:	2409                	jal	966 <GPIO_ParsePin>
/home/randy/mounriver-studio-projects/UdpServer/obj/../User/config.c:121
            sprintf(tmp, "enc%d_cw_text", i);
     766:	4b8d0593          	addi	a1,s10,1208 # 94b8 <_malloc_usable_size_r+0x19c>
     76a:	864e                	mv	a2,s3
     76c:	850a                	mv	a0,sp
     76e:	28b070ef          	jal	ra,81f8 <sprintf>
/home/randy/mounriver-studio-projects/UdpServer/obj/../User/config.c:122
            if (strcmp(key, tmp) == 0){
     772:	858a                	mv	a1,sp
     774:	8522                	mv	a0,s0
     776:	3e89                	jal	2c8 <strcmp>
     778:	e50d                	bnez	a0,7a2 <cfg_handler+0x2fc>
/home/randy/mounriver-studio-projects/UdpServer/obj/../User/config.c:123
                strncpy(g_cfg.encoders[i].cw_text, value, MAX_TEXT_LEN);
     77a:	01890a13          	addi	s4,s2,24
     77e:	02d00613          	li	a2,45
     782:	85a6                	mv	a1,s1
     784:	8552                	mv	a0,s4
     786:	4dd070ef          	jal	ra,8462 <strncpy>
/home/randy/mounriver-studio-projects/UdpServer/obj/../User/config.c:126
                current_len = strlen(g_cfg.encoders[i].cw_text);
     78a:	8552                	mv	a0,s4
     78c:	499070ef          	jal	ra,8424 <strlen>
     790:	86a1a023          	sw	a0,-1952(gp) # 20000280 <_edata>
/home/randy/mounriver-studio-projects/UdpServer/obj/../User/config.c:127
                strncat(g_cfg.encoders[i].cw_text,
     794:	40ab0633          	sub	a2,s6,a0
     798:	220b8593          	addi	a1,s7,544 # 20000220 <newline_str>
     79c:	8552                	mv	a0,s4
     79e:	499070ef          	jal	ra,8436 <strncat>
/home/randy/mounriver-studio-projects/UdpServer/obj/../User/config.c:132
            sprintf(tmp, "enc%d_ccw_text", i);
     7a2:	4c8d8593          	addi	a1,s11,1224 # 94c8 <_malloc_usable_size_r+0x1ac>
     7a6:	864e                	mv	a2,s3
     7a8:	850a                	mv	a0,sp
     7aa:	24f070ef          	jal	ra,81f8 <sprintf>
/home/randy/mounriver-studio-projects/UdpServer/obj/../User/config.c:133
            if (strcmp(key, tmp) == 0){
     7ae:	858a                	mv	a1,sp
     7b0:	8522                	mv	a0,s0
     7b2:	3e19                	jal	2c8 <strcmp>
     7b4:	e50d                	bnez	a0,7de <cfg_handler+0x338>
/home/randy/mounriver-studio-projects/UdpServer/obj/../User/config.c:134
                strncpy(g_cfg.encoders[i].ccw_text, value, MAX_TEXT_LEN);
     7b6:	04590a13          	addi	s4,s2,69
     7ba:	02d00613          	li	a2,45
     7be:	85a6                	mv	a1,s1
     7c0:	8552                	mv	a0,s4
     7c2:	4a1070ef          	jal	ra,8462 <strncpy>
/home/randy/mounriver-studio-projects/UdpServer/obj/../User/config.c:137
                current_len = strlen(g_cfg.encoders[i].ccw_text);
     7c6:	8552                	mv	a0,s4
     7c8:	45d070ef          	jal	ra,8424 <strlen>
     7cc:	86a1a023          	sw	a0,-1952(gp) # 20000280 <_edata>
/home/randy/mounriver-studio-projects/UdpServer/obj/../User/config.c:138
                strncat(g_cfg.encoders[i].ccw_text,
     7d0:	40ab0633          	sub	a2,s6,a0
     7d4:	220b8593          	addi	a1,s7,544
     7d8:	8552                	mv	a0,s4
     7da:	45d070ef          	jal	ra,8436 <strncat>
/home/randy/mounriver-studio-projects/UdpServer/obj/../User/config.c:110
        for (int i = 0; i < MAX_ENCODERS; i++)
     7de:	0985                	addi	s3,s3,1
     7e0:	4791                	li	a5,4
     7e2:	06c90913          	addi	s2,s2,108
     7e6:	f4f994e3          	bne	s3,a5,72e <cfg_handler+0x288>
     7ea:	b9c5                	j	4da <cfg_handler+0x34>
/home/randy/mounriver-studio-projects/UdpServer/obj/../User/config.c:144
    else if (strcmp(section, "buttons") == 0)
     7ec:	000095b7          	lui	a1,0x9
     7f0:	4d858593          	addi	a1,a1,1240 # 94d8 <_malloc_usable_size_r+0x1bc>
     7f4:	854a                	mv	a0,s2
     7f6:	3cc9                	jal	2c8 <strcmp>
     7f8:	89aa                	mv	s3,a0
     7fa:	ce0510e3          	bnez	a0,4da <cfg_handler+0x34>
/home/randy/mounriver-studio-projects/UdpServer/obj/../User/config.c:146
        if (strcmp(key, "count") == 0)
     7fe:	000095b7          	lui	a1,0x9
     802:	49858593          	addi	a1,a1,1176 # 9498 <_malloc_usable_size_r+0x17c>
     806:	8522                	mv	a0,s0
     808:	20000937          	lui	s2,0x20000
     80c:	3c75                	jal	2c8 <strcmp>
     80e:	35490913          	addi	s2,s2,852 # 20000354 <g_cfg>
     812:	e511                	bnez	a0,81e <__stack_size+0x1e>
/home/randy/mounriver-studio-projects/UdpServer/obj/../User/config.c:147
            g_cfg.button_count = atoi(value);
     814:	8526                	mv	a0,s1
     816:	255070ef          	jal	ra,826a <atoi>
     81a:	00a902a3          	sb	a0,5(s2)
/home/randy/mounriver-studio-projects/UdpServer/obj/../User/config.c:152
            sprintf(tmp, "btn%d_pin", i);
     81e:	00009cb7          	lui	s9,0x9
/home/randy/mounriver-studio-projects/UdpServer/obj/../User/config.c:156
            sprintf(tmp, "btn%d_press_text", i);
     822:	00009d37          	lui	s10,0x9
/home/randy/mounriver-studio-projects/UdpServer/obj/../User/config.c:162
                strncat(g_cfg.buttons[i].press_text,
     826:	02c00b13          	li	s6,44
     82a:	20000bb7          	lui	s7,0x20000
/home/randy/mounriver-studio-projects/UdpServer/obj/../User/config.c:167
            sprintf(tmp, "btn%d_release_text", i);
     82e:	00009db7          	lui	s11,0x9
/home/randy/mounriver-studio-projects/UdpServer/obj/../User/config.c:149
        for (int i = 0; i < MAX_BUTTONS; i++)
     832:	02000c13          	li	s8,32
/home/randy/mounriver-studio-projects/UdpServer/obj/../User/config.c:152
            sprintf(tmp, "btn%d_pin", i);
     836:	4e0c8593          	addi	a1,s9,1248 # 94e0 <_malloc_usable_size_r+0x1c4>
     83a:	864e                	mv	a2,s3
     83c:	850a                	mv	a0,sp
     83e:	1bb070ef          	jal	ra,81f8 <sprintf>
/home/randy/mounriver-studio-projects/UdpServer/obj/../User/config.c:153
            if (strcmp(key, tmp) == 0)
     842:	858a                	mv	a1,sp
     844:	8522                	mv	a0,s0
     846:	3449                	jal	2c8 <strcmp>
     848:	e509                	bnez	a0,852 <__stack_size+0x52>
/home/randy/mounriver-studio-projects/UdpServer/obj/../User/config.c:154
                GPIO_ParsePin(value, &g_cfg.buttons[i].pin);
     84a:	1b890593          	addi	a1,s2,440
     84e:	8526                	mv	a0,s1
     850:	2a19                	jal	966 <GPIO_ParsePin>
/home/randy/mounriver-studio-projects/UdpServer/obj/../User/config.c:156
            sprintf(tmp, "btn%d_press_text", i);
     852:	4ecd0593          	addi	a1,s10,1260 # 94ec <_malloc_usable_size_r+0x1d0>
     856:	864e                	mv	a2,s3
     858:	850a                	mv	a0,sp
     85a:	19f070ef          	jal	ra,81f8 <sprintf>
/home/randy/mounriver-studio-projects/UdpServer/obj/../User/config.c:157
            if (strcmp(key, tmp) == 0){
     85e:	858a                	mv	a1,sp
     860:	8522                	mv	a0,s0
     862:	349d                	jal	2c8 <strcmp>
     864:	e50d                	bnez	a0,88e <__stack_size+0x8e>
/home/randy/mounriver-studio-projects/UdpServer/obj/../User/config.c:158
                strncpy(g_cfg.buttons[i].press_text, value, MAX_TEXT_LEN);
     866:	1c090a13          	addi	s4,s2,448
     86a:	02d00613          	li	a2,45
     86e:	85a6                	mv	a1,s1
     870:	8552                	mv	a0,s4
     872:	3f1070ef          	jal	ra,8462 <strncpy>
/home/randy/mounriver-studio-projects/UdpServer/obj/../User/config.c:161
                current_len = strlen(g_cfg.buttons[i].press_text);
     876:	8552                	mv	a0,s4
     878:	3ad070ef          	jal	ra,8424 <strlen>
     87c:	86a1a023          	sw	a0,-1952(gp) # 20000280 <_edata>
/home/randy/mounriver-studio-projects/UdpServer/obj/../User/config.c:162
                strncat(g_cfg.buttons[i].press_text,
     880:	40ab0633          	sub	a2,s6,a0
     884:	220b8593          	addi	a1,s7,544 # 20000220 <newline_str>
     888:	8552                	mv	a0,s4
     88a:	3ad070ef          	jal	ra,8436 <strncat>
/home/randy/mounriver-studio-projects/UdpServer/obj/../User/config.c:167
            sprintf(tmp, "btn%d_release_text", i);
     88e:	500d8593          	addi	a1,s11,1280 # 9500 <_malloc_usable_size_r+0x1e4>
     892:	864e                	mv	a2,s3
     894:	850a                	mv	a0,sp
     896:	163070ef          	jal	ra,81f8 <sprintf>
/home/randy/mounriver-studio-projects/UdpServer/obj/../User/config.c:168
            if (strcmp(key, tmp) == 0){
     89a:	858a                	mv	a1,sp
     89c:	8522                	mv	a0,s0
     89e:	342d                	jal	2c8 <strcmp>
     8a0:	e50d                	bnez	a0,8ca <__stack_size+0xca>
/home/randy/mounriver-studio-projects/UdpServer/obj/../User/config.c:169
                strncpy(g_cfg.buttons[i].release_text, value, MAX_TEXT_LEN);
     8a2:	1ed90a13          	addi	s4,s2,493
     8a6:	02d00613          	li	a2,45
     8aa:	85a6                	mv	a1,s1
     8ac:	8552                	mv	a0,s4
     8ae:	3b5070ef          	jal	ra,8462 <strncpy>
/home/randy/mounriver-studio-projects/UdpServer/obj/../User/config.c:172
                current_len = strlen(g_cfg.buttons[i].release_text);
     8b2:	8552                	mv	a0,s4
     8b4:	371070ef          	jal	ra,8424 <strlen>
     8b8:	86a1a023          	sw	a0,-1952(gp) # 20000280 <_edata>
/home/randy/mounriver-studio-projects/UdpServer/obj/../User/config.c:173
                strncat(g_cfg.buttons[i].release_text,
     8bc:	40ab0633          	sub	a2,s6,a0
     8c0:	220b8593          	addi	a1,s7,544
     8c4:	8552                	mv	a0,s4
     8c6:	371070ef          	jal	ra,8436 <strncat>
/home/randy/mounriver-studio-projects/UdpServer/obj/../User/config.c:149
        for (int i = 0; i < MAX_BUTTONS; i++)
     8ca:	0985                	addi	s3,s3,1
     8cc:	06490913          	addi	s2,s2,100
     8d0:	f78993e3          	bne	s3,s8,836 <__stack_size+0x36>
     8d4:	b119                	j	4da <cfg_handler+0x34>

000008d6 <Config_Load>:
Config_Load():
/home/randy/mounriver-studio-projects/UdpServer/obj/../User/config.c:184

/* ---------------- LOAD FUNCTION ---------------- */

void Config_Load(void)
{
     8d6:	91bff2ef          	jal	t0,1f0 <__riscv_save_0>
/home/randy/mounriver-studio-projects/UdpServer/obj/../User/config.c:185
    memset(&g_cfg, 0, sizeof(g_cfg));
     8da:	200004b7          	lui	s1,0x20000
     8de:	6405                	lui	s0,0x1
/home/randy/mounriver-studio-projects/UdpServer/obj/../User/config.c:184
{
     8e0:	1141                	addi	sp,sp,-16
/home/randy/mounriver-studio-projects/UdpServer/obj/../User/config.c:185
    memset(&g_cfg, 0, sizeof(g_cfg));
     8e2:	e5440613          	addi	a2,s0,-428 # e54 <Button_Task+0x36>
     8e6:	4581                	li	a1,0
     8e8:	35448513          	addi	a0,s1,852 # 20000354 <g_cfg>
     8ec:	935ff0ef          	jal	ra,220 <memset>
     8f0:	35448913          	addi	s2,s1,852
/home/randy/mounriver-studio-projects/UdpServer/obj/../User/config.c:188
    // Default locally-administered MAC if not overridden
    uint8_t default_mac[6] = { 0x02, 0x32, 0x30, 0x70, 0x00, 0x01 };
    memcpy(g_cfg.net.mac, default_mac, 6);
     8f4:	703037b7          	lui	a5,0x70303
     8f8:	20278793          	addi	a5,a5,514 # 70303202 <_eusrstack+0x502f3202>
     8fc:	01240533          	add	a0,s0,s2
     900:	4619                	li	a2,6
     902:	002c                	addi	a1,sp,8
     904:	c43e                	sw	a5,8(sp)
     906:	e3a50513          	addi	a0,a0,-454
     90a:	10000793          	li	a5,256
     90e:	867c                	sh	a5,12(sp)
     910:	1b1070ef          	jal	ra,82c0 <memcpy>
/home/randy/mounriver-studio-projects/UdpServer/obj/../User/config.c:190

    printf("[CFG] Parsing configuration\r\n");
     914:	00009537          	lui	a0,0x9
     918:	37450513          	addi	a0,a0,884 # 9374 <_malloc_usable_size_r+0x58>
     91c:	105070ef          	jal	ra,8220 <puts>
/home/randy/mounriver-studio-projects/UdpServer/obj/../User/config.c:191
    INI_Parse(g_ini_text, cfg_handler);
     920:	000005b7          	lui	a1,0x0
     924:	6525                	lui	a0,0x9
     926:	4a658593          	addi	a1,a1,1190 # 4a6 <cfg_handler>
     92a:	51450513          	addi	a0,a0,1300 # 9514 <g_ini_text>
     92e:	2afd                	jal	b2c <INI_Parse>
/home/randy/mounriver-studio-projects/UdpServer/obj/../User/config.c:193

    printf("[CFG] Encoders: %d\r\n", g_cfg.encoder_count);
     930:	00494583          	lbu	a1,4(s2)
     934:	00009537          	lui	a0,0x9
     938:	39450513          	addi	a0,a0,916 # 9394 <_malloc_usable_size_r+0x78>
     93c:	099070ef          	jal	ra,81d4 <printf>
/home/randy/mounriver-studio-projects/UdpServer/obj/../User/config.c:194
    printf("[CFG] Buttons : %d\r\n", g_cfg.button_count);
     940:	00594583          	lbu	a1,5(s2)
     944:	00009537          	lui	a0,0x9
     948:	3ac50513          	addi	a0,a0,940 # 93ac <_malloc_usable_size_r+0x90>
     94c:	089070ef          	jal	ra,81d4 <printf>
/home/randy/mounriver-studio-projects/UdpServer/obj/../User/config.c:195
    printf("[CFG] Debounce: %d ms\r\n", g_cfg.debounce_ms);
     950:	3544d583          	lhu	a1,852(s1)
     954:	00009537          	lui	a0,0x9
     958:	3c450513          	addi	a0,a0,964 # 93c4 <_malloc_usable_size_r+0xa8>
     95c:	079070ef          	jal	ra,81d4 <printf>
/home/randy/mounriver-studio-projects/UdpServer/obj/../User/config.c:196
}
     960:	0141                	addi	sp,sp,16
     962:	8b3ff06f          	j	214 <__riscv_restore_0>

00000966 <GPIO_ParsePin>:
GPIO_ParsePin():
/home/randy/mounriver-studio-projects/UdpServer/obj/../User/gpio_mgr.c:42

/* ---------------- PIN PARSER ---------------- */

int GPIO_ParsePin(const char *name, gpio_pin_t *out)
{
    if (!name || strlen(name) < 3)
     966:	12050263          	beqz	a0,a8a <GPIO_ParsePin+0x124>
/home/randy/mounriver-studio-projects/UdpServer/obj/../User/gpio_mgr.c:41 (discriminator 1)
{
     96a:	86dff2ef          	jal	t0,1d6 <__riscv_save_4>
     96e:	84aa                	mv	s1,a0
     970:	892e                	mv	s2,a1
/home/randy/mounriver-studio-projects/UdpServer/obj/../User/gpio_mgr.c:42 (discriminator 1)
    if (!name || strlen(name) < 3)
     972:	2b3070ef          	jal	ra,8424 <strlen>
     976:	4709                	li	a4,2
/home/randy/mounriver-studio-projects/UdpServer/obj/../User/gpio_mgr.c:43 (discriminator 1)
        return -1;
     978:	57fd                	li	a5,-1
/home/randy/mounriver-studio-projects/UdpServer/obj/../User/gpio_mgr.c:42 (discriminator 1)
    if (!name || strlen(name) < 3)
     97a:	0aa77863          	bgeu	a4,a0,a2a <GPIO_ParsePin+0xc4>
     97e:	6429                	lui	s0,0xa
     980:	98440413          	addi	s0,s0,-1660 # 9984 <reserved_pins>
     984:	03840993          	addi	s3,s0,56
IsReserved():
/home/randy/mounriver-studio-projects/UdpServer/obj/../User/gpio_mgr.c:32
        if (strcmp(name, reserved_pins[i]) == 0)
     988:	400c                	lw	a1,0(s0)
     98a:	8526                	mv	a0,s1
     98c:	93dff0ef          	jal	ra,2c8 <strcmp>
     990:	10050063          	beqz	a0,a90 <GPIO_ParsePin+0x12a>
     994:	0411                	addi	s0,s0,4
/home/randy/mounriver-studio-projects/UdpServer/obj/../User/gpio_mgr.c:30
    for (int i = 0; i < RESERVED_COUNT; i++)
     996:	ff3419e3          	bne	s0,s3,988 <GPIO_ParsePin+0x22>
GPIO_ParsePin():
/home/randy/mounriver-studio-projects/UdpServer/obj/../User/gpio_mgr.c:51
    {
        printf("[GPIO] ERROR: Pin %s is reserved\r\n", name);
        return -2;
    }

    if (toupper(name[0]) != 'P')
     99a:	00048403          	lb	s0,0(s1)
     99e:	0d9070ef          	jal	ra,8276 <__locale_ctype_ptr>
     9a2:	4689                	li	a3,2
     9a4:	9522                	add	a0,a0,s0
     9a6:	311c                	lbu	a5,1(a0)
     9a8:	8722                	mv	a4,s0
     9aa:	8b8d                	andi	a5,a5,3
     9ac:	00d79363          	bne	a5,a3,9b2 <GPIO_ParsePin+0x4c>
/home/randy/mounriver-studio-projects/UdpServer/obj/../User/gpio_mgr.c:51 (discriminator 1)
     9b0:	1701                	addi	a4,a4,-32
/home/randy/mounriver-studio-projects/UdpServer/obj/../User/gpio_mgr.c:51 (discriminator 4)
     9b2:	05000693          	li	a3,80
/home/randy/mounriver-studio-projects/UdpServer/obj/../User/gpio_mgr.c:52 (discriminator 4)
        return -3;
     9b6:	57f5                	li	a5,-3
/home/randy/mounriver-studio-projects/UdpServer/obj/../User/gpio_mgr.c:51 (discriminator 4)
    if (toupper(name[0]) != 'P')
     9b8:	06d71963          	bne	a4,a3,a2a <GPIO_ParsePin+0xc4>
/home/randy/mounriver-studio-projects/UdpServer/obj/../User/gpio_mgr.c:54

    char portChar = toupper(name[1]);
     9bc:	00148403          	lb	s0,1(s1)
     9c0:	0b7070ef          	jal	ra,8276 <__locale_ctype_ptr>
     9c4:	4689                	li	a3,2
     9c6:	9522                	add	a0,a0,s0
     9c8:	3118                	lbu	a4,1(a0)
     9ca:	87a2                	mv	a5,s0
     9cc:	8b0d                	andi	a4,a4,3
     9ce:	00d71463          	bne	a4,a3,9d6 <GPIO_ParsePin+0x70>
/home/randy/mounriver-studio-projects/UdpServer/obj/../User/gpio_mgr.c:54 (discriminator 1)
     9d2:	fe040793          	addi	a5,s0,-32
/home/randy/mounriver-studio-projects/UdpServer/obj/../User/gpio_mgr.c:55 (discriminator 4)
    int pin = atoi(&name[2]);
     9d6:	00248513          	addi	a0,s1,2
/home/randy/mounriver-studio-projects/UdpServer/obj/../User/gpio_mgr.c:54 (discriminator 4)
    char portChar = toupper(name[1]);
     9da:	01879413          	slli	s0,a5,0x18
/home/randy/mounriver-studio-projects/UdpServer/obj/../User/gpio_mgr.c:55 (discriminator 4)
    int pin = atoi(&name[2]);
     9de:	08d070ef          	jal	ra,826a <atoi>
/home/randy/mounriver-studio-projects/UdpServer/obj/../User/gpio_mgr.c:57 (discriminator 4)

    if (pin < 0 || pin > 15)
     9e2:	473d                	li	a4,15
/home/randy/mounriver-studio-projects/UdpServer/obj/../User/gpio_mgr.c:54 (discriminator 4)
    char portChar = toupper(name[1]);
     9e4:	8461                	srai	s0,s0,0x18
/home/randy/mounriver-studio-projects/UdpServer/obj/../User/gpio_mgr.c:55 (discriminator 4)
    int pin = atoi(&name[2]);
     9e6:	84aa                	mv	s1,a0
/home/randy/mounriver-studio-projects/UdpServer/obj/../User/gpio_mgr.c:58 (discriminator 4)
        return -4;
     9e8:	57f1                	li	a5,-4
/home/randy/mounriver-studio-projects/UdpServer/obj/../User/gpio_mgr.c:57 (discriminator 4)
    if (pin < 0 || pin > 15)
     9ea:	04a76063          	bltu	a4,a0,a2a <GPIO_ParsePin+0xc4>
/home/randy/mounriver-studio-projects/UdpServer/obj/../User/gpio_mgr.c:60

    switch (portChar)
     9ee:	fbf40793          	addi	a5,s0,-65
     9f2:	0ff7f793          	andi	a5,a5,255
     9f6:	4711                	li	a4,4
     9f8:	08f76063          	bltu	a4,a5,a78 <GPIO_ParsePin+0x112>
     9fc:	6729                	lui	a4,0xa
     9fe:	078a                	slli	a5,a5,0x2
     a00:	92c70713          	addi	a4,a4,-1748 # 992c <g_ini_text+0x418>
     a04:	97ba                	add	a5,a5,a4
     a06:	439c                	lw	a5,0(a5)
     a08:	8782                	jr	a5
/home/randy/mounriver-studio-projects/UdpServer/obj/../User/gpio_mgr.c:63
{
    case 'A':
        out->port = GPIOA;
     a0a:	400117b7          	lui	a5,0x40011
     a0e:	80078793          	addi	a5,a5,-2048 # 40010800 <_eusrstack+0x20000800>
     a12:	00f92023          	sw	a5,0(s2)
/home/randy/mounriver-studio-projects/UdpServer/obj/../User/gpio_mgr.c:64
        RCC_APB2PeriphClockCmd(RCC_APB2Periph_GPIOA, ENABLE);
     a16:	4585                	li	a1,1
     a18:	4511                	li	a0,4
/home/randy/mounriver-studio-projects/UdpServer/obj/../User/gpio_mgr.c:84
        RCC_APB2PeriphClockCmd(RCC_APB2Periph_GPIOD, ENABLE);
        break;

    case 'E':
        out->port = GPIOE;
        RCC_APB2PeriphClockCmd(RCC_APB2Periph_GPIOE, ENABLE);
     a1a:	6d9000ef          	jal	ra,18f2 <RCC_APB2PeriphClockCmd>
/home/randy/mounriver-studio-projects/UdpServer/obj/../User/gpio_mgr.c:92
    default:
        printf("[GPIO] ERROR: Invalid port %c\r\n", portChar);
        return -5;
}

    out->pin = (1 << pin);
     a1e:	4505                	li	a0,1
     a20:	00951533          	sll	a0,a0,s1
     a24:	00a91223          	sh	a0,4(s2)
/home/randy/mounriver-studio-projects/UdpServer/obj/../User/gpio_mgr.c:93
    return 0;
     a28:	4781                	li	a5,0
/home/randy/mounriver-studio-projects/UdpServer/obj/../User/gpio_mgr.c:94
}
     a2a:	853e                	mv	a0,a5
     a2c:	fdeff06f          	j	20a <__riscv_restore_4>
/home/randy/mounriver-studio-projects/UdpServer/obj/../User/gpio_mgr.c:68
        out->port = GPIOB;
     a30:	400117b7          	lui	a5,0x40011
     a34:	c0078793          	addi	a5,a5,-1024 # 40010c00 <_eusrstack+0x20000c00>
     a38:	00f92023          	sw	a5,0(s2)
/home/randy/mounriver-studio-projects/UdpServer/obj/../User/gpio_mgr.c:69
        RCC_APB2PeriphClockCmd(RCC_APB2Periph_GPIOB, ENABLE);
     a3c:	4585                	li	a1,1
     a3e:	4521                	li	a0,8
     a40:	bfe9                	j	a1a <GPIO_ParsePin+0xb4>
/home/randy/mounriver-studio-projects/UdpServer/obj/../User/gpio_mgr.c:73
        out->port = GPIOC;
     a42:	400117b7          	lui	a5,0x40011
     a46:	00f92023          	sw	a5,0(s2)
/home/randy/mounriver-studio-projects/UdpServer/obj/../User/gpio_mgr.c:74
        RCC_APB2PeriphClockCmd(RCC_APB2Periph_GPIOC, ENABLE);
     a4a:	4585                	li	a1,1
     a4c:	4541                	li	a0,16
     a4e:	b7f1                	j	a1a <GPIO_ParsePin+0xb4>
/home/randy/mounriver-studio-projects/UdpServer/obj/../User/gpio_mgr.c:78
        out->port = GPIOD;
     a50:	400117b7          	lui	a5,0x40011
     a54:	40078793          	addi	a5,a5,1024 # 40011400 <_eusrstack+0x20001400>
     a58:	00f92023          	sw	a5,0(s2)
/home/randy/mounriver-studio-projects/UdpServer/obj/../User/gpio_mgr.c:79
        RCC_APB2PeriphClockCmd(RCC_APB2Periph_GPIOD, ENABLE);
     a5c:	4585                	li	a1,1
     a5e:	02000513          	li	a0,32
     a62:	bf65                	j	a1a <GPIO_ParsePin+0xb4>
/home/randy/mounriver-studio-projects/UdpServer/obj/../User/gpio_mgr.c:83
        out->port = GPIOE;
     a64:	400127b7          	lui	a5,0x40012
     a68:	80078793          	addi	a5,a5,-2048 # 40011800 <_eusrstack+0x20001800>
     a6c:	00f92023          	sw	a5,0(s2)
/home/randy/mounriver-studio-projects/UdpServer/obj/../User/gpio_mgr.c:84
        RCC_APB2PeriphClockCmd(RCC_APB2Periph_GPIOE, ENABLE);
     a70:	4585                	li	a1,1
     a72:	04000513          	li	a0,64
     a76:	b755                	j	a1a <GPIO_ParsePin+0xb4>
/home/randy/mounriver-studio-projects/UdpServer/obj/../User/gpio_mgr.c:88
        printf("[GPIO] ERROR: Invalid port %c\r\n", portChar);
     a78:	0000a537          	lui	a0,0xa
     a7c:	85a2                	mv	a1,s0
     a7e:	94050513          	addi	a0,a0,-1728 # 9940 <g_ini_text+0x42c>
     a82:	752070ef          	jal	ra,81d4 <printf>
/home/randy/mounriver-studio-projects/UdpServer/obj/../User/gpio_mgr.c:89
        return -5;
     a86:	57ed                	li	a5,-5
     a88:	b74d                	j	a2a <GPIO_ParsePin+0xc4>
/home/randy/mounriver-studio-projects/UdpServer/obj/../User/gpio_mgr.c:43
        return -1;
     a8a:	57fd                	li	a5,-1
/home/randy/mounriver-studio-projects/UdpServer/obj/../User/gpio_mgr.c:94
}
     a8c:	853e                	mv	a0,a5
     a8e:	8082                	ret
/home/randy/mounriver-studio-projects/UdpServer/obj/../User/gpio_mgr.c:47
        printf("[GPIO] ERROR: Pin %s is reserved\r\n", name);
     a90:	0000a537          	lui	a0,0xa
     a94:	85a6                	mv	a1,s1
     a96:	96050513          	addi	a0,a0,-1696 # 9960 <g_ini_text+0x44c>
     a9a:	73a070ef          	jal	ra,81d4 <printf>
/home/randy/mounriver-studio-projects/UdpServer/obj/../User/gpio_mgr.c:48
        return -2;
     a9e:	57f9                	li	a5,-2
     aa0:	b769                	j	a2a <GPIO_ParsePin+0xc4>

00000aa2 <GPIO_ConfigInputPullup>:
GPIO_ConfigInputPullup():
/home/randy/mounriver-studio-projects/UdpServer/obj/../User/gpio_mgr.c:99

/* ---------------- GPIO CONFIG ---------------- */

void GPIO_ConfigInputPullup(gpio_pin_t pin)
{
     aa2:	f4eff2ef          	jal	t0,1f0 <__riscv_save_0>
     aa6:	1101                	addi	sp,sp,-32
/home/randy/mounriver-studio-projects/UdpServer/obj/../User/gpio_mgr.c:102
    GPIO_InitTypeDef gpio;
    gpio.GPIO_Pin   = pin.pin;
    gpio.GPIO_Mode  = GPIO_Mode_IPU;
     aa8:	04800793          	li	a5,72
/home/randy/mounriver-studio-projects/UdpServer/obj/../User/gpio_mgr.c:101
    gpio.GPIO_Pin   = pin.pin;
     aac:	82ec                	sh	a1,20(sp)
/home/randy/mounriver-studio-projects/UdpServer/obj/../User/gpio_mgr.c:102
    gpio.GPIO_Mode  = GPIO_Mode_IPU;
     aae:	ce3e                	sw	a5,28(sp)
/home/randy/mounriver-studio-projects/UdpServer/obj/../User/gpio_mgr.c:104
    gpio.GPIO_Speed = GPIO_Speed_50MHz;
    GPIO_Init(pin.port, &gpio);
     ab0:	084c                	addi	a1,sp,20
/home/randy/mounriver-studio-projects/UdpServer/obj/../User/gpio_mgr.c:103
    gpio.GPIO_Speed = GPIO_Speed_50MHz;
     ab2:	478d                	li	a5,3
     ab4:	cc3e                	sw	a5,24(sp)
/home/randy/mounriver-studio-projects/UdpServer/obj/../User/gpio_mgr.c:104
    GPIO_Init(pin.port, &gpio);
     ab6:	3d7000ef          	jal	ra,168c <GPIO_Init>
/home/randy/mounriver-studio-projects/UdpServer/obj/../User/gpio_mgr.c:105
}
     aba:	6105                	addi	sp,sp,32
     abc:	f58ff06f          	j	214 <__riscv_restore_0>

00000ac0 <GPIO_ReadPin>:
GPIO_ReadPin():
/home/randy/mounriver-studio-projects/UdpServer/obj/../User/gpio_mgr.c:108

uint8_t GPIO_ReadPin(gpio_pin_t pin)
{
     ac0:	f30ff2ef          	jal	t0,1f0 <__riscv_save_0>
/home/randy/mounriver-studio-projects/UdpServer/obj/../User/gpio_mgr.c:109
    return GPIO_ReadInputDataBit(pin.port, pin.pin);
     ac4:	05c2                	slli	a1,a1,0x10
/home/randy/mounriver-studio-projects/UdpServer/obj/../User/gpio_mgr.c:108
{
     ac6:	1141                	addi	sp,sp,-16
/home/randy/mounriver-studio-projects/UdpServer/obj/../User/gpio_mgr.c:109
    return GPIO_ReadInputDataBit(pin.port, pin.pin);
     ac8:	81c1                	srli	a1,a1,0x10
     aca:	483000ef          	jal	ra,174c <GPIO_ReadInputDataBit>
/home/randy/mounriver-studio-projects/UdpServer/obj/../User/gpio_mgr.c:110
}
     ace:	0141                	addi	sp,sp,16
     ad0:	f44ff06f          	j	214 <__riscv_restore_0>

00000ad4 <trim.part.0>:
trim():
/home/randy/mounriver-studio-projects/UdpServer/obj/../User/ini_parser.c:5
#include "ini_parser.h"
#include <string.h>
#include <ctype.h>

static void trim(char *s)
     ad4:	f1cff2ef          	jal	t0,1f0 <__riscv_save_0>
     ad8:	84aa                	mv	s1,a0
     ada:	842a                	mv	s0,a0
/home/randy/mounriver-studio-projects/UdpServer/obj/../User/ini_parser.c:8
{
    char *p = s;
    while (isspace((int)*p)) p++;
     adc:	79a070ef          	jal	ra,8276 <__locale_ctype_ptr>
     ae0:	00040783          	lb	a5,0(s0)
     ae4:	953e                	add	a0,a0,a5
     ae6:	311c                	lbu	a5,1(a0)
     ae8:	8ba1                	andi	a5,a5,8
     aea:	e39d                	bnez	a5,b10 <trim.part.0+0x3c>
/home/randy/mounriver-studio-projects/UdpServer/obj/../User/ini_parser.c:9
    memmove(s, p, strlen(p)+1);
     aec:	8522                	mv	a0,s0
     aee:	137070ef          	jal	ra,8424 <strlen>
     af2:	00150613          	addi	a2,a0,1
     af6:	85a2                	mv	a1,s0
     af8:	8526                	mv	a0,s1
     afa:	079070ef          	jal	ra,8372 <memmove>
/home/randy/mounriver-studio-projects/UdpServer/obj/../User/ini_parser.c:11

    for (int i = strlen(s)-1; i >= 0; i--)
     afe:	8526                	mv	a0,s1
     b00:	125070ef          	jal	ra,8424 <strlen>
     b04:	00a48433          	add	s0,s1,a0
     b08:	00849663          	bne	s1,s0,b14 <trim.part.0+0x40>
/home/randy/mounriver-studio-projects/UdpServer/obj/../User/ini_parser.c:16
    {
        if (isspace((int)s[i])) s[i] = 0;
        else break;
    }
}
     b0c:	f08ff06f          	j	214 <__riscv_restore_0>
/home/randy/mounriver-studio-projects/UdpServer/obj/../User/ini_parser.c:8
    while (isspace((int)*p)) p++;
     b10:	0405                	addi	s0,s0,1
     b12:	b7e9                	j	adc <trim.part.0+0x8>
/home/randy/mounriver-studio-projects/UdpServer/obj/../User/ini_parser.c:13
        if (isspace((int)s[i])) s[i] = 0;
     b14:	762070ef          	jal	ra,8276 <__locale_ctype_ptr>
     b18:	fff40783          	lb	a5,-1(s0)
     b1c:	147d                	addi	s0,s0,-1
     b1e:	953e                	add	a0,a0,a5
     b20:	311c                	lbu	a5,1(a0)
     b22:	8ba1                	andi	a5,a5,8
     b24:	d7e5                	beqz	a5,b0c <trim.part.0+0x38>
     b26:	00040023          	sb	zero,0(s0)
     b2a:	bff9                	j	b08 <trim.part.0+0x34>

00000b2c <INI_Parse>:
INI_Parse():
/home/randy/mounriver-studio-projects/UdpServer/obj/../User/ini_parser.c:19

void INI_Parse(const char *text, ini_callback_t cb)
{
     b2c:	eaaff2ef          	jal	t0,1d6 <__riscv_save_4>
     b30:	712d                	addi	sp,sp,-288
     b32:	842a                	mv	s0,a0
     b34:	89ae                	mv	s3,a1
/home/randy/mounriver-studio-projects/UdpServer/obj/../User/ini_parser.c:21
    char line[256];
    char section[32] = "";
     b36:	4671                	li	a2,28
     b38:	4581                	li	a1,0
     b3a:	0048                	addi	a0,sp,4
     b3c:	c002                	sw	zero,0(sp)
/home/randy/mounriver-studio-projects/UdpServer/obj/../User/ini_parser.c:28
    const char *ptr = text;

    while (*ptr)
    {
        int len = 0;
        while (*ptr && *ptr != '\n' && len < sizeof(line)-1)
     b3e:	4929                	li	s2,10
/home/randy/mounriver-studio-projects/UdpServer/obj/../User/ini_parser.c:21
    char section[32] = "";
     b40:	ee0ff0ef          	jal	ra,220 <memset>
/home/randy/mounriver-studio-projects/UdpServer/obj/../User/ini_parser.c:28
        while (*ptr && *ptr != '\n' && len < sizeof(line)-1)
     b44:	0ff00a13          	li	s4,255
/home/randy/mounriver-studio-projects/UdpServer/obj/../User/ini_parser.c:34
            line[len++] = *ptr++;
        line[len] = 0;
        if (*ptr == '\n') ptr++;

        trim(line);
        if (line[0] == 0 || line[0] == ';')
     b48:	03b00a93          	li	s5,59
/home/randy/mounriver-studio-projects/UdpServer/obj/../User/ini_parser.c:25
    while (*ptr)
     b4c:	00040783          	lb	a5,0(s0)
     b50:	e7a5                	bnez	a5,bb8 <INI_Parse+0x8c>
/home/randy/mounriver-studio-projects/UdpServer/obj/../User/ini_parser.c:59
        trim(key);
        trim(value);

        cb(section, key, value);
    }
}
     b52:	6115                	addi	sp,sp,288
     b54:	eb6ff06f          	j	20a <__riscv_restore_4>
/home/randy/mounriver-studio-projects/UdpServer/obj/../User/ini_parser.c:29
            line[len++] = *ptr++;
     b58:	1014                	addi	a3,sp,32
     b5a:	96be                	add	a3,a3,a5
     b5c:	a298                	sb	a4,0(a3)
     b5e:	0785                	addi	a5,a5,1
     b60:	00f404b3          	add	s1,s0,a5
/home/randy/mounriver-studio-projects/UdpServer/obj/../User/ini_parser.c:28
        while (*ptr && *ptr != '\n' && len < sizeof(line)-1)
     b64:	00048703          	lb	a4,0(s1)
     b68:	c709                	beqz	a4,b72 <INI_Parse+0x46>
/home/randy/mounriver-studio-projects/UdpServer/obj/../User/ini_parser.c:28 (discriminator 1)
     b6a:	01270463          	beq	a4,s2,b72 <INI_Parse+0x46>
/home/randy/mounriver-studio-projects/UdpServer/obj/../User/ini_parser.c:28 (discriminator 2)
     b6e:	ff4795e3          	bne	a5,s4,b58 <INI_Parse+0x2c>
/home/randy/mounriver-studio-projects/UdpServer/obj/../User/ini_parser.c:30
        line[len] = 0;
     b72:	1214                	addi	a3,sp,288
     b74:	97b6                	add	a5,a5,a3
     b76:	f0078023          	sb	zero,-256(a5)
/home/randy/mounriver-studio-projects/UdpServer/obj/../User/ini_parser.c:31
        if (*ptr == '\n') ptr++;
     b7a:	01271363          	bne	a4,s2,b80 <INI_Parse+0x54>
/home/randy/mounriver-studio-projects/UdpServer/obj/../User/ini_parser.c:31 (discriminator 1)
     b7e:	0485                	addi	s1,s1,1
trim():
/home/randy/mounriver-studio-projects/UdpServer/obj/../User/ini_parser.c:8
    while (isspace((int)*p)) p++;
     b80:	1008                	addi	a0,sp,32
     b82:	3f89                	jal	ad4 <trim.part.0>
INI_Parse():
/home/randy/mounriver-studio-projects/UdpServer/obj/../User/ini_parser.c:34
        if (line[0] == 0 || line[0] == ';')
     b84:	02010783          	lb	a5,32(sp)
     b88:	c795                	beqz	a5,bb4 <INI_Parse+0x88>
/home/randy/mounriver-studio-projects/UdpServer/obj/../User/ini_parser.c:34 (discriminator 1)
     b8a:	03578563          	beq	a5,s5,bb4 <INI_Parse+0x88>
/home/randy/mounriver-studio-projects/UdpServer/obj/../User/ini_parser.c:37
        if (line[0] == '[')
     b8e:	05b00713          	li	a4,91
     b92:	02e79563          	bne	a5,a4,bbc <INI_Parse+0x90>
/home/randy/mounriver-studio-projects/UdpServer/obj/../User/ini_parser.c:39
            char *end = strchr(line, ']');
     b96:	05d00593          	li	a1,93
     b9a:	1008                	addi	a0,sp,32
     b9c:	071070ef          	jal	ra,840c <strchr>
/home/randy/mounriver-studio-projects/UdpServer/obj/../User/ini_parser.c:40
            if (end)
     ba0:	c911                	beqz	a0,bb4 <INI_Parse+0x88>
/home/randy/mounriver-studio-projects/UdpServer/obj/../User/ini_parser.c:42
                *end = 0;
     ba2:	00050023          	sb	zero,0(a0)
/home/randy/mounriver-studio-projects/UdpServer/obj/../User/ini_parser.c:43
                strncpy(section, &line[1], sizeof(section));
     ba6:	02000613          	li	a2,32
     baa:	02110593          	addi	a1,sp,33
     bae:	850a                	mv	a0,sp
     bb0:	0b3070ef          	jal	ra,8462 <strncpy>
     bb4:	8426                	mv	s0,s1
     bb6:	bf59                	j	b4c <INI_Parse+0x20>
     bb8:	4781                	li	a5,0
     bba:	b75d                	j	b60 <INI_Parse+0x34>
/home/randy/mounriver-studio-projects/UdpServer/obj/../User/ini_parser.c:48
        char *eq = strchr(line, '=');
     bbc:	03d00593          	li	a1,61
     bc0:	1008                	addi	a0,sp,32
     bc2:	04b070ef          	jal	ra,840c <strchr>
/home/randy/mounriver-studio-projects/UdpServer/obj/../User/ini_parser.c:49
        if (!eq) continue;
     bc6:	d57d                	beqz	a0,bb4 <INI_Parse+0x88>
/home/randy/mounriver-studio-projects/UdpServer/obj/../User/ini_parser.c:53
        char *value = eq + 1;
     bc8:	00150413          	addi	s0,a0,1
/home/randy/mounriver-studio-projects/UdpServer/obj/../User/ini_parser.c:51
        *eq = 0;
     bcc:	00050023          	sb	zero,0(a0)
trim():
/home/randy/mounriver-studio-projects/UdpServer/obj/../User/ini_parser.c:8
    while (isspace((int)*p)) p++;
     bd0:	1008                	addi	a0,sp,32
     bd2:	3709                	jal	ad4 <trim.part.0>
     bd4:	8522                	mv	a0,s0
     bd6:	3dfd                	jal	ad4 <trim.part.0>
INI_Parse():
/home/randy/mounriver-studio-projects/UdpServer/obj/../User/ini_parser.c:57
        cb(section, key, value);
     bd8:	8622                	mv	a2,s0
     bda:	100c                	addi	a1,sp,32
     bdc:	850a                	mv	a0,sp
     bde:	9982                	jalr	s3
     be0:	bfd1                	j	bb4 <INI_Parse+0x88>

00000be2 <read_encoder_state>:
read_encoder_state():
/home/randy/mounriver-studio-projects/UdpServer/obj/../User/main.c:157
    -1,  0,  0, +1,
     0, +1, -1,  0
};

static uint8_t read_encoder_state(int idx)
{
     be2:	e0eff2ef          	jal	t0,1f0 <__riscv_save_0>
/home/randy/mounriver-studio-projects/UdpServer/obj/../User/main.c:158
    uint8_t a = GPIO_ReadPin(g_cfg.encoders[idx].a_pin) ? 1 : 0;
     be6:	06c00413          	li	s0,108
     bea:	02850433          	mul	s0,a0,s0
     bee:	200007b7          	lui	a5,0x20000
     bf2:	35478793          	addi	a5,a5,852 # 20000354 <g_cfg>
     bf6:	943e                	add	s0,s0,a5
     bf8:	444c                	lw	a1,12(s0)
     bfa:	4408                	lw	a0,8(s0)
     bfc:	35d1                	jal	ac0 <GPIO_ReadPin>
     bfe:	84aa                	mv	s1,a0
/home/randy/mounriver-studio-projects/UdpServer/obj/../User/main.c:159
    uint8_t b = GPIO_ReadPin(g_cfg.encoders[idx].b_pin) ? 1 : 0;
     c00:	484c                	lw	a1,20(s0)
     c02:	4808                	lw	a0,16(s0)
/home/randy/mounriver-studio-projects/UdpServer/obj/../User/main.c:158
    uint8_t a = GPIO_ReadPin(g_cfg.encoders[idx].a_pin) ? 1 : 0;
     c04:	009034b3          	snez	s1,s1
/home/randy/mounriver-studio-projects/UdpServer/obj/../User/main.c:160
    return (a << 1) | b;
     c08:	0486                	slli	s1,s1,0x1
/home/randy/mounriver-studio-projects/UdpServer/obj/../User/main.c:159
    uint8_t b = GPIO_ReadPin(g_cfg.encoders[idx].b_pin) ? 1 : 0;
     c0a:	3d5d                	jal	ac0 <GPIO_ReadPin>
     c0c:	00a03533          	snez	a0,a0
/home/randy/mounriver-studio-projects/UdpServer/obj/../User/main.c:161
}
     c10:	8d45                	or	a0,a0,s1
     c12:	e02ff06f          	j	214 <__riscv_restore_0>

00000c16 <mStopIfError>:
mStopIfError():
/home/randy/mounriver-studio-projects/UdpServer/obj/../User/main.c:178
 *
 * @return  none
 */
void mStopIfError(u8 iError)
{
    if (iError == WCHNET_ERR_SUCCESS)
     c16:	cd01                	beqz	a0,c2e <mStopIfError+0x18>
/home/randy/mounriver-studio-projects/UdpServer/obj/../User/main.c:177
{
     c18:	dd8ff2ef          	jal	t0,1f0 <__riscv_save_0>
     c1c:	85aa                	mv	a1,a0
/home/randy/mounriver-studio-projects/UdpServer/obj/../User/main.c:180
        return;
    printf("Error: %02X\r\n", (u16) iError);
     c1e:	0000a537          	lui	a0,0xa
     c22:	b2c50513          	addi	a0,a0,-1236 # 9b2c <reserved_pins+0x1a8>
     c26:	5ae070ef          	jal	ra,81d4 <printf>
/home/randy/mounriver-studio-projects/UdpServer/obj/../User/main.c:181
}
     c2a:	deaff06f          	j	214 <__riscv_restore_0>
     c2e:	8082                	ret

00000c30 <TIM2_Init>:
TIM2_Init():
/home/randy/mounriver-studio-projects/UdpServer/obj/../User/main.c:191
 * @brief   Initializes TIM2 for use with networking functions.
 *
 * @return  none
 */
void TIM2_Init(void)
{
     c30:	dc0ff2ef          	jal	t0,1f0 <__riscv_save_0>
     c34:	1141                	addi	sp,sp,-16
/home/randy/mounriver-studio-projects/UdpServer/obj/../User/main.c:194
    TIM_TimeBaseInitTypeDef TIM_TimeBaseStructure = { 0 };

    RCC_APB1PeriphClockCmd(RCC_APB1Periph_TIM2, ENABLE);
     c36:	4585                	li	a1,1
     c38:	4505                	li	a0,1
/home/randy/mounriver-studio-projects/UdpServer/obj/../User/main.c:192
    TIM_TimeBaseInitTypeDef TIM_TimeBaseStructure = { 0 };
     c3a:	c202                	sw	zero,4(sp)
     c3c:	c402                	sw	zero,8(sp)
     c3e:	00011623          	sh	zero,12(sp)
/home/randy/mounriver-studio-projects/UdpServer/obj/../User/main.c:194
    RCC_APB1PeriphClockCmd(RCC_APB1Periph_TIM2, ENABLE);
     c42:	4cf000ef          	jal	ra,1910 <RCC_APB1PeriphClockCmd>
/home/randy/mounriver-studio-projects/UdpServer/obj/../User/main.c:196

    TIM_TimeBaseStructure.TIM_Period = SystemCoreClock / 1000000;
     c46:	81c1a783          	lw	a5,-2020(gp) # 2000023c <SystemCoreClock>
     c4a:	000f4737          	lui	a4,0xf4
     c4e:	24070713          	addi	a4,a4,576 # f4240 <_data_lma+0xea3dc>
     c52:	02e7d7b3          	divu	a5,a5,a4
/home/randy/mounriver-studio-projects/UdpServer/obj/../User/main.c:200
    TIM_TimeBaseStructure.TIM_Prescaler = WCHNETTIMERPERIOD * 1000 - 1;
    TIM_TimeBaseStructure.TIM_ClockDivision = 0;
    TIM_TimeBaseStructure.TIM_CounterMode = TIM_CounterMode_Up;
    TIM_TimeBaseInit(TIM2, &TIM_TimeBaseStructure);
     c56:	004c                	addi	a1,sp,4
     c58:	40000537          	lui	a0,0x40000
/home/randy/mounriver-studio-projects/UdpServer/obj/../User/main.c:198
    TIM_TimeBaseStructure.TIM_ClockDivision = 0;
     c5c:	00011523          	sh	zero,10(sp)
/home/randy/mounriver-studio-projects/UdpServer/obj/../User/main.c:196
    TIM_TimeBaseStructure.TIM_Period = SystemCoreClock / 1000000;
     c60:	847c                	sh	a5,8(sp)
/home/randy/mounriver-studio-projects/UdpServer/obj/../User/main.c:197
    TIM_TimeBaseStructure.TIM_Prescaler = WCHNETTIMERPERIOD * 1000 - 1;
     c62:	6789                	lui	a5,0x2
     c64:	70f78793          	addi	a5,a5,1807 # 270f <WCHNET_Init+0x13>
     c68:	c23e                	sw	a5,4(sp)
/home/randy/mounriver-studio-projects/UdpServer/obj/../User/main.c:200
    TIM_TimeBaseInit(TIM2, &TIM_TimeBaseStructure);
     c6a:	557000ef          	jal	ra,19c0 <TIM_TimeBaseInit>
/home/randy/mounriver-studio-projects/UdpServer/obj/../User/main.c:201
    TIM_ITConfig(TIM2, TIM_IT_Update, ENABLE);
     c6e:	4605                	li	a2,1
     c70:	4585                	li	a1,1
     c72:	40000537          	lui	a0,0x40000
     c76:	623000ef          	jal	ra,1a98 <TIM_ITConfig>
/home/randy/mounriver-studio-projects/UdpServer/obj/../User/main.c:203

    TIM_Cmd(TIM2, ENABLE);
     c7a:	4585                	li	a1,1
     c7c:	40000537          	lui	a0,0x40000
     c80:	601000ef          	jal	ra,1a80 <TIM_Cmd>
/home/randy/mounriver-studio-projects/UdpServer/obj/../User/main.c:204
    TIM_ClearITPendingBit(TIM2, TIM_IT_Update);
     c84:	4585                	li	a1,1
     c86:	40000537          	lui	a0,0x40000
     c8a:	637000ef          	jal	ra,1ac0 <TIM_ClearITPendingBit>
NVIC_EnableIRQ():
/home/randy/mounriver-studio-projects/UdpServer/Core/core_riscv.h:170
  NVIC->IENR[((uint32_t)(IRQn) >> 5)] = (1 << ((uint32_t)(IRQn) & 0x1F));
     c8e:	e000e7b7          	lui	a5,0xe000e
     c92:	6705                	lui	a4,0x1
     c94:	10e7a223          	sw	a4,260(a5) # e000e104 <_eusrstack+0xbfffe104>
TIM2_Init():
/home/randy/mounriver-studio-projects/UdpServer/obj/../User/main.c:206
    NVIC_EnableIRQ(TIM2_IRQn);
}
     c98:	0141                	addi	sp,sp,16
     c9a:	d7aff06f          	j	214 <__riscv_restore_0>

00000c9e <CalcBroadcastIP>:
CalcBroadcastIP():
/home/randy/mounriver-studio-projects/UdpServer/obj/../User/main.c:217
 *
 * @return  none
 */
void CalcBroadcastIP(uint8_t *ip, uint8_t *mask)
{
    for (int i = 0; i < 4; i++)
     c9e:	4781                	li	a5,0
/home/randy/mounriver-studio-projects/UdpServer/obj/../User/main.c:219
    {
        BroadcastAddr[i] = ip[i] | (~mask[i]);
     ca0:	80418693          	addi	a3,gp,-2044 # 20000224 <BroadcastAddr>
/home/randy/mounriver-studio-projects/UdpServer/obj/../User/main.c:217
    for (int i = 0; i < 4; i++)
     ca4:	4611                	li	a2,4
/home/randy/mounriver-studio-projects/UdpServer/obj/../User/main.c:219 (discriminator 3)
        BroadcastAddr[i] = ip[i] | (~mask[i]);
     ca6:	00f58733          	add	a4,a1,a5
     caa:	2318                	lbu	a4,0(a4)
     cac:	00f508b3          	add	a7,a0,a5
     cb0:	0008c883          	lbu	a7,0(a7)
     cb4:	fff74713          	not	a4,a4
     cb8:	00f68833          	add	a6,a3,a5
     cbc:	01176733          	or	a4,a4,a7
     cc0:	00e80023          	sb	a4,0(a6)
/home/randy/mounriver-studio-projects/UdpServer/obj/../User/main.c:217 (discriminator 3)
    for (int i = 0; i < 4; i++)
     cc4:	0785                	addi	a5,a5,1
     cc6:	fec790e3          	bne	a5,a2,ca6 <CalcBroadcastIP+0x8>
/home/randy/mounriver-studio-projects/UdpServer/obj/../User/main.c:221
    }
}
     cca:	8082                	ret

00000ccc <UdpSend>:
UdpSend():
/home/randy/mounriver-studio-projects/UdpServer/obj/../User/main.c:230
 *
 * @brief   Send UDP packet containing message stored in "SocketMyBuf".
 *
 * @return  none
 */
void UdpSend(){
     ccc:	d24ff2ef          	jal	t0,1f0 <__riscv_save_0>
     cd0:	1141                	addi	sp,sp,-16
/home/randy/mounriver-studio-projects/UdpServer/obj/../User/main.c:232
    u32 len;
    len = sizeof(SocketMyBuf);
     cd2:	02d00793          	li	a5,45
     cd6:	c63e                	sw	a5,12(sp)
/home/randy/mounriver-studio-projects/UdpServer/obj/../User/main.c:234
    
    WCHNET_SocketUdpSendTo(
     cd8:	8081d703          	lhu	a4,-2040(gp) # 20000228 <BroadcastPort>
     cdc:	86a1c503          	lbu	a0,-1942(gp) # 2000028a <SocketId>
     ce0:	200005b7          	lui	a1,0x20000
     ce4:	0070                	addi	a2,sp,12
     ce6:	80418693          	addi	a3,gp,-2044 # 20000224 <BroadcastAddr>
     cea:	00058593          	mv	a1,a1
     cee:	631010ef          	jal	ra,2b1e <WCHNET_SocketUdpSendTo>
/home/randy/mounriver-studio-projects/UdpServer/obj/../User/main.c:241
        SocketMyBuf, 
        &len, 
        BroadcastAddr, 
        BroadcastPort
    );
}
     cf2:	0141                	addi	sp,sp,16
     cf4:	d20ff06f          	j	214 <__riscv_restore_0>

00000cf8 <WCHNET_UdpServerRecv>:
WCHNET_UdpServerRecv():
/home/randy/mounriver-studio-projects/UdpServer/obj/../User/main.c:256
 *          buf - pointer to the data buffer
 *          len - received data length
 * @return  none
 */
void WCHNET_UdpServerRecv(struct _SOCK_INF *socinf, u32 ipaddr, u16 port, u8 *buf, u32 len)
{
     cf8:	cdeff2ef          	jal	t0,1d6 <__riscv_save_4>
     cfc:	892a                	mv	s2,a0
/home/randy/mounriver-studio-projects/UdpServer/obj/../User/main.c:259
    u8 ip_addr[4], i;

    printf("Remote IP:");
     cfe:	0000a537          	lui	a0,0xa
/home/randy/mounriver-studio-projects/UdpServer/obj/../User/main.c:256
{
     d02:	1101                	addi	sp,sp,-32
/home/randy/mounriver-studio-projects/UdpServer/obj/../User/main.c:259
    printf("Remote IP:");
     d04:	af450513          	addi	a0,a0,-1292 # 9af4 <reserved_pins+0x170>
/home/randy/mounriver-studio-projects/UdpServer/obj/../User/main.c:256
{
     d08:	84ae                	mv	s1,a1
     d0a:	89b2                	mv	s3,a2
     d0c:	8a36                	mv	s4,a3
     d0e:	c63a                	sw	a4,12(sp)
/home/randy/mounriver-studio-projects/UdpServer/obj/../User/main.c:259
    printf("Remote IP:");
     d10:	4401                	li	s0,0
     d12:	4c2070ef          	jal	ra,81d4 <printf>
/home/randy/mounriver-studio-projects/UdpServer/obj/../User/main.c:262
    for (i = 0; i < 4; i++) {
        ip_addr[i] = ipaddr & 0xff;
        printf("%d ", ip_addr[i]);
     d16:	0000ab37          	lui	s6,0xa
/home/randy/mounriver-studio-projects/UdpServer/obj/../User/main.c:260
    for (i = 0; i < 4; i++) {
     d1a:	4a91                	li	s5,4
/home/randy/mounriver-studio-projects/UdpServer/obj/../User/main.c:261 (discriminator 3)
        ip_addr[i] = ipaddr & 0xff;
     d1c:	087c                	addi	a5,sp,28
     d1e:	97a2                	add	a5,a5,s0
     d20:	a384                	sb	s1,0(a5)
/home/randy/mounriver-studio-projects/UdpServer/obj/../User/main.c:262 (discriminator 3)
        printf("%d ", ip_addr[i]);
     d22:	0ff4f593          	andi	a1,s1,255
     d26:	b00b0513          	addi	a0,s6,-1280 # 9b00 <reserved_pins+0x17c>
     d2a:	0405                	addi	s0,s0,1
     d2c:	4a8070ef          	jal	ra,81d4 <printf>
/home/randy/mounriver-studio-projects/UdpServer/obj/../User/main.c:263 (discriminator 3)
        ipaddr = ipaddr >> 8;
     d30:	80a1                	srli	s1,s1,0x8
/home/randy/mounriver-studio-projects/UdpServer/obj/../User/main.c:260 (discriminator 3)
    for (i = 0; i < 4; i++) {
     d32:	ff5415e3          	bne	s0,s5,d1c <WCHNET_UdpServerRecv+0x24>
/home/randy/mounriver-studio-projects/UdpServer/obj/../User/main.c:266
    }

    printf("srcport = %d len = %d socketid = %d\r\n", port, len,
     d36:	00492683          	lw	a3,4(s2)
     d3a:	4632                	lw	a2,12(sp)
     d3c:	0000a537          	lui	a0,0xa
     d40:	85ce                	mv	a1,s3
     d42:	b0450513          	addi	a0,a0,-1276 # 9b04 <reserved_pins+0x180>
     d46:	48e070ef          	jal	ra,81d4 <printf>
/home/randy/mounriver-studio-projects/UdpServer/obj/../User/main.c:269
            socinf->SockIndex);

    WCHNET_SocketUdpSendTo(socinf->SockIndex, buf, &len, ip_addr, port);
     d4a:	00494503          	lbu	a0,4(s2)
     d4e:	0874                	addi	a3,sp,28
     d50:	0070                	addi	a2,sp,12
     d52:	874e                	mv	a4,s3
     d54:	85d2                	mv	a1,s4
     d56:	5c9010ef          	jal	ra,2b1e <WCHNET_SocketUdpSendTo>
/home/randy/mounriver-studio-projects/UdpServer/obj/../User/main.c:270
    UdpSend();
     d5a:	3f8d                	jal	ccc <UdpSend>
/home/randy/mounriver-studio-projects/UdpServer/obj/../User/main.c:271
}
     d5c:	6105                	addi	sp,sp,32
     d5e:	cacff06f          	j	20a <__riscv_restore_4>

00000d62 <WCHNET_CreateUdpSocket>:
WCHNET_CreateUdpSocket():
/home/randy/mounriver-studio-projects/UdpServer/obj/../User/main.c:281
 * @brief   Create UDP Socket
 *
 * @return  none
 */
void WCHNET_CreateUdpSocket(void)
{
     d62:	c8eff2ef          	jal	t0,1f0 <__riscv_save_0>
     d66:	7139                	addi	sp,sp,-64
/home/randy/mounriver-studio-projects/UdpServer/obj/../User/main.c:285
    u8 i;
    SOCK_INF TmpSocketInf;

    memset((void *) &TmpSocketInf, 0, sizeof(SOCK_INF));
     d68:	03800613          	li	a2,56
     d6c:	4581                	li	a1,0
     d6e:	0048                	addi	a0,sp,4
     d70:	cb0ff0ef          	jal	ra,220 <memset>
/home/randy/mounriver-studio-projects/UdpServer/obj/../User/main.c:286
    TmpSocketInf.SourPort = srcport;
     d74:	8181d783          	lhu	a5,-2024(gp) # 20000238 <srcport>
/home/randy/mounriver-studio-projects/UdpServer/obj/../User/main.c:291
    TmpSocketInf.ProtoType = PROTO_TYPE_UDP;
    TmpSocketInf.RecvBufLen = UDP_RECE_BUF_LEN;
    TmpSocketInf.RecvStartPoint = (u32) SocketRecvBuf;
    TmpSocketInf.AppCallBack = WCHNET_UdpServerRecv;
    i = WCHNET_SocketCreat(&SocketId, &TmpSocketInf);
     d78:	86a18493          	addi	s1,gp,-1942 # 2000028a <SocketId>
/home/randy/mounriver-studio-projects/UdpServer/obj/../User/main.c:286
    TmpSocketInf.SourPort = srcport;
     d7c:	d63e                	sw	a5,44(sp)
/home/randy/mounriver-studio-projects/UdpServer/obj/../User/main.c:287
    TmpSocketInf.ProtoType = PROTO_TYPE_UDP;
     d7e:	4789                	li	a5,2
     d80:	d03e                	sw	a5,32(sp)
/home/randy/mounriver-studio-projects/UdpServer/obj/../User/main.c:288
    TmpSocketInf.RecvBufLen = UDP_RECE_BUF_LEN;
     d82:	5c000793          	li	a5,1472
     d86:	c83e                	sw	a5,16(sp)
/home/randy/mounriver-studio-projects/UdpServer/obj/../User/main.c:289
    TmpSocketInf.RecvStartPoint = (u32) SocketRecvBuf;
     d88:	78818793          	addi	a5,gp,1928 # 200011a8 <SocketRecvBuf>
     d8c:	c63e                	sw	a5,12(sp)
/home/randy/mounriver-studio-projects/UdpServer/obj/../User/main.c:290
    TmpSocketInf.AppCallBack = WCHNET_UdpServerRecv;
     d8e:	000017b7          	lui	a5,0x1
     d92:	cf878793          	addi	a5,a5,-776 # cf8 <WCHNET_UdpServerRecv>
/home/randy/mounriver-studio-projects/UdpServer/obj/../User/main.c:291
    i = WCHNET_SocketCreat(&SocketId, &TmpSocketInf);
     d96:	004c                	addi	a1,sp,4
     d98:	86a18513          	addi	a0,gp,-1942 # 2000028a <SocketId>
/home/randy/mounriver-studio-projects/UdpServer/obj/../User/main.c:290
    TmpSocketInf.AppCallBack = WCHNET_UdpServerRecv;
     d9c:	de3e                	sw	a5,60(sp)
/home/randy/mounriver-studio-projects/UdpServer/obj/../User/main.c:291
    i = WCHNET_SocketCreat(&SocketId, &TmpSocketInf);
     d9e:	3b1010ef          	jal	ra,294e <WCHNET_SocketCreat>
/home/randy/mounriver-studio-projects/UdpServer/obj/../User/main.c:292
    printf("SocketId %d\r\n", SocketId);
     da2:	208c                	lbu	a1,0(s1)
/home/randy/mounriver-studio-projects/UdpServer/obj/../User/main.c:291
    i = WCHNET_SocketCreat(&SocketId, &TmpSocketInf);
     da4:	842a                	mv	s0,a0
/home/randy/mounriver-studio-projects/UdpServer/obj/../User/main.c:292
    printf("SocketId %d\r\n", SocketId);
     da6:	0000a537          	lui	a0,0xa
     daa:	ae450513          	addi	a0,a0,-1308 # 9ae4 <reserved_pins+0x160>
     dae:	426070ef          	jal	ra,81d4 <printf>
/home/randy/mounriver-studio-projects/UdpServer/obj/../User/main.c:293
    mStopIfError(i);
     db2:	8522                	mv	a0,s0
     db4:	358d                	jal	c16 <mStopIfError>
/home/randy/mounriver-studio-projects/UdpServer/obj/../User/main.c:294
}
     db6:	6121                	addi	sp,sp,64
     db8:	c5cff06f          	j	214 <__riscv_restore_0>

00000dbc <Button_Init>:
Button_Init():
/home/randy/mounriver-studio-projects/UdpServer/obj/../User/main.c:370
 * @brief   Initialize buttons in accordance with config
 *
 * @return  none
 */
void Button_Init(void)
{
     dbc:	c1aff2ef          	jal	t0,1d6 <__riscv_save_4>
/home/randy/mounriver-studio-projects/UdpServer/obj/../User/main.c:371
    printf("[BTN] Initializing %d buttons\r\n", g_cfg.button_count);
     dc0:	20000937          	lui	s2,0x20000
     dc4:	35490793          	addi	a5,s2,852 # 20000354 <g_cfg>
     dc8:	33cc                	lbu	a1,5(a5)
     dca:	0000a537          	lui	a0,0xa
     dce:	a1050513          	addi	a0,a0,-1520 # 9a10 <reserved_pins+0x8c>
     dd2:	20001437          	lui	s0,0x20001
     dd6:	3fe070ef          	jal	ra,81d4 <printf>
/home/randy/mounriver-studio-projects/UdpServer/obj/../User/main.c:373

    for (int i = 0; i < g_cfg.button_count; i++)
     dda:	76840413          	addi	s0,s0,1896 # 20001768 <btn_state>
     dde:	4981                	li	s3,0
     de0:	35490913          	addi	s2,s2,852
/home/randy/mounriver-studio-projects/UdpServer/obj/../User/main.c:375
    {
        GPIO_ConfigInputPullup(g_cfg.buttons[i].pin);
     de4:	06400a13          	li	s4,100
/home/randy/mounriver-studio-projects/UdpServer/obj/../User/main.c:373 (discriminator 1)
    for (int i = 0; i < g_cfg.button_count; i++)
     de8:	00594783          	lbu	a5,5(s2)
     dec:	00f9c463          	blt	s3,a5,df4 <Button_Init+0x38>
/home/randy/mounriver-studio-projects/UdpServer/obj/../User/main.c:379
        btn_state[i].last_state = GPIO_ReadPin(g_cfg.buttons[i].pin);
        btn_state[i].last_change = millis();
    }
}
     df0:	c1aff06f          	j	20a <__riscv_restore_4>
/home/randy/mounriver-studio-projects/UdpServer/obj/../User/main.c:375 (discriminator 3)
        GPIO_ConfigInputPullup(g_cfg.buttons[i].pin);
     df4:	034984b3          	mul	s1,s3,s4
     df8:	0421                	addi	s0,s0,8
/home/randy/mounriver-studio-projects/UdpServer/obj/../User/main.c:373 (discriminator 3)
    for (int i = 0; i < g_cfg.button_count; i++)
     dfa:	0985                	addi	s3,s3,1
/home/randy/mounriver-studio-projects/UdpServer/obj/../User/main.c:375 (discriminator 3)
        GPIO_ConfigInputPullup(g_cfg.buttons[i].pin);
     dfc:	94ca                	add	s1,s1,s2
     dfe:	1b84a503          	lw	a0,440(s1)
     e02:	1bc4a583          	lw	a1,444(s1)
     e06:	3971                	jal	aa2 <GPIO_ConfigInputPullup>
/home/randy/mounriver-studio-projects/UdpServer/obj/../User/main.c:376 (discriminator 3)
        btn_state[i].last_state = GPIO_ReadPin(g_cfg.buttons[i].pin);
     e08:	1bc4a583          	lw	a1,444(s1)
     e0c:	1b84a503          	lw	a0,440(s1)
     e10:	3945                	jal	ac0 <GPIO_ReadPin>
     e12:	fea40c23          	sb	a0,-8(s0)
/home/randy/mounriver-studio-projects/UdpServer/obj/../User/main.c:377 (discriminator 3)
        btn_state[i].last_change = millis();
     e16:	23dd                	jal	13fc <millis>
     e18:	fea42e23          	sw	a0,-4(s0)
     e1c:	b7f1                	j	de8 <Button_Init+0x2c>

00000e1e <Button_Task>:
Button_Task():
/home/randy/mounriver-studio-projects/UdpServer/obj/../User/main.c:390
 *          Sends associated message via UDP
 *
 * @return  none
 */
void Button_Task(void)
{
     e1e:	ba2ff2ef          	jal	t0,1c0 <__riscv_save_12>
/home/randy/mounriver-studio-projects/UdpServer/obj/../User/main.c:391
    for (int i = 0; i < g_cfg.button_count; i++)
     e22:	20000937          	lui	s2,0x20000
     e26:	20001437          	lui	s0,0x20001
     e2a:	35490993          	addi	s3,s2,852 # 20000354 <g_cfg>
     e2e:	76840413          	addi	s0,s0,1896 # 20001768 <btn_state>
     e32:	4481                	li	s1,0
     e34:	35490b13          	addi	s6,s2,852
/home/randy/mounriver-studio-projects/UdpServer/obj/../User/main.c:393
    {
        uint8_t val = GPIO_ReadPin(g_cfg.buttons[i].pin);
     e38:	06400c13          	li	s8,100
/home/randy/mounriver-studio-projects/UdpServer/obj/../User/main.c:399
                            
        if (val != btn_state[i].last_state)
        {
            if ((millis() - btn_state[i].last_change) >= g_cfg.debounce_ms)
            {
                printf("[BTN] %d Press -> %d\r\n", i, val);
     e3c:	0000acb7          	lui	s9,0xa
     e40:	20000a37          	lui	s4,0x20000
     e44:	0000abb7          	lui	s7,0xa
/home/randy/mounriver-studio-projects/UdpServer/obj/../User/main.c:415
                    UdpSend();
                    
                }
                else
                {
                    printf("[BTN] %d Release -> %s\r\n",
     e48:	0000ad37          	lui	s10,0xa
/home/randy/mounriver-studio-projects/UdpServer/obj/../User/main.c:405
                    printf("[BTN] %d Press -> %s\r\n",
     e4c:	0000adb7          	lui	s11,0xa
/home/randy/mounriver-studio-projects/UdpServer/obj/../User/main.c:391 (discriminator 1)
    for (int i = 0; i < g_cfg.button_count; i++)
     e50:	005b4783          	lbu	a5,5(s6)
     e54:	00f4c463          	blt	s1,a5,e5c <Button_Task+0x3e>
/home/randy/mounriver-studio-projects/UdpServer/obj/../User/main.c:426
                    
                }
            }
        }
    }
}
     e58:	ba4ff06f          	j	1fc <__riscv_restore_12>
/home/randy/mounriver-studio-projects/UdpServer/obj/../User/main.c:393
        uint8_t val = GPIO_ReadPin(g_cfg.buttons[i].pin);
     e5c:	038487b3          	mul	a5,s1,s8
     e60:	97da                	add	a5,a5,s6
     e62:	1b87a503          	lw	a0,440(a5)
     e66:	1bc7a583          	lw	a1,444(a5)
     e6a:	3999                	jal	ac0 <GPIO_ReadPin>
/home/randy/mounriver-studio-projects/UdpServer/obj/../User/main.c:395
        if (val != btn_state[i].last_state)
     e6c:	201c                	lbu	a5,0(s0)
/home/randy/mounriver-studio-projects/UdpServer/obj/../User/main.c:393
        uint8_t val = GPIO_ReadPin(g_cfg.buttons[i].pin);
     e6e:	8aaa                	mv	s5,a0
/home/randy/mounriver-studio-projects/UdpServer/obj/../User/main.c:395
        if (val != btn_state[i].last_state)
     e70:	04a78e63          	beq	a5,a0,ecc <Button_Task+0xae>
/home/randy/mounriver-studio-projects/UdpServer/obj/../User/main.c:397
            if ((millis() - btn_state[i].last_change) >= g_cfg.debounce_ms)
     e74:	2361                	jal	13fc <millis>
     e76:	405c                	lw	a5,4(s0)
     e78:	8d1d                	sub	a0,a0,a5
     e7a:	35495783          	lhu	a5,852(s2)
     e7e:	04f56763          	bltu	a0,a5,ecc <Button_Task+0xae>
/home/randy/mounriver-studio-projects/UdpServer/obj/../User/main.c:399
                printf("[BTN] %d Press -> %d\r\n", i, val);
     e82:	8656                	mv	a2,s5
     e84:	85a6                	mv	a1,s1
     e86:	a30c8513          	addi	a0,s9,-1488 # 9a30 <reserved_pins+0xac>
     e8a:	34a070ef          	jal	ra,81d4 <printf>
/home/randy/mounriver-studio-projects/UdpServer/obj/../User/main.c:400
                btn_state[i].last_state = val;
     e8e:	01540023          	sb	s5,0(s0)
/home/randy/mounriver-studio-projects/UdpServer/obj/../User/main.c:401
                btn_state[i].last_change = millis();
     e92:	23ad                	jal	13fc <millis>
     e94:	c048                	sw	a0,4(s0)
/home/randy/mounriver-studio-projects/UdpServer/obj/../User/main.c:403
                if (val == 0)
     e96:	040a9063          	bnez	s5,ed6 <Button_Task+0xb8>
/home/randy/mounriver-studio-projects/UdpServer/obj/../User/main.c:405
                    printf("[BTN] %d Press -> %s\r\n",
     e9a:	1c098a93          	addi	s5,s3,448
     e9e:	8656                	mv	a2,s5
     ea0:	85a6                	mv	a1,s1
     ea2:	a48d8513          	addi	a0,s11,-1464 # 9a48 <reserved_pins+0xc4>
/home/randy/mounriver-studio-projects/UdpServer/obj/../User/main.c:415
                    printf("[BTN] %d Release -> %s\r\n",
     ea6:	32e070ef          	jal	ra,81d4 <printf>
/home/randy/mounriver-studio-projects/UdpServer/obj/../User/main.c:418
                    memcpy(SocketMyBuf,g_cfg.buttons[i].release_text,sizeof(g_cfg.buttons[i].press_text));
     eaa:	02d00613          	li	a2,45
     eae:	85d6                	mv	a1,s5
     eb0:	000a0513          	mv	a0,s4
     eb4:	40c070ef          	jal	ra,82c0 <memcpy>
/home/randy/mounriver-studio-projects/UdpServer/obj/../User/main.c:419
                    printf("len of SocketMyBuf %d", strlen(SocketMyBuf));
     eb8:	000a0513          	mv	a0,s4
     ebc:	568070ef          	jal	ra,8424 <strlen>
     ec0:	85aa                	mv	a1,a0
     ec2:	a60b8513          	addi	a0,s7,-1440 # 9a60 <reserved_pins+0xdc>
     ec6:	30e070ef          	jal	ra,81d4 <printf>
/home/randy/mounriver-studio-projects/UdpServer/obj/../User/main.c:420
                    UdpSend();
     eca:	3509                	jal	ccc <UdpSend>
/home/randy/mounriver-studio-projects/UdpServer/obj/../User/main.c:391 (discriminator 2)
    for (int i = 0; i < g_cfg.button_count; i++)
     ecc:	0485                	addi	s1,s1,1
     ece:	06498993          	addi	s3,s3,100
     ed2:	0421                	addi	s0,s0,8
     ed4:	bfb5                	j	e50 <Button_Task+0x32>
/home/randy/mounriver-studio-projects/UdpServer/obj/../User/main.c:415
                    printf("[BTN] %d Release -> %s\r\n",
     ed6:	1ed98a93          	addi	s5,s3,493
     eda:	8656                	mv	a2,s5
     edc:	85a6                	mv	a1,s1
     ede:	a78d0513          	addi	a0,s10,-1416 # 9a78 <reserved_pins+0xf4>
     ee2:	b7d1                	j	ea6 <Button_Task+0x88>

00000ee4 <Encoder_Init>:
Encoder_Init():
/home/randy/mounriver-studio-projects/UdpServer/obj/../User/main.c:436
 * @brief   Initialize encoders in accordance with config
 *
 * @return  none
 */
void Encoder_Init(void)
{
     ee4:	af2ff2ef          	jal	t0,1d6 <__riscv_save_4>
/home/randy/mounriver-studio-projects/UdpServer/obj/../User/main.c:437
    printf("[ENC] Initializing %d encoders\r\n", g_cfg.encoder_count);
     ee8:	200009b7          	lui	s3,0x20000
     eec:	35498793          	addi	a5,s3,852 # 20000354 <g_cfg>
     ef0:	23cc                	lbu	a1,4(a5)
     ef2:	0000a537          	lui	a0,0xa
     ef6:	a9450513          	addi	a0,a0,-1388 # 9a94 <reserved_pins+0x110>
     efa:	20002437          	lui	s0,0x20002
     efe:	2d6070ef          	jal	ra,81d4 <printf>
/home/randy/mounriver-studio-projects/UdpServer/obj/../User/main.c:439

    for (int i = 0; i < g_cfg.encoder_count; i++)
     f02:	86840413          	addi	s0,s0,-1944 # 20001868 <enc_state>
     f06:	4901                	li	s2,0
     f08:	35498993          	addi	s3,s3,852
/home/randy/mounriver-studio-projects/UdpServer/obj/../User/main.c:441
    {
        GPIO_ConfigInputPullup(g_cfg.encoders[i].a_pin);
     f0c:	06c00a13          	li	s4,108
/home/randy/mounriver-studio-projects/UdpServer/obj/../User/main.c:439 (discriminator 1)
    for (int i = 0; i < g_cfg.encoder_count; i++)
     f10:	0049c783          	lbu	a5,4(s3)
     f14:	00f94463          	blt	s2,a5,f1c <Encoder_Init+0x38>
/home/randy/mounriver-studio-projects/UdpServer/obj/../User/main.c:447
        GPIO_ConfigInputPullup(g_cfg.encoders[i].b_pin);

        enc_state[i].last_state  = read_encoder_state(i);
        enc_state[i].last_change = millis();
    }
}
     f18:	af2ff06f          	j	20a <__riscv_restore_4>
/home/randy/mounriver-studio-projects/UdpServer/obj/../User/main.c:441 (discriminator 3)
        GPIO_ConfigInputPullup(g_cfg.encoders[i].a_pin);
     f1c:	034904b3          	mul	s1,s2,s4
     f20:	0421                	addi	s0,s0,8
     f22:	94ce                	add	s1,s1,s3
     f24:	4488                	lw	a0,8(s1)
     f26:	44cc                	lw	a1,12(s1)
     f28:	3ead                	jal	aa2 <GPIO_ConfigInputPullup>
/home/randy/mounriver-studio-projects/UdpServer/obj/../User/main.c:442 (discriminator 3)
        GPIO_ConfigInputPullup(g_cfg.encoders[i].b_pin);
     f2a:	48cc                	lw	a1,20(s1)
     f2c:	4888                	lw	a0,16(s1)
     f2e:	3e95                	jal	aa2 <GPIO_ConfigInputPullup>
/home/randy/mounriver-studio-projects/UdpServer/obj/../User/main.c:444 (discriminator 3)
        enc_state[i].last_state  = read_encoder_state(i);
     f30:	854a                	mv	a0,s2
     f32:	3945                	jal	be2 <read_encoder_state>
     f34:	fea40c23          	sb	a0,-8(s0)
/home/randy/mounriver-studio-projects/UdpServer/obj/../User/main.c:445 (discriminator 3)
        enc_state[i].last_change = millis();
     f38:	21d1                	jal	13fc <millis>
     f3a:	fea42e23          	sw	a0,-4(s0)
/home/randy/mounriver-studio-projects/UdpServer/obj/../User/main.c:439 (discriminator 3)
    for (int i = 0; i < g_cfg.encoder_count; i++)
     f3e:	0905                	addi	s2,s2,1
     f40:	bfc1                	j	f10 <Encoder_Init+0x2c>

00000f42 <Encoder_Task>:
Encoder_Task():
/home/randy/mounriver-studio-projects/UdpServer/obj/../User/main.c:458
 *          Sends associated message via UDP
 *
 * @return  none
 */
void Encoder_Task(void)
{
     f42:	a7eff2ef          	jal	t0,1c0 <__riscv_save_12>
/home/randy/mounriver-studio-projects/UdpServer/obj/../User/main.c:459
    for (int i = 0; i < g_cfg.encoder_count; i++)
     f46:	20002437          	lui	s0,0x20002
     f4a:	20000937          	lui	s2,0x20000
/home/randy/mounriver-studio-projects/UdpServer/obj/../User/main.c:469
        if (new_state != old_state)
        {
            if ((millis() - enc_state[i].last_change) >= g_cfg.debounce_ms)
            {
                uint8_t idx = (old_state << 2) | new_state;
                int8_t dir = quad_table[idx];
     f4e:	6aa9                	lui	s5,0xa
/home/randy/mounriver-studio-projects/UdpServer/obj/../User/main.c:458
{
     f50:	1141                	addi	sp,sp,-16
     f52:	86840413          	addi	s0,s0,-1944 # 20001868 <enc_state>
     f56:	35490993          	addi	s3,s2,852 # 20000354 <g_cfg>
/home/randy/mounriver-studio-projects/UdpServer/obj/../User/main.c:459
    for (int i = 0; i < g_cfg.encoder_count; i++)
     f5a:	4481                	li	s1,0
/home/randy/mounriver-studio-projects/UdpServer/obj/../User/main.c:469
                int8_t dir = quad_table[idx];
     f5c:	c48a8a93          	addi	s5,s5,-952 # 9c48 <quad_table>
/home/randy/mounriver-studio-projects/UdpServer/obj/../User/main.c:471

                if (dir == +1)
     f60:	4c05                	li	s8,1
/home/randy/mounriver-studio-projects/UdpServer/obj/../User/main.c:481
                    memcpy(SocketMyBuf,g_cfg.encoders[i].cw_text,sizeof(g_cfg.encoders[i].cw_text));
                    printf("len of SocketMyBuf %d", strlen(SocketMyBuf));
                    UdpSend();
                    
                }
                else if (dir == -1)
     f62:	5cfd                	li	s9,-1
/home/randy/mounriver-studio-projects/UdpServer/obj/../User/main.c:483
                {
                    printf("[ENC] %d CCW -> %s\r\n",
     f64:	0000ad37          	lui	s10,0xa
/home/randy/mounriver-studio-projects/UdpServer/obj/../User/main.c:486
                                i, g_cfg.encoders[i].ccw_text);
                    
                    memcpy(SocketMyBuf,g_cfg.encoders[i].ccw_text,sizeof(g_cfg.encoders[i].ccw_text));
     f68:	20000a37          	lui	s4,0x20000
/home/randy/mounriver-studio-projects/UdpServer/obj/../User/main.c:487
                    printf("len of SocketMyBuf %d", strlen(SocketMyBuf));
     f6c:	0000abb7          	lui	s7,0xa
/home/randy/mounriver-studio-projects/UdpServer/obj/../User/main.c:473
                    printf("[ENC] %d CW -> %s\r\n",
     f70:	0000adb7          	lui	s11,0xa
/home/randy/mounriver-studio-projects/UdpServer/obj/../User/main.c:459 (discriminator 1)
    for (int i = 0; i < g_cfg.encoder_count; i++)
     f74:	200007b7          	lui	a5,0x20000
     f78:	35478793          	addi	a5,a5,852 # 20000354 <g_cfg>
     f7c:	23dc                	lbu	a5,4(a5)
     f7e:	00f4c563          	blt	s1,a5,f88 <Encoder_Task+0x46>
/home/randy/mounriver-studio-projects/UdpServer/obj/../User/main.c:497
                enc_state[i].last_state = new_state;
                enc_state[i].last_change = millis();
            }
        }
    }
}
     f82:	0141                	addi	sp,sp,16
     f84:	a78ff06f          	j	1fc <__riscv_restore_12>
/home/randy/mounriver-studio-projects/UdpServer/obj/../User/main.c:461
        uint8_t new_state = read_encoder_state(i);
     f88:	8526                	mv	a0,s1
     f8a:	39a1                	jal	be2 <read_encoder_state>
/home/randy/mounriver-studio-projects/UdpServer/obj/../User/main.c:462
        uint8_t old_state = enc_state[i].last_state;
     f8c:	201c                	lbu	a5,0(s0)
/home/randy/mounriver-studio-projects/UdpServer/obj/../User/main.c:461
        uint8_t new_state = read_encoder_state(i);
     f8e:	8b2a                	mv	s6,a0
/home/randy/mounriver-studio-projects/UdpServer/obj/../User/main.c:464
        if (new_state != old_state)
     f90:	c63e                	sw	a5,12(sp)
     f92:	06f50363          	beq	a0,a5,ff8 <Encoder_Task+0xb6>
/home/randy/mounriver-studio-projects/UdpServer/obj/../User/main.c:466
            if ((millis() - enc_state[i].last_change) >= g_cfg.debounce_ms)
     f96:	219d                	jal	13fc <millis>
     f98:	4058                	lw	a4,4(s0)
     f9a:	8d19                	sub	a0,a0,a4
     f9c:	35495703          	lhu	a4,852(s2)
     fa0:	04e56c63          	bltu	a0,a4,ff8 <Encoder_Task+0xb6>
/home/randy/mounriver-studio-projects/UdpServer/obj/../User/main.c:468
                uint8_t idx = (old_state << 2) | new_state;
     fa4:	47b2                	lw	a5,12(sp)
     fa6:	078a                	slli	a5,a5,0x2
     fa8:	0167e7b3          	or	a5,a5,s6
/home/randy/mounriver-studio-projects/UdpServer/obj/../User/main.c:469
                int8_t dir = quad_table[idx];
     fac:	0ff7f793          	andi	a5,a5,255
     fb0:	97d6                	add	a5,a5,s5
     fb2:	00078783          	lb	a5,0(a5)
/home/randy/mounriver-studio-projects/UdpServer/obj/../User/main.c:471
                if (dir == +1)
     fb6:	05879663          	bne	a5,s8,1002 <Encoder_Task+0xc0>
/home/randy/mounriver-studio-projects/UdpServer/obj/../User/main.c:473
                    printf("[ENC] %d CW -> %s\r\n",
     fba:	01898793          	addi	a5,s3,24
     fbe:	863e                	mv	a2,a5
     fc0:	c63e                	sw	a5,12(sp)
     fc2:	85a6                	mv	a1,s1
     fc4:	ab8d8513          	addi	a0,s11,-1352 # 9ab8 <reserved_pins+0x134>
/home/randy/mounriver-studio-projects/UdpServer/obj/../User/main.c:483
                    printf("[ENC] %d CCW -> %s\r\n",
     fc8:	20c070ef          	jal	ra,81d4 <printf>
/home/randy/mounriver-studio-projects/UdpServer/obj/../User/main.c:486
                    memcpy(SocketMyBuf,g_cfg.encoders[i].ccw_text,sizeof(g_cfg.encoders[i].ccw_text));
     fcc:	47b2                	lw	a5,12(sp)
     fce:	02d00613          	li	a2,45
     fd2:	000a0513          	mv	a0,s4
     fd6:	85be                	mv	a1,a5
     fd8:	2e8070ef          	jal	ra,82c0 <memcpy>
/home/randy/mounriver-studio-projects/UdpServer/obj/../User/main.c:487
                    printf("len of SocketMyBuf %d", strlen(SocketMyBuf));
     fdc:	000a0513          	mv	a0,s4
     fe0:	444070ef          	jal	ra,8424 <strlen>
     fe4:	85aa                	mv	a1,a0
     fe6:	a60b8513          	addi	a0,s7,-1440 # 9a60 <reserved_pins+0xdc>
     fea:	1ea070ef          	jal	ra,81d4 <printf>
/home/randy/mounriver-studio-projects/UdpServer/obj/../User/main.c:488
                    UdpSend();
     fee:	39f9                	jal	ccc <UdpSend>
/home/randy/mounriver-studio-projects/UdpServer/obj/../User/main.c:492
                enc_state[i].last_state = new_state;
     ff0:	01640023          	sb	s6,0(s0)
/home/randy/mounriver-studio-projects/UdpServer/obj/../User/main.c:493
                enc_state[i].last_change = millis();
     ff4:	2121                	jal	13fc <millis>
     ff6:	c048                	sw	a0,4(s0)
/home/randy/mounriver-studio-projects/UdpServer/obj/../User/main.c:459 (discriminator 2)
    for (int i = 0; i < g_cfg.encoder_count; i++)
     ff8:	0485                	addi	s1,s1,1
     ffa:	0421                	addi	s0,s0,8
     ffc:	06c98993          	addi	s3,s3,108
    1000:	bf95                	j	f74 <Encoder_Task+0x32>
/home/randy/mounriver-studio-projects/UdpServer/obj/../User/main.c:481
                else if (dir == -1)
    1002:	ff9797e3          	bne	a5,s9,ff0 <Encoder_Task+0xae>
/home/randy/mounriver-studio-projects/UdpServer/obj/../User/main.c:483
                    printf("[ENC] %d CCW -> %s\r\n",
    1006:	04598793          	addi	a5,s3,69
    100a:	863e                	mv	a2,a5
    100c:	c63e                	sw	a5,12(sp)
    100e:	85a6                	mv	a1,s1
    1010:	accd0513          	addi	a0,s10,-1332 # 9acc <reserved_pins+0x148>
    1014:	bf55                	j	fc8 <Encoder_Task+0x86>

00001016 <main>:
main():
/home/randy/mounriver-studio-projects/UdpServer/obj/../User/main.c:507
 * @brief   Main program
 *
 * @return  none
 */
int main(void)
{
    1016:	9b2ff2ef          	jal	t0,1c8 <__riscv_save_10>
/home/randy/mounriver-studio-projects/UdpServer/obj/../User/main.c:510
    u8 i;

    SystemCoreClockUpdate();
    101a:	24b5                	jal	1286 <SystemCoreClockUpdate>
/home/randy/mounriver-studio-projects/UdpServer/obj/../User/main.c:511
    Delay_Init();
    101c:	176010ef          	jal	ra,2192 <Delay_Init>
/home/randy/mounriver-studio-projects/UdpServer/obj/../User/main.c:512
    USART_Printf_Init(115200);  // USART initialize
    1020:	6571                	lui	a0,0x1c
    1022:	20050513          	addi	a0,a0,512 # 1c200 <_data_lma+0x1239c>
    1026:	1fe010ef          	jal	ra,2224 <USART_Printf_Init>
/home/randy/mounriver-studio-projects/UdpServer/obj/../User/main.c:513
    printf("\r\n\r\n\r\n\r\n\r\n[MAIN] DCS-BIOS Control Panel\r\n");
    102a:	0000a537          	lui	a0,0xa
    102e:	b3c50513          	addi	a0,a0,-1220 # 9b3c <reserved_pins+0x1b8>
    1032:	1ee070ef          	jal	ra,8220 <puts>
/home/randy/mounriver-studio-projects/UdpServer/obj/../User/main.c:514
    printf("[MAIN] SystemClk:%d\r\n", SystemCoreClock);
    1036:	81c1a583          	lw	a1,-2020(gp) # 2000023c <SystemCoreClock>
    103a:	0000a537          	lui	a0,0xa
    103e:	b6850513          	addi	a0,a0,-1176 # 9b68 <reserved_pins+0x1e4>
    1042:	192070ef          	jal	ra,81d4 <printf>
/home/randy/mounriver-studio-projects/UdpServer/obj/../User/main.c:515
    printf("[MAIN] ChipID:%08x\r\n", DBGMCU_GetCHIPID());
    1046:	2985                	jal	14b6 <DBGMCU_GetCHIPID>
    1048:	85aa                	mv	a1,a0
    104a:	0000a537          	lui	a0,0xa
    104e:	b8050513          	addi	a0,a0,-1152 # 9b80 <reserved_pins+0x1fc>
    1052:	182070ef          	jal	ra,81d4 <printf>
/home/randy/mounriver-studio-projects/UdpServer/obj/../User/main.c:516
    printf("[MAIN] net version:%x\r\n", WCHNET_GetVer());
    1056:	097010ef          	jal	ra,28ec <WCHNET_GetVer>
    105a:	85aa                	mv	a1,a0
    105c:	0000a537          	lui	a0,0xa
    1060:	b9850513          	addi	a0,a0,-1128 # 9b98 <reserved_pins+0x214>
    1064:	170070ef          	jal	ra,81d4 <printf>
/home/randy/mounriver-studio-projects/UdpServer/obj/../User/main.c:517
    if ( WCHNET_LIB_VER != WCHNET_GetVer()) {
    1068:	085010ef          	jal	ra,28ec <WCHNET_GetVer>
    106c:	47ed                	li	a5,27
    106e:	00f50863          	beq	a0,a5,107e <main+0x68>
/home/randy/mounriver-studio-projects/UdpServer/obj/../User/main.c:518
        printf("[MAIN] version error.\r\n");
    1072:	0000a537          	lui	a0,0xa
    1076:	bb050513          	addi	a0,a0,-1104 # 9bb0 <reserved_pins+0x22c>
    107a:	1a6070ef          	jal	ra,8220 <puts>
/home/randy/mounriver-studio-projects/UdpServer/obj/../User/main.c:520
    }
    TIM2_Init();  // Start timers for networking functions
    107e:	3e4d                	jal	c30 <TIM2_Init>
/home/randy/mounriver-studio-projects/UdpServer/obj/../User/main.c:522
    
    Timebase_Init();  // Start timers for debouncing buttons and encoders
    1080:	2e05                	jal	13b0 <Timebase_Init>
/home/randy/mounriver-studio-projects/UdpServer/obj/../User/main.c:524

    Config_Load();    // Reads configuration as definded in "dcs_config.ini.inc"
    1082:	855ff0ef          	jal	ra,8d6 <Config_Load>
/home/randy/mounriver-studio-projects/UdpServer/obj/../User/main.c:527

    // Populate network info from configuration
    IPAddr[0] = g_cfg.net.ip[0] & 0xff;
    1086:	200017b7          	lui	a5,0x20001
    108a:	35478793          	addi	a5,a5,852 # 20001354 <SocketRecvBuf+0x1ac>
    108e:	e407a703          	lw	a4,-448(a5)
    1092:	80e1a823          	sw	a4,-2032(gp) # 20000230 <IPAddr>
/home/randy/mounriver-studio-projects/UdpServer/obj/../User/main.c:531
    IPAddr[1] = g_cfg.net.ip[1] & 0xff;
    IPAddr[2] = g_cfg.net.ip[2] & 0xff;
    IPAddr[3] = g_cfg.net.ip[3] & 0xff;
    IPMask[0] = g_cfg.net.mask[0] & 0xff;
    1096:	e447a703          	lw	a4,-444(a5)
/home/randy/mounriver-studio-projects/UdpServer/obj/../User/main.c:539
    IPMask[3] = g_cfg.net.mask[3] & 0xff;
    GWIPAddr[0] = g_cfg.net.gw[0] & 0xff;
    GWIPAddr[1] = g_cfg.net.gw[1] & 0xff;
    GWIPAddr[2] = g_cfg.net.gw[2] & 0xff;
    GWIPAddr[3] = g_cfg.net.gw[3] & 0xff;
    MACAddr[0] = g_cfg.net.mac[0] & 0xff;
    109a:	e3a7d683          	lhu	a3,-454(a5)
/home/randy/mounriver-studio-projects/UdpServer/obj/../User/main.c:531
    IPMask[0] = g_cfg.net.mask[0] & 0xff;
    109e:	80e1aa23          	sw	a4,-2028(gp) # 20000234 <IPMask>
/home/randy/mounriver-studio-projects/UdpServer/obj/../User/main.c:535
    GWIPAddr[0] = g_cfg.net.gw[0] & 0xff;
    10a2:	e487a703          	lw	a4,-440(a5)
/home/randy/mounriver-studio-projects/UdpServer/obj/../User/main.c:539
    MACAddr[0] = g_cfg.net.mac[0] & 0xff;
    10a6:	81018a93          	addi	s5,gp,-2032 # 20000230 <IPAddr>
/home/randy/mounriver-studio-projects/UdpServer/obj/../User/main.c:535
    GWIPAddr[0] = g_cfg.net.gw[0] & 0xff;
    10aa:	80e1a623          	sw	a4,-2036(gp) # 2000022c <GWIPAddr>
/home/randy/mounriver-studio-projects/UdpServer/obj/../User/main.c:539
    MACAddr[0] = g_cfg.net.mac[0] & 0xff;
    10ae:	86418713          	addi	a4,gp,-1948 # 20000284 <MACAddr>
    10b2:	a316                	sh	a3,0(a4)
/home/randy/mounriver-studio-projects/UdpServer/obj/../User/main.c:541
    MACAddr[1] = g_cfg.net.mac[1] & 0xff;
    MACAddr[2] = g_cfg.net.mac[2] & 0xff;
    10b4:	e3c7d683          	lhu	a3,-452(a5)
/home/randy/mounriver-studio-projects/UdpServer/obj/../User/main.c:543
    MACAddr[3] = g_cfg.net.mac[3] & 0xff;
    MACAddr[4] = g_cfg.net.mac[4] & 0xff;
    10b8:	e3e7d783          	lhu	a5,-450(a5)
    10bc:	8b2e                	mv	s6,a1
/home/randy/mounriver-studio-projects/UdpServer/obj/../User/main.c:541
    MACAddr[2] = g_cfg.net.mac[2] & 0xff;
    10be:	a336                	sh	a3,2(a4)
/home/randy/mounriver-studio-projects/UdpServer/obj/../User/main.c:543
    MACAddr[4] = g_cfg.net.mac[4] & 0xff;
    10c0:	a35e                	sh	a5,4(a4)
/home/randy/mounriver-studio-projects/UdpServer/obj/../User/main.c:548
    MACAddr[5] = g_cfg.net.mac[5] & 0xff;

    // Check for user assigned MAC address
    int userMac = 0;
    for(int i = 0; i < 6; i++){
    10c2:	86418993          	addi	s3,gp,-1948 # 20000284 <MACAddr>
    10c6:	4781                	li	a5,0
/home/randy/mounriver-studio-projects/UdpServer/obj/../User/main.c:547
    int userMac = 0;
    10c8:	4701                	li	a4,0
/home/randy/mounriver-studio-projects/UdpServer/obj/../User/main.c:548
    for(int i = 0; i < 6; i++){
    10ca:	4699                	li	a3,6
/home/randy/mounriver-studio-projects/UdpServer/obj/../User/main.c:549 (discriminator 3)
        userMac += MACAddr[i];
    10cc:	00f98633          	add	a2,s3,a5
    10d0:	2210                	lbu	a2,0(a2)
/home/randy/mounriver-studio-projects/UdpServer/obj/../User/main.c:548 (discriminator 3)
    for(int i = 0; i < 6; i++){
    10d2:	0785                	addi	a5,a5,1
/home/randy/mounriver-studio-projects/UdpServer/obj/../User/main.c:549 (discriminator 3)
        userMac += MACAddr[i];
    10d4:	9732                	add	a4,a4,a2
/home/randy/mounriver-studio-projects/UdpServer/obj/../User/main.c:548 (discriminator 3)
    for(int i = 0; i < 6; i++){
    10d6:	fed79be3          	bne	a5,a3,10cc <main+0xb6>
/home/randy/mounriver-studio-projects/UdpServer/obj/../User/main.c:553
    }
    // If user assigned MAC address is configured use it
    // Otherwise, use the chip MAC address
    if(!userMac){
    10da:	e709                	bnez	a4,10e4 <main+0xce>
/home/randy/mounriver-studio-projects/UdpServer/obj/../User/main.c:554
        WCHNET_GetMacAddr(MACAddr);  // get the chip MAC address
    10dc:	86418513          	addi	a0,gp,-1948 # 20000284 <MACAddr>
    10e0:	329000ef          	jal	ra,1c08 <WCHNET_GetMacAddr>
/home/randy/mounriver-studio-projects/UdpServer/obj/../User/main.c:556
    }
    printf("[MAIN] mac addr:");
    10e4:	0000a537          	lui	a0,0xa
    10e8:	bc850513          	addi	a0,a0,-1080 # 9bc8 <reserved_pins+0x244>
    10ec:	0e8070ef          	jal	ra,81d4 <printf>
    10f0:	4901                	li	s2,0
/home/randy/mounriver-studio-projects/UdpServer/obj/../User/main.c:558
    for(i = 0; i < 6; i++) 
        printf("%x ",MACAddr[i]);
    10f2:	0000ac37          	lui	s8,0xa
/home/randy/mounriver-studio-projects/UdpServer/obj/../User/main.c:557
    for(i = 0; i < 6; i++) 
    10f6:	4b99                	li	s7,6
/home/randy/mounriver-studio-projects/UdpServer/obj/../User/main.c:558 (discriminator 3)
        printf("%x ",MACAddr[i]);
    10f8:	012987b3          	add	a5,s3,s2
    10fc:	238c                	lbu	a1,0(a5)
    10fe:	bdcc0513          	addi	a0,s8,-1060 # 9bdc <reserved_pins+0x258>
    1102:	0905                	addi	s2,s2,1
    1104:	0d0070ef          	jal	ra,81d4 <printf>
/home/randy/mounriver-studio-projects/UdpServer/obj/../User/main.c:557 (discriminator 3)
    for(i = 0; i < 6; i++) 
    1108:	ff7918e3          	bne	s2,s7,10f8 <main+0xe2>
/home/randy/mounriver-studio-projects/UdpServer/obj/../User/main.c:559
    printf("\r\n");
    110c:	00009537          	lui	a0,0x9
    1110:	48850513          	addi	a0,a0,1160 # 9488 <_malloc_usable_size_r+0x16c>
    1114:	10c070ef          	jal	ra,8220 <puts>
/home/randy/mounriver-studio-projects/UdpServer/obj/../User/main.c:561
    
    Encoder_Init();   // Initialize pins for encoder as defined in Config_Load function
    1118:	33f1                	jal	ee4 <Encoder_Init>
/home/randy/mounriver-studio-projects/UdpServer/obj/../User/main.c:563

    Button_Init();   // Initialize pins for buttons as defined in Config_Load function
    111a:	314d                	jal	dbc <Button_Init>
/home/randy/mounriver-studio-projects/UdpServer/obj/../User/main.c:566

    
    i = ETH_LibInit(IPAddr, GWIPAddr, IPMask, MACAddr);  // Ethernet library initialization
    111c:	86418693          	addi	a3,gp,-1948 # 20000284 <MACAddr>
    1120:	81418613          	addi	a2,gp,-2028 # 20000234 <IPMask>
    1124:	80c18593          	addi	a1,gp,-2036 # 2000022c <GWIPAddr>
    1128:	81018513          	addi	a0,gp,-2032 # 20000230 <IPAddr>
    112c:	7e9000ef          	jal	ra,2114 <ETH_LibInit>
    1130:	84aa                	mv	s1,a0
/home/randy/mounriver-studio-projects/UdpServer/obj/../User/main.c:567
    mStopIfError(i);
    1132:	ae5ff0ef          	jal	ra,c16 <mStopIfError>
/home/randy/mounriver-studio-projects/UdpServer/obj/../User/main.c:568
    if (i == WCHNET_ERR_SUCCESS)
    1136:	e499                	bnez	s1,1144 <main+0x12e>
/home/randy/mounriver-studio-projects/UdpServer/obj/../User/main.c:569
        printf("[MAIN] WCHNET_LibInit Success\r\n");
    1138:	0000a537          	lui	a0,0xa
    113c:	be050513          	addi	a0,a0,-1056 # 9be0 <reserved_pins+0x25c>
    1140:	0e0070ef          	jal	ra,8220 <puts>
/home/randy/mounriver-studio-projects/UdpServer/obj/../User/main.c:571
    
    CalcBroadcastIP(IPAddr, IPMask);  // Caluculate Broadcast IP address from IP addres and netmask
    1144:	81418593          	addi	a1,gp,-2028 # 20000234 <IPMask>
    1148:	81018513          	addi	a0,gp,-2032 # 20000230 <IPAddr>
    114c:	b53ff0ef          	jal	ra,c9e <CalcBroadcastIP>
/home/randy/mounriver-studio-projects/UdpServer/obj/../User/main.c:572
    printf("[MAIN] BroadcastAddr = %d.%d.%d.%d\r\n",BroadcastAddr[0],BroadcastAddr[1],BroadcastAddr[2],BroadcastAddr[3]);
    1150:	80418793          	addi	a5,gp,-2044 # 20000224 <BroadcastAddr>
    1154:	33b8                	lbu	a4,3(a5)
    1156:	23b4                	lbu	a3,2(a5)
    1158:	3390                	lbu	a2,1(a5)
    115a:	238c                	lbu	a1,0(a5)
    115c:	0000a537          	lui	a0,0xa
    1160:	c0050513          	addi	a0,a0,-1024 # 9c00 <reserved_pins+0x27c>
    1164:	070070ef          	jal	ra,81d4 <printf>
/home/randy/mounriver-studio-projects/UdpServer/obj/../User/main.c:574
    
    WCHNET_CreateUdpSocket();  // Create  UDP Socket
    1168:	3eed                	jal	d62 <WCHNET_CreateUdpSocket>
/home/randy/mounriver-studio-projects/UdpServer/obj/../User/main.c:575
    printf("[MAIN] IPAddr = %d.%d.%d.%d\r\n",IPAddr[0],IPAddr[1],IPAddr[2],IPAddr[3]);
    116a:	003ac703          	lbu	a4,3(s5)
    116e:	002ac683          	lbu	a3,2(s5)
    1172:	001ac603          	lbu	a2,1(s5)
    1176:	000ac583          	lbu	a1,0(s5)
    117a:	0000a537          	lui	a0,0xa
    117e:	c2850513          	addi	a0,a0,-984 # 9c28 <reserved_pins+0x2a4>
    1182:	052070ef          	jal	ra,81d4 <printf>
/home/randy/mounriver-studio-projects/UdpServer/obj/../User/main.c:579 (discriminator 1)
    
    while(1)
    {
        Button_Task();
    1186:	3961                	jal	e1e <Button_Task>
/home/randy/mounriver-studio-projects/UdpServer/obj/../User/main.c:581 (discriminator 1)

        Encoder_Task();
    1188:	3b6d                	jal	f42 <Encoder_Task>
    118a:	bff5                	j	1186 <main+0x170>

0000118c <SystemInit>:
SystemInit():
/home/randy/mounriver-studio-projects/UdpServer/obj/../User/system_ch32v30x.c:113
 *
 * @return  none
 */
void SystemInit (void)
{
  RCC->CTLR |= (uint32_t)0x00000001;
    118c:	400217b7          	lui	a5,0x40021
    1190:	4398                	lw	a4,0(a5)
/home/randy/mounriver-studio-projects/UdpServer/obj/../User/system_ch32v30x.c:115

  RCC->CFGR0 &= (uint32_t)0xF0FF0000;
    1192:	f0ff06b7          	lui	a3,0xf0ff0
/home/randy/mounriver-studio-projects/UdpServer/obj/../User/system_ch32v30x.c:112
{
    1196:	1141                	addi	sp,sp,-16
/home/randy/mounriver-studio-projects/UdpServer/obj/../User/system_ch32v30x.c:113
  RCC->CTLR |= (uint32_t)0x00000001;
    1198:	00176713          	ori	a4,a4,1
    119c:	c398                	sw	a4,0(a5)
/home/randy/mounriver-studio-projects/UdpServer/obj/../User/system_ch32v30x.c:115
  RCC->CFGR0 &= (uint32_t)0xF0FF0000;
    119e:	43d8                	lw	a4,4(a5)
SetSysClockTo96_HSE():
/home/randy/mounriver-studio-projects/UdpServer/obj/../User/system_ch32v30x.c:565
  RCC->CTLR |= ((uint32_t)RCC_HSEON);

  /* Wait till HSE is ready and if Time out is reached exit */
  do
  {
    HSEStatus = RCC->CTLR & RCC_HSERDY;
    11a0:	00020637          	lui	a2,0x20
SystemInit():
/home/randy/mounriver-studio-projects/UdpServer/obj/../User/system_ch32v30x.c:115
  RCC->CFGR0 &= (uint32_t)0xF0FF0000;
    11a4:	8f75                	and	a4,a4,a3
    11a6:	c3d8                	sw	a4,4(a5)
/home/randy/mounriver-studio-projects/UdpServer/obj/../User/system_ch32v30x.c:117
  RCC->CTLR &= (uint32_t)0xFEF6FFFF;
    11a8:	4398                	lw	a4,0(a5)
    11aa:	fef706b7          	lui	a3,0xfef70
    11ae:	16fd                	addi	a3,a3,-1
    11b0:	8f75                	and	a4,a4,a3
    11b2:	c398                	sw	a4,0(a5)
/home/randy/mounriver-studio-projects/UdpServer/obj/../User/system_ch32v30x.c:118
  RCC->CTLR &= (uint32_t)0xFFFBFFFF;
    11b4:	4398                	lw	a4,0(a5)
    11b6:	fffc06b7          	lui	a3,0xfffc0
    11ba:	16fd                	addi	a3,a3,-1
    11bc:	8f75                	and	a4,a4,a3
    11be:	c398                	sw	a4,0(a5)
/home/randy/mounriver-studio-projects/UdpServer/obj/../User/system_ch32v30x.c:119
  RCC->CFGR0 &= (uint32_t)0xFF00FFFF;
    11c0:	43d8                	lw	a4,4(a5)
    11c2:	ff0106b7          	lui	a3,0xff010
    11c6:	16fd                	addi	a3,a3,-1
    11c8:	8f75                	and	a4,a4,a3
    11ca:	c3d8                	sw	a4,4(a5)
/home/randy/mounriver-studio-projects/UdpServer/obj/../User/system_ch32v30x.c:122
  RCC->CTLR &= (uint32_t)0xEBFFFFFF;
    11cc:	4398                	lw	a4,0(a5)
    11ce:	ec0006b7          	lui	a3,0xec000
    11d2:	16fd                	addi	a3,a3,-1
    11d4:	8f75                	and	a4,a4,a3
    11d6:	c398                	sw	a4,0(a5)
/home/randy/mounriver-studio-projects/UdpServer/obj/../User/system_ch32v30x.c:123
  RCC->INTR = 0x00FF0000;
    11d8:	00ff0737          	lui	a4,0xff0
    11dc:	c798                	sw	a4,8(a5)
/home/randy/mounriver-studio-projects/UdpServer/obj/../User/system_ch32v30x.c:124
  RCC->CFGR2 = 0x00000000;
    11de:	0207a623          	sw	zero,44(a5) # 4002102c <_eusrstack+0x2001102c>
SetSysClockTo96_HSE():
/home/randy/mounriver-studio-projects/UdpServer/obj/../User/system_ch32v30x.c:558
  __IO uint32_t StartUpCounter = 0, HSEStatus = 0;
    11e2:	c402                	sw	zero,8(sp)
    11e4:	c602                	sw	zero,12(sp)
/home/randy/mounriver-studio-projects/UdpServer/obj/../User/system_ch32v30x.c:560
  RCC->CTLR |= ((uint32_t)RCC_HSEON);
    11e6:	4398                	lw	a4,0(a5)
    11e8:	66c1                	lui	a3,0x10
    11ea:	8f55                	or	a4,a4,a3
    11ec:	c398                	sw	a4,0(a5)
/home/randy/mounriver-studio-projects/UdpServer/obj/../User/system_ch32v30x.c:565
    HSEStatus = RCC->CTLR & RCC_HSERDY;
    11ee:	400216b7          	lui	a3,0x40021
/home/randy/mounriver-studio-projects/UdpServer/obj/../User/system_ch32v30x.c:567
    StartUpCounter++;
  } while((HSEStatus == 0) && (StartUpCounter != HSE_STARTUP_TIMEOUT));
    11f2:	6705                	lui	a4,0x1
/home/randy/mounriver-studio-projects/UdpServer/obj/../User/system_ch32v30x.c:565
    HSEStatus = RCC->CTLR & RCC_HSERDY;
    11f4:	429c                	lw	a5,0(a3)
    11f6:	8ff1                	and	a5,a5,a2
    11f8:	c63e                	sw	a5,12(sp)
/home/randy/mounriver-studio-projects/UdpServer/obj/../User/system_ch32v30x.c:566
    StartUpCounter++;
    11fa:	47a2                	lw	a5,8(sp)
    11fc:	0785                	addi	a5,a5,1
    11fe:	c43e                	sw	a5,8(sp)
/home/randy/mounriver-studio-projects/UdpServer/obj/../User/system_ch32v30x.c:567
  } while((HSEStatus == 0) && (StartUpCounter != HSE_STARTUP_TIMEOUT));
    1200:	47b2                	lw	a5,12(sp)
    1202:	e781                	bnez	a5,120a <SystemInit+0x7e>
    1204:	47a2                	lw	a5,8(sp)
    1206:	fee797e3          	bne	a5,a4,11f4 <SystemInit+0x68>
/home/randy/mounriver-studio-projects/UdpServer/obj/../User/system_ch32v30x.c:569

  if ((RCC->CTLR & RCC_HSERDY) != RESET)
    120a:	400217b7          	lui	a5,0x40021
    120e:	439c                	lw	a5,0(a5)
    1210:	00e79713          	slli	a4,a5,0xe
    1214:	06075763          	bgez	a4,1282 <SystemInit+0xf6>
/home/randy/mounriver-studio-projects/UdpServer/obj/../User/system_ch32v30x.c:571
  {
    HSEStatus = (uint32_t)0x01;
    1218:	4785                	li	a5,1
    121a:	c63e                	sw	a5,12(sp)
/home/randy/mounriver-studio-projects/UdpServer/obj/../User/system_ch32v30x.c:578
  else
  {
    HSEStatus = (uint32_t)0x00;
  }

  if (HSEStatus == (uint32_t)0x01)
    121c:	4732                	lw	a4,12(sp)
    121e:	4785                	li	a5,1
    1220:	04f71f63          	bne	a4,a5,127e <SystemInit+0xf2>
/home/randy/mounriver-studio-projects/UdpServer/obj/../User/system_ch32v30x.c:581
  {
    /* HCLK = SYSCLK */
    RCC->CFGR0 |= (uint32_t)RCC_HPRE_DIV1;
    1224:	400217b7          	lui	a5,0x40021
    1228:	43d8                	lw	a4,4(a5)
/home/randy/mounriver-studio-projects/UdpServer/obj/../User/system_ch32v30x.c:588
    RCC->CFGR0 |= (uint32_t)RCC_PPRE2_DIV1;
    /* PCLK1 = HCLK */
    RCC->CFGR0 |= (uint32_t)RCC_PPRE1_DIV2;

    /*  PLL configuration: PLLCLK = HSE * 12 = 96 MHz */
    RCC->CFGR0 &= (uint32_t)((uint32_t)~(RCC_PLLSRC | RCC_PLLXTPRE |
    122a:	ffc106b7          	lui	a3,0xffc10
    122e:	16fd                	addi	a3,a3,-1
/home/randy/mounriver-studio-projects/UdpServer/obj/../User/system_ch32v30x.c:581
    RCC->CFGR0 |= (uint32_t)RCC_HPRE_DIV1;
    1230:	c3d8                	sw	a4,4(a5)
/home/randy/mounriver-studio-projects/UdpServer/obj/../User/system_ch32v30x.c:583
    RCC->CFGR0 |= (uint32_t)RCC_PPRE2_DIV1;
    1232:	43d8                	lw	a4,4(a5)
    1234:	c3d8                	sw	a4,4(a5)
/home/randy/mounriver-studio-projects/UdpServer/obj/../User/system_ch32v30x.c:585
    RCC->CFGR0 |= (uint32_t)RCC_PPRE1_DIV2;
    1236:	43d8                	lw	a4,4(a5)
    1238:	40076713          	ori	a4,a4,1024
    123c:	c3d8                	sw	a4,4(a5)
/home/randy/mounriver-studio-projects/UdpServer/obj/../User/system_ch32v30x.c:588
    RCC->CFGR0 &= (uint32_t)((uint32_t)~(RCC_PLLSRC | RCC_PLLXTPRE |
    123e:	43d8                	lw	a4,4(a5)
    1240:	8f75                	and	a4,a4,a3
    1242:	c3d8                	sw	a4,4(a5)
/home/randy/mounriver-studio-projects/UdpServer/obj/../User/system_ch32v30x.c:594
                                        RCC_PLLMULL));

#ifdef CH32V30x_D8
        RCC->CFGR0 |= (uint32_t)(RCC_PLLSRC_HSE | RCC_PLLXTPRE_HSE | RCC_PLLMULL12);
#else
        RCC->CFGR0 |= (uint32_t)(RCC_PLLSRC_HSE | RCC_PLLXTPRE_HSE | RCC_PLLMULL12_EXTEN);
    1244:	43d8                	lw	a4,4(a5)
    1246:	002906b7          	lui	a3,0x290
    124a:	8f55                	or	a4,a4,a3
    124c:	c3d8                	sw	a4,4(a5)
/home/randy/mounriver-studio-projects/UdpServer/obj/../User/system_ch32v30x.c:598
#endif

    /* Enable PLL */
    RCC->CTLR |= RCC_PLLON;
    124e:	4398                	lw	a4,0(a5)
    1250:	010006b7          	lui	a3,0x1000
    1254:	8f55                	or	a4,a4,a3
    1256:	c398                	sw	a4,0(a5)
/home/randy/mounriver-studio-projects/UdpServer/obj/../User/system_ch32v30x.c:600
    /* Wait till PLL is ready */
    while((RCC->CTLR & RCC_PLLRDY) == 0)
    1258:	4398                	lw	a4,0(a5)
    125a:	00671693          	slli	a3,a4,0x6
    125e:	fe06dde3          	bgez	a3,1258 <SystemInit+0xcc>
/home/randy/mounriver-studio-projects/UdpServer/obj/../User/system_ch32v30x.c:604
    {
    }
    /* Select PLL as system clock source */
    RCC->CFGR0 &= (uint32_t)((uint32_t)~(RCC_SW));
    1262:	43d8                	lw	a4,4(a5)
/home/randy/mounriver-studio-projects/UdpServer/obj/../User/system_ch32v30x.c:607
    RCC->CFGR0 |= (uint32_t)RCC_SW_PLL;
    /* Wait till PLL is used as system clock source */
    while ((RCC->CFGR0 & (uint32_t)RCC_SWS) != (uint32_t)0x08)
    1264:	400216b7          	lui	a3,0x40021
/home/randy/mounriver-studio-projects/UdpServer/obj/../User/system_ch32v30x.c:604
    RCC->CFGR0 &= (uint32_t)((uint32_t)~(RCC_SW));
    1268:	9b71                	andi	a4,a4,-4
    126a:	c3d8                	sw	a4,4(a5)
/home/randy/mounriver-studio-projects/UdpServer/obj/../User/system_ch32v30x.c:605
    RCC->CFGR0 |= (uint32_t)RCC_SW_PLL;
    126c:	43d8                	lw	a4,4(a5)
    126e:	00276713          	ori	a4,a4,2
    1272:	c3d8                	sw	a4,4(a5)
/home/randy/mounriver-studio-projects/UdpServer/obj/../User/system_ch32v30x.c:607
    while ((RCC->CFGR0 & (uint32_t)RCC_SWS) != (uint32_t)0x08)
    1274:	4721                	li	a4,8
    1276:	42dc                	lw	a5,4(a3)
    1278:	8bb1                	andi	a5,a5,12
    127a:	fee79ee3          	bne	a5,a4,1276 <SystemInit+0xea>
SystemInit():
/home/randy/mounriver-studio-projects/UdpServer/obj/../User/system_ch32v30x.c:129
}
    127e:	0141                	addi	sp,sp,16
    1280:	8082                	ret
SetSysClockTo96_HSE():
/home/randy/mounriver-studio-projects/UdpServer/obj/../User/system_ch32v30x.c:575
    HSEStatus = (uint32_t)0x00;
    1282:	c602                	sw	zero,12(sp)
    1284:	bf61                	j	121c <SystemInit+0x90>

00001286 <SystemCoreClockUpdate>:
SystemCoreClockUpdate():
/home/randy/mounriver-studio-projects/UdpServer/obj/../User/system_ch32v30x.c:148
  tmp = RCC->CFGR0 & RCC_SWS;
    1286:	400216b7          	lui	a3,0x40021
    128a:	42d8                	lw	a4,4(a3)
    128c:	4611                	li	a2,4
    128e:	8b31                	andi	a4,a4,12
/home/randy/mounriver-studio-projects/UdpServer/obj/../User/system_ch32v30x.c:150
  switch (tmp)
    1290:	81c18793          	addi	a5,gp,-2020 # 2000023c <SystemCoreClock>
    1294:	00c70563          	beq	a4,a2,129e <SystemCoreClockUpdate+0x18>
    1298:	4621                	li	a2,8
    129a:	02c70863          	beq	a4,a2,12ca <SystemCoreClockUpdate+0x44>
/home/randy/mounriver-studio-projects/UdpServer/obj/../User/system_ch32v30x.c:153
      SystemCoreClock = HSI_VALUE;
    129e:	007a1737          	lui	a4,0x7a1
    12a2:	20070713          	addi	a4,a4,512 # 7a1200 <_data_lma+0x79739c>
/home/randy/mounriver-studio-projects/UdpServer/obj/../User/system_ch32v30x.c:215 (discriminator 1)
      if(Pll_6_5 == 1) SystemCoreClock = (SystemCoreClock / 2);
    12a6:	c398                	sw	a4,0(a5)
/home/randy/mounriver-studio-projects/UdpServer/obj/../User/system_ch32v30x.c:223
  tmp = AHBPrescTable[((RCC->CFGR0 & RCC_HPRE) >> 4)];
    12a8:	40021737          	lui	a4,0x40021
    12ac:	4358                	lw	a4,4(a4)
    12ae:	8311                	srli	a4,a4,0x4
    12b0:	00f77693          	andi	a3,a4,15
    12b4:	20000737          	lui	a4,0x20000
    12b8:	03070713          	addi	a4,a4,48 # 20000030 <AHBPrescTable>
    12bc:	9736                	add	a4,a4,a3
    12be:	2314                	lbu	a3,0(a4)
/home/randy/mounriver-studio-projects/UdpServer/obj/../User/system_ch32v30x.c:224
  SystemCoreClock >>= tmp; 
    12c0:	4398                	lw	a4,0(a5)
    12c2:	00d75733          	srl	a4,a4,a3
    12c6:	c398                	sw	a4,0(a5)
/home/randy/mounriver-studio-projects/UdpServer/obj/../User/system_ch32v30x.c:225
}
    12c8:	8082                	ret
/home/randy/mounriver-studio-projects/UdpServer/obj/../User/system_ch32v30x.c:159
      pllmull = RCC->CFGR0 & RCC_PLLMULL;
    12ca:	42d8                	lw	a4,4(a3)
/home/randy/mounriver-studio-projects/UdpServer/obj/../User/system_ch32v30x.c:160
      pllsource = RCC->CFGR0 & RCC_PLLSRC; 
    12cc:	42d4                	lw	a3,4(a3)
    12ce:	6641                	lui	a2,0x10
/home/randy/mounriver-studio-projects/UdpServer/obj/../User/system_ch32v30x.c:161
      pllmull = ( pllmull >> 18) + 2;
    12d0:	8349                	srli	a4,a4,0x12
    12d2:	8b3d                	andi	a4,a4,15
/home/randy/mounriver-studio-projects/UdpServer/obj/../User/system_ch32v30x.c:160
      pllsource = RCC->CFGR0 & RCC_PLLSRC; 
    12d4:	8ef1                	and	a3,a3,a2
/home/randy/mounriver-studio-projects/UdpServer/obj/../User/system_ch32v30x.c:166
      if(pllmull == 2) pllmull = 18;
    12d6:	00270613          	addi	a2,a4,2
    12da:	cf15                	beqz	a4,1316 <SystemCoreClockUpdate+0x90>
/home/randy/mounriver-studio-projects/UdpServer/obj/../User/system_ch32v30x.c:167
      if(pllmull == 15){
    12dc:	473d                	li	a4,15
    12de:	02e60f63          	beq	a2,a4,131c <SystemCoreClockUpdate+0x96>
/home/randy/mounriver-studio-projects/UdpServer/obj/../User/system_ch32v30x.c:171
      if(pllmull == 16) pllmull = 15;
    12e2:	4741                	li	a4,16
    12e4:	02e60f63          	beq	a2,a4,1322 <SystemCoreClockUpdate+0x9c>
/home/randy/mounriver-studio-projects/UdpServer/obj/../User/system_ch32v30x.c:172
      if(pllmull == 17) pllmull = 16;
    12e8:	4745                	li	a4,17
    12ea:	4581                	li	a1,0
    12ec:	00e61363          	bne	a2,a4,12f2 <SystemCoreClockUpdate+0x6c>
    12f0:	4641                	li	a2,16
/home/randy/mounriver-studio-projects/UdpServer/obj/../User/system_ch32v30x.c:175
      if (pllsource == 0x00)
    12f2:	e2a1                	bnez	a3,1332 <SystemCoreClockUpdate+0xac>
/home/randy/mounriver-studio-projects/UdpServer/obj/../User/system_ch32v30x.c:177
          if(EXTEN->EXTEN_CTR & EXTEN_PLL_HSI_PRE) SystemCoreClock = HSI_VALUE * pllmull;
    12f4:	40024737          	lui	a4,0x40024
    12f8:	80072703          	lw	a4,-2048(a4) # 40023800 <_eusrstack+0x20013800>
    12fc:	8b41                	andi	a4,a4,16
    12fe:	c70d                	beqz	a4,1328 <SystemCoreClockUpdate+0xa2>
/home/randy/mounriver-studio-projects/UdpServer/obj/../User/system_ch32v30x.c:177 (discriminator 1)
    1300:	007a1737          	lui	a4,0x7a1
    1304:	20070713          	addi	a4,a4,512 # 7a1200 <_data_lma+0x79739c>
/home/randy/mounriver-studio-projects/UdpServer/obj/../User/system_ch32v30x.c:210
          SystemCoreClock = SystemCoreClock * pllmull;
    1308:	02c70633          	mul	a2,a4,a2
    130c:	c390                	sw	a2,0(a5)
/home/randy/mounriver-studio-projects/UdpServer/obj/../User/system_ch32v30x.c:215
      if(Pll_6_5 == 1) SystemCoreClock = (SystemCoreClock / 2);
    130e:	ddc9                	beqz	a1,12a8 <SystemCoreClockUpdate+0x22>
/home/randy/mounriver-studio-projects/UdpServer/obj/../User/system_ch32v30x.c:215 (discriminator 1)
    1310:	4398                	lw	a4,0(a5)
    1312:	8305                	srli	a4,a4,0x1
    1314:	bf49                	j	12a6 <SystemCoreClockUpdate+0x20>
    1316:	4581                	li	a1,0
/home/randy/mounriver-studio-projects/UdpServer/obj/../User/system_ch32v30x.c:166
      if(pllmull == 2) pllmull = 18;
    1318:	4649                	li	a2,18
    131a:	bfe1                	j	12f2 <SystemCoreClockUpdate+0x6c>
/home/randy/mounriver-studio-projects/UdpServer/obj/../User/system_ch32v30x.c:169
          Pll_6_5 = 1;
    131c:	4585                	li	a1,1
/home/randy/mounriver-studio-projects/UdpServer/obj/../User/system_ch32v30x.c:168
          pllmull = 13;  /* *6.5 */
    131e:	4635                	li	a2,13
    1320:	bfc9                	j	12f2 <SystemCoreClockUpdate+0x6c>
    1322:	4581                	li	a1,0
/home/randy/mounriver-studio-projects/UdpServer/obj/../User/system_ch32v30x.c:171
      if(pllmull == 16) pllmull = 15;
    1324:	463d                	li	a2,15
    1326:	b7f1                	j	12f2 <SystemCoreClockUpdate+0x6c>
/home/randy/mounriver-studio-projects/UdpServer/obj/../User/system_ch32v30x.c:178
          else SystemCoreClock = (HSI_VALUE >> 1) * pllmull;
    1328:	003d1737          	lui	a4,0x3d1
    132c:	90070713          	addi	a4,a4,-1792 # 3d0900 <_data_lma+0x3c6a9c>
    1330:	bfe1                	j	1308 <SystemCoreClockUpdate+0x82>
/home/randy/mounriver-studio-projects/UdpServer/obj/../User/system_ch32v30x.c:194
          if(RCC->CFGR2 & (1<<16)){ /* PLL2 */
    1332:	40021537          	lui	a0,0x40021
    1336:	5558                	lw	a4,44(a0)
    1338:	00f71693          	slli	a3,a4,0xf
/home/randy/mounriver-studio-projects/UdpServer/obj/../User/system_ch32v30x.c:195
              SystemCoreClock = HSE_VALUE/(((RCC->CFGR2 & 0xF0)>>4) + 1);  /* PREDIV2 */
    133c:	5558                	lw	a4,44(a0)
/home/randy/mounriver-studio-projects/UdpServer/obj/../User/system_ch32v30x.c:194
          if(RCC->CFGR2 & (1<<16)){ /* PLL2 */
    133e:	0406df63          	bgez	a3,139c <SystemCoreClockUpdate+0x116>
/home/randy/mounriver-studio-projects/UdpServer/obj/../User/system_ch32v30x.c:195
              SystemCoreClock = HSE_VALUE/(((RCC->CFGR2 & 0xF0)>>4) + 1);  /* PREDIV2 */
    1342:	8311                	srli	a4,a4,0x4
    1344:	8b3d                	andi	a4,a4,15
    1346:	00170693          	addi	a3,a4,1
    134a:	007a1737          	lui	a4,0x7a1
    134e:	20070713          	addi	a4,a4,512 # 7a1200 <_data_lma+0x79739c>
    1352:	02d75733          	divu	a4,a4,a3
    1356:	c398                	sw	a4,0(a5)
/home/randy/mounriver-studio-projects/UdpServer/obj/../User/system_ch32v30x.c:197
              Pll2mull = (uint8_t)((RCC->CFGR2 & 0xF00)>>8);
    1358:	5554                	lw	a3,44(a0)
    135a:	82a1                	srli	a3,a3,0x8
    135c:	8abd                	andi	a3,a3,15
/home/randy/mounriver-studio-projects/UdpServer/obj/../User/system_ch32v30x.c:199
              if(Pll2mull == 0) SystemCoreClock = (SystemCoreClock * 5)>>1;
    135e:	e28d                	bnez	a3,1380 <SystemCoreClockUpdate+0xfa>
/home/randy/mounriver-studio-projects/UdpServer/obj/../User/system_ch32v30x.c:199 (discriminator 1)
    1360:	4695                	li	a3,5
/home/randy/mounriver-studio-projects/UdpServer/obj/../User/system_ch32v30x.c:200 (discriminator 1)
              else if(Pll2mull == 1) SystemCoreClock = (SystemCoreClock * 25)>>1;
    1362:	02d70733          	mul	a4,a4,a3
    1366:	8305                	srli	a4,a4,0x1
/home/randy/mounriver-studio-projects/UdpServer/obj/../User/system_ch32v30x.c:202
              else  SystemCoreClock = SystemCoreClock * (Pll2mull + 2);
    1368:	c398                	sw	a4,0(a5)
/home/randy/mounriver-studio-projects/UdpServer/obj/../User/system_ch32v30x.c:204
              SystemCoreClock = SystemCoreClock/((RCC->CFGR2 & 0xF) + 1);  /* PREDIV1 */
    136a:	40021737          	lui	a4,0x40021
    136e:	5758                	lw	a4,44(a4)
    1370:	4394                	lw	a3,0(a5)
    1372:	8b3d                	andi	a4,a4,15
    1374:	0705                	addi	a4,a4,1
    1376:	02e6d733          	divu	a4,a3,a4
/home/randy/mounriver-studio-projects/UdpServer/obj/../User/system_ch32v30x.c:207
              SystemCoreClock = HSE_VALUE/((RCC->CFGR2 & 0xF) + 1);  /* PREDIV1 */
    137a:	c398                	sw	a4,0(a5)
/home/randy/mounriver-studio-projects/UdpServer/obj/../User/system_ch32v30x.c:210
          SystemCoreClock = SystemCoreClock * pllmull;
    137c:	4398                	lw	a4,0(a5)
    137e:	b769                	j	1308 <SystemCoreClockUpdate+0x82>
/home/randy/mounriver-studio-projects/UdpServer/obj/../User/system_ch32v30x.c:200
              else if(Pll2mull == 1) SystemCoreClock = (SystemCoreClock * 25)>>1;
    1380:	4505                	li	a0,1
    1382:	00a69463          	bne	a3,a0,138a <SystemCoreClockUpdate+0x104>
/home/randy/mounriver-studio-projects/UdpServer/obj/../User/system_ch32v30x.c:200 (discriminator 1)
    1386:	46e5                	li	a3,25
    1388:	bfe9                	j	1362 <SystemCoreClockUpdate+0xdc>
/home/randy/mounriver-studio-projects/UdpServer/obj/../User/system_ch32v30x.c:201
              else if(Pll2mull == 15) SystemCoreClock = SystemCoreClock * 20;
    138a:	453d                	li	a0,15
    138c:	00a69663          	bne	a3,a0,1398 <SystemCoreClockUpdate+0x112>
/home/randy/mounriver-studio-projects/UdpServer/obj/../User/system_ch32v30x.c:201 (discriminator 1)
    1390:	46d1                	li	a3,20
/home/randy/mounriver-studio-projects/UdpServer/obj/../User/system_ch32v30x.c:202
              else  SystemCoreClock = SystemCoreClock * (Pll2mull + 2);
    1392:	02e68733          	mul	a4,a3,a4
    1396:	bfc9                	j	1368 <SystemCoreClockUpdate+0xe2>
    1398:	0689                	addi	a3,a3,2
    139a:	bfe5                	j	1392 <SystemCoreClockUpdate+0x10c>
/home/randy/mounriver-studio-projects/UdpServer/obj/../User/system_ch32v30x.c:207
              SystemCoreClock = HSE_VALUE/((RCC->CFGR2 & 0xF) + 1);  /* PREDIV1 */
    139c:	8b3d                	andi	a4,a4,15
    139e:	00170693          	addi	a3,a4,1 # 40021001 <_eusrstack+0x20011001>
    13a2:	007a1737          	lui	a4,0x7a1
    13a6:	20070713          	addi	a4,a4,512 # 7a1200 <_data_lma+0x79739c>
    13aa:	02d75733          	divu	a4,a4,a3
    13ae:	b7f1                	j	137a <SystemCoreClockUpdate+0xf4>

000013b0 <Timebase_Init>:
Timebase_Init():
/home/randy/mounriver-studio-projects/UdpServer/obj/../User/timebase.c:15
 * @brief   Initializes TIM3 for use with button and encoder debounce functions.
 *
 * @return  none
 */
void Timebase_Init(void)
{
    13b0:	e41fe2ef          	jal	t0,1f0 <__riscv_save_0>
    13b4:	1141                	addi	sp,sp,-16
/home/randy/mounriver-studio-projects/UdpServer/obj/../User/timebase.c:16
    RCC_APB1PeriphClockCmd(RCC_APB1Periph_TIM3, ENABLE);
    13b6:	4585                	li	a1,1
    13b8:	4509                	li	a0,2
    13ba:	2b99                	jal	1910 <RCC_APB1PeriphClockCmd>
/home/randy/mounriver-studio-projects/UdpServer/obj/../User/timebase.c:19

    TIM_TimeBaseInitTypeDef tim;
    TIM_TimeBaseStructInit(&tim);
    13bc:	0048                	addi	a0,sp,4
    13be:	2575                	jal	1a6a <TIM_TimeBaseStructInit>
/home/randy/mounriver-studio-projects/UdpServer/obj/../User/timebase.c:23

    uint32_t timer_clk = SystemCoreClock / 2;

    tim.TIM_Prescaler     = (timer_clk / 10000) - 1;   // 10kHz
    13c0:	81c1a783          	lw	a5,-2020(gp) # 2000023c <SystemCoreClock>
    13c4:	6715                	lui	a4,0x5
    13c6:	e2070713          	addi	a4,a4,-480 # 4e20 <tcp_bind+0xd0>
    13ca:	02e7d7b3          	divu	a5,a5,a4
/home/randy/mounriver-studio-projects/UdpServer/obj/../User/timebase.c:28
    tim.TIM_Period        = 10 - 1;                     // 1ms overflow
    tim.TIM_CounterMode   = TIM_CounterMode_Up;
    tim.TIM_ClockDivision = TIM_CKD_DIV1;

    TIM_TimeBaseInit(TIM3, &tim);
    13ce:	40000437          	lui	s0,0x40000
    13d2:	004c                	addi	a1,sp,4
    13d4:	40040513          	addi	a0,s0,1024 # 40000400 <_eusrstack+0x1fff0400>
/home/randy/mounriver-studio-projects/UdpServer/obj/../User/timebase.c:25
    tim.TIM_CounterMode   = TIM_CounterMode_Up;
    13d8:	00011323          	sh	zero,6(sp)
/home/randy/mounriver-studio-projects/UdpServer/obj/../User/timebase.c:23
    tim.TIM_Prescaler     = (timer_clk / 10000) - 1;   // 10kHz
    13dc:	17fd                	addi	a5,a5,-1
    13de:	827c                	sh	a5,4(sp)
/home/randy/mounriver-studio-projects/UdpServer/obj/../User/timebase.c:24
    tim.TIM_Period        = 10 - 1;                     // 1ms overflow
    13e0:	47a5                	li	a5,9
    13e2:	c43e                	sw	a5,8(sp)
/home/randy/mounriver-studio-projects/UdpServer/obj/../User/timebase.c:28
    TIM_TimeBaseInit(TIM3, &tim);
    13e4:	2bf1                	jal	19c0 <TIM_TimeBaseInit>
/home/randy/mounriver-studio-projects/UdpServer/obj/../User/timebase.c:30

    TIM_ClearFlag(TIM3, TIM_FLAG_Update);
    13e6:	40040513          	addi	a0,s0,1024
    13ea:	4585                	li	a1,1
    13ec:	25e1                	jal	1ab4 <TIM_ClearFlag>
/home/randy/mounriver-studio-projects/UdpServer/obj/../User/timebase.c:31
    TIM_Cmd(TIM3, ENABLE);
    13ee:	4585                	li	a1,1
    13f0:	40040513          	addi	a0,s0,1024
    13f4:	2571                	jal	1a80 <TIM_Cmd>
/home/randy/mounriver-studio-projects/UdpServer/obj/../User/timebase.c:32
}
    13f6:	0141                	addi	sp,sp,16
    13f8:	e1dfe06f          	j	214 <__riscv_restore_0>

000013fc <millis>:
millis():
/home/randy/mounriver-studio-projects/UdpServer/obj/../User/timebase.c:42
 * @brief   Creates a millisecond timer.
 *
 * @return  Count in milliseconds
 */
uint32_t millis(void)
{
    13fc:	df5fe2ef          	jal	t0,1f0 <__riscv_save_0>
/home/randy/mounriver-studio-projects/UdpServer/obj/../User/timebase.c:43
    if (TIM_GetFlagStatus(TIM3, TIM_FLAG_Update) != RESET)
    1400:	400004b7          	lui	s1,0x40000
    1404:	4585                	li	a1,1
    1406:	40048513          	addi	a0,s1,1024 # 40000400 <_eusrstack+0x1fff0400>
    140a:	2545                	jal	1aaa <TIM_GetFlagStatus>
    140c:	86c18413          	addi	s0,gp,-1940 # 2000028c <g_msTicks>
    1410:	c901                	beqz	a0,1420 <millis+0x24>
/home/randy/mounriver-studio-projects/UdpServer/obj/../User/timebase.c:45
    {
        TIM_ClearFlag(TIM3, TIM_FLAG_Update);
    1412:	4585                	li	a1,1
    1414:	40048513          	addi	a0,s1,1024
    1418:	2d71                	jal	1ab4 <TIM_ClearFlag>
/home/randy/mounriver-studio-projects/UdpServer/obj/../User/timebase.c:46
        g_msTicks++;
    141a:	401c                	lw	a5,0(s0)
    141c:	0785                	addi	a5,a5,1
    141e:	c01c                	sw	a5,0(s0)
/home/randy/mounriver-studio-projects/UdpServer/obj/../User/timebase.c:49
    }

    return g_msTicks;
    1420:	4008                	lw	a0,0(s0)
/home/randy/mounriver-studio-projects/UdpServer/obj/../User/timebase.c:50
}
    1422:	df3fe06f          	j	214 <__riscv_restore_0>

00001426 <ADC1_2_IRQHandler>:
EXTI2_IRQHandler():
/home/randy/mounriver-studio-projects/UdpServer/obj/../Startup/startup_ch32v30x_D8C.S:321
DMA2_Channel8_IRQHandler:
DMA2_Channel9_IRQHandler:
DMA2_Channel10_IRQHandler:
DMA2_Channel11_IRQHandler:
1:
	j 1b
    1426:	a001                	j	1426 <ADC1_2_IRQHandler>

00001428 <handle_reset>:
handle_reset():
/home/randy/mounriver-studio-projects/UdpServer/obj/../Startup/startup_ch32v30x_D8C.S:329
	.weak	handle_reset
	.align	1
handle_reset:
.option push 
.option	norelax 
	la gp, __global_pointer$
    1428:	1ffff197          	auipc	gp,0x1ffff
    142c:	5f818193          	addi	gp,gp,1528 # 20000a20 <__global_pointer$>
/home/randy/mounriver-studio-projects/UdpServer/obj/../Startup/startup_ch32v30x_D8C.S:332
.option	pop 

	la sp, _eusrstack 
    1430:	2000f117          	auipc	sp,0x2000f
    1434:	bd010113          	addi	sp,sp,-1072 # 20010000 <_eusrstack>
/home/randy/mounriver-studio-projects/UdpServer/obj/../Startup/startup_ch32v30x_D8C.S:335

/* Load data section from flash to RAM */
	la a0, _data_lma
    1438:	00009517          	auipc	a0,0x9
    143c:	a2c50513          	addi	a0,a0,-1492 # 9e64 <_data_lma>
/home/randy/mounriver-studio-projects/UdpServer/obj/../Startup/startup_ch32v30x_D8C.S:336
	la a1, _data_vma
    1440:	1ffff597          	auipc	a1,0x1ffff
    1444:	bc058593          	addi	a1,a1,-1088 # 20000000 <_data_vma>
/home/randy/mounriver-studio-projects/UdpServer/obj/../Startup/startup_ch32v30x_D8C.S:337
	la a2, _edata
    1448:	86018613          	addi	a2,gp,-1952 # 20000280 <_edata>
/home/randy/mounriver-studio-projects/UdpServer/obj/../Startup/startup_ch32v30x_D8C.S:338
	bgeu a1, a2, 2f
    144c:	00c5fa63          	bgeu	a1,a2,1460 <handle_reset+0x38>
/home/randy/mounriver-studio-projects/UdpServer/obj/../Startup/startup_ch32v30x_D8C.S:340
1:
	lw t0, (a0)
    1450:	00052283          	lw	t0,0(a0)
/home/randy/mounriver-studio-projects/UdpServer/obj/../Startup/startup_ch32v30x_D8C.S:341
	sw t0, (a1)
    1454:	0055a023          	sw	t0,0(a1)
/home/randy/mounriver-studio-projects/UdpServer/obj/../Startup/startup_ch32v30x_D8C.S:342
	addi a0, a0, 4
    1458:	0511                	addi	a0,a0,4
/home/randy/mounriver-studio-projects/UdpServer/obj/../Startup/startup_ch32v30x_D8C.S:343
	addi a1, a1, 4
    145a:	0591                	addi	a1,a1,4
/home/randy/mounriver-studio-projects/UdpServer/obj/../Startup/startup_ch32v30x_D8C.S:344
	bltu a1, a2, 1b
    145c:	fec5eae3          	bltu	a1,a2,1450 <handle_reset+0x28>
/home/randy/mounriver-studio-projects/UdpServer/obj/../Startup/startup_ch32v30x_D8C.S:347
2:
/* Clear bss section */
	la a0, _sbss
    1460:	86018513          	addi	a0,gp,-1952 # 20000280 <_edata>
/home/randy/mounriver-studio-projects/UdpServer/obj/../Startup/startup_ch32v30x_D8C.S:348
	la a1, _ebss
    1464:	20005597          	auipc	a1,0x20005
    1468:	34858593          	addi	a1,a1,840 # 200067ac <_ebss>
/home/randy/mounriver-studio-projects/UdpServer/obj/../Startup/startup_ch32v30x_D8C.S:349
	bgeu a0, a1, 2f
    146c:	00b57763          	bgeu	a0,a1,147a <handle_reset+0x52>
/home/randy/mounriver-studio-projects/UdpServer/obj/../Startup/startup_ch32v30x_D8C.S:351
1:
	sw zero, (a0)
    1470:	00052023          	sw	zero,0(a0)
/home/randy/mounriver-studio-projects/UdpServer/obj/../Startup/startup_ch32v30x_D8C.S:352
	addi a0, a0, 4
    1474:	0511                	addi	a0,a0,4
/home/randy/mounriver-studio-projects/UdpServer/obj/../Startup/startup_ch32v30x_D8C.S:353
	bltu a0, a1, 1b
    1476:	feb56de3          	bltu	a0,a1,1470 <handle_reset+0x48>
/home/randy/mounriver-studio-projects/UdpServer/obj/../Startup/startup_ch32v30x_D8C.S:356
2:
/* Configure pipelining and instruction prediction */
    li t0, 0x1f
    147a:	42fd                	li	t0,31
/home/randy/mounriver-studio-projects/UdpServer/obj/../Startup/startup_ch32v30x_D8C.S:357
    csrw 0xbc0, t0
    147c:	bc029073          	csrw	0xbc0,t0
/home/randy/mounriver-studio-projects/UdpServer/obj/../Startup/startup_ch32v30x_D8C.S:359
/* Enable interrupt nesting and hardware stack */
	li t0, 0x0b
    1480:	42ad                	li	t0,11
/home/randy/mounriver-studio-projects/UdpServer/obj/../Startup/startup_ch32v30x_D8C.S:360
	csrw 0x804, t0
    1482:	80429073          	csrw	0x804,t0
/home/randy/mounriver-studio-projects/UdpServer/obj/../Startup/startup_ch32v30x_D8C.S:362
/* Enable floating point and global interrupt, configure privileged mode */
   	li t0, 0x6088           
    1486:	000062b7          	lui	t0,0x6
    148a:	08828293          	addi	t0,t0,136 # 6088 <tcp_input+0x2ae>
/home/randy/mounriver-studio-projects/UdpServer/obj/../Startup/startup_ch32v30x_D8C.S:363
   	csrw mstatus, t0
    148e:	30029073          	csrw	mstatus,t0
/home/randy/mounriver-studio-projects/UdpServer/obj/../Startup/startup_ch32v30x_D8C.S:365
/* Configure the interrupt vector table recognition mode and entry address mode */
 	la t0, _vector_base
    1492:	fffff297          	auipc	t0,0xfffff
    1496:	b7228293          	addi	t0,t0,-1166 # 4 <_einit>
/home/randy/mounriver-studio-projects/UdpServer/obj/../Startup/startup_ch32v30x_D8C.S:366
    ori t0, t0, 3           
    149a:	0032e293          	ori	t0,t0,3
/home/randy/mounriver-studio-projects/UdpServer/obj/../Startup/startup_ch32v30x_D8C.S:367
	csrw mtvec, t0
    149e:	30529073          	csrw	mtvec,t0
/home/randy/mounriver-studio-projects/UdpServer/obj/../Startup/startup_ch32v30x_D8C.S:369

    jal  SystemInit
    14a2:	cebff0ef          	jal	ra,118c <SystemInit>
/home/randy/mounriver-studio-projects/UdpServer/obj/../Startup/startup_ch32v30x_D8C.S:370
	la t0, main
    14a6:	00000297          	auipc	t0,0x0
    14aa:	b7028293          	addi	t0,t0,-1168 # 1016 <main>
/home/randy/mounriver-studio-projects/UdpServer/obj/../Startup/startup_ch32v30x_D8C.S:371
	csrw mepc, t0
    14ae:	34129073          	csrw	mepc,t0
/home/randy/mounriver-studio-projects/UdpServer/obj/../Startup/startup_ch32v30x_D8C.S:372
	mret
    14b2:	30200073          	mret

000014b6 <DBGMCU_GetCHIPID>:
DBGMCU_GetCHIPID():
/home/randy/mounriver-studio-projects/UdpServer/obj/../Peripheral/src/ch32v30x_dbgmcu.c:128
 *          CH32V317TCU6-0x3175B5X8
 */
uint32_t DBGMCU_GetCHIPID( void )
{
    return( *( uint32_t * )0x1FFFF704 );
}
    14b6:	1ffff7b7          	lui	a5,0x1ffff
    14ba:	7047a503          	lw	a0,1796(a5) # 1ffff704 <_data_lma+0x1fff58a0>
    14be:	8082                	ret

000014c0 <ETH_DeInit>:
ETH_DeInit():
/home/randy/mounriver-studio-projects/UdpServer/obj/../Peripheral/src/ch32v30x_eth.c:29
 *
 * @return  none
 */
#ifdef CH32V30x_D8C
void ETH_DeInit(void)
{
    14c0:	d31fe2ef          	jal	t0,1f0 <__riscv_save_0>
/home/randy/mounriver-studio-projects/UdpServer/obj/../Peripheral/src/ch32v30x_eth.c:30
    RCC_AHBPeriphResetCmd(RCC_AHBPeriph_ETH_MAC, ENABLE);
    14c4:	4585                	li	a1,1
    14c6:	6511                	lui	a0,0x4
    14c8:	29e9                	jal	19a2 <RCC_AHBPeriphResetCmd>
/home/randy/mounriver-studio-projects/UdpServer/obj/../Peripheral/src/ch32v30x_eth.c:31
    RCC_AHBPeriphResetCmd(RCC_AHBPeriph_ETH_MAC, DISABLE);
    14ca:	4581                	li	a1,0
    14cc:	6511                	lui	a0,0x4
    14ce:	29d1                	jal	19a2 <RCC_AHBPeriphResetCmd>
/home/randy/mounriver-studio-projects/UdpServer/obj/../Peripheral/src/ch32v30x_eth.c:32
}
    14d0:	d45fe06f          	j	214 <__riscv_restore_0>

000014d4 <ETH_ReadPHYRegister>:
ETH_ReadPHYRegister():
/home/randy/mounriver-studio-projects/UdpServer/obj/../Peripheral/src/ch32v30x_eth.c:292
 *
 * @return  ETH_ERROR - in case of timeout.
 *          MAC MIIDR register value - Data read from the selected PHY register.
 */
uint16_t ETH_ReadPHYRegister(uint16_t PHYAddress, uint16_t PHYReg)
{
    14d4:	1141                	addi	sp,sp,-16
/home/randy/mounriver-studio-projects/UdpServer/obj/../Peripheral/src/ch32v30x_eth.c:294
    uint32_t      tmpreg = 0;
    __IO uint32_t timeout = 0;
    14d6:	c602                	sw	zero,12(sp)
/home/randy/mounriver-studio-projects/UdpServer/obj/../Peripheral/src/ch32v30x_eth.c:296

    tmpreg = ETH->MACMIIAR;
    14d8:	400286b7          	lui	a3,0x40028
    14dc:	4a9c                	lw	a5,16(a3)
/home/randy/mounriver-studio-projects/UdpServer/obj/../Peripheral/src/ch32v30x_eth.c:298
    tmpreg &= ~MACMIIAR_CR_MASK;
    tmpreg |= (((uint32_t)PHYAddress << 11) & ETH_MACMIIAR_PA);
    14de:	6741                	lui	a4,0x10
    14e0:	052e                	slli	a0,a0,0xb
    14e2:	177d                	addi	a4,a4,-1
/home/randy/mounriver-studio-projects/UdpServer/obj/../Peripheral/src/ch32v30x_eth.c:297
    tmpreg &= ~MACMIIAR_CR_MASK;
    14e4:	8bf1                	andi	a5,a5,28
/home/randy/mounriver-studio-projects/UdpServer/obj/../Peripheral/src/ch32v30x_eth.c:298
    tmpreg |= (((uint32_t)PHYAddress << 11) & ETH_MACMIIAR_PA);
    14e6:	8d79                	and	a0,a0,a4
/home/randy/mounriver-studio-projects/UdpServer/obj/../Peripheral/src/ch32v30x_eth.c:299
    tmpreg |= (((uint32_t)PHYReg << 6) & ETH_MACMIIAR_MR);
    14e8:	059a                	slli	a1,a1,0x6
/home/randy/mounriver-studio-projects/UdpServer/obj/../Peripheral/src/ch32v30x_eth.c:298
    tmpreg |= (((uint32_t)PHYAddress << 11) & ETH_MACMIIAR_PA);
    14ea:	8d5d                	or	a0,a0,a5
/home/randy/mounriver-studio-projects/UdpServer/obj/../Peripheral/src/ch32v30x_eth.c:299
    tmpreg |= (((uint32_t)PHYReg << 6) & ETH_MACMIIAR_MR);
    14ec:	7c05f593          	andi	a1,a1,1984
    14f0:	8dc9                	or	a1,a1,a0
/home/randy/mounriver-studio-projects/UdpServer/obj/../Peripheral/src/ch32v30x_eth.c:301
    tmpreg &= ~ETH_MACMIIAR_MW;
    tmpreg |= ETH_MACMIIAR_MB;
    14f2:	0015e593          	ori	a1,a1,1
/home/randy/mounriver-studio-projects/UdpServer/obj/../Peripheral/src/ch32v30x_eth.c:308

    do
    {
        timeout++;
        tmpreg = ETH->MACMIIAR;
    } while((tmpreg & ETH_MACMIIAR_MB) && (timeout < (uint32_t)PHY_READ_TO));
    14f6:	005007b7          	lui	a5,0x500
/home/randy/mounriver-studio-projects/UdpServer/obj/../Peripheral/src/ch32v30x_eth.c:302
    ETH->MACMIIAR = tmpreg;
    14fa:	ca8c                	sw	a1,16(a3)
/home/randy/mounriver-studio-projects/UdpServer/obj/../Peripheral/src/ch32v30x_eth.c:308
    } while((tmpreg & ETH_MACMIIAR_MB) && (timeout < (uint32_t)PHY_READ_TO));
    14fc:	17f9                	addi	a5,a5,-2
/home/randy/mounriver-studio-projects/UdpServer/obj/../Peripheral/src/ch32v30x_eth.c:306 (discriminator 2)
        timeout++;
    14fe:	4732                	lw	a4,12(sp)
    1500:	0705                	addi	a4,a4,1
    1502:	c63a                	sw	a4,12(sp)
/home/randy/mounriver-studio-projects/UdpServer/obj/../Peripheral/src/ch32v30x_eth.c:307 (discriminator 2)
        tmpreg = ETH->MACMIIAR;
    1504:	4a98                	lw	a4,16(a3)
/home/randy/mounriver-studio-projects/UdpServer/obj/../Peripheral/src/ch32v30x_eth.c:308 (discriminator 2)
    } while((tmpreg & ETH_MACMIIAR_MB) && (timeout < (uint32_t)PHY_READ_TO));
    1506:	8b05                	andi	a4,a4,1
    1508:	c701                	beqz	a4,1510 <ETH_ReadPHYRegister+0x3c>
/home/randy/mounriver-studio-projects/UdpServer/obj/../Peripheral/src/ch32v30x_eth.c:308 (discriminator 1)
    150a:	4732                	lw	a4,12(sp)
    150c:	fee7f9e3          	bgeu	a5,a4,14fe <ETH_ReadPHYRegister+0x2a>
/home/randy/mounriver-studio-projects/UdpServer/obj/../Peripheral/src/ch32v30x_eth.c:310

    if(timeout == PHY_READ_TO)
    1510:	4732                	lw	a4,12(sp)
    1512:	005007b7          	lui	a5,0x500
    1516:	17fd                	addi	a5,a5,-1
/home/randy/mounriver-studio-projects/UdpServer/obj/../Peripheral/src/ch32v30x_eth.c:312
    {
        return (uint16_t)ETH_ERROR;
    1518:	4501                	li	a0,0
/home/randy/mounriver-studio-projects/UdpServer/obj/../Peripheral/src/ch32v30x_eth.c:310
    if(timeout == PHY_READ_TO)
    151a:	00f70763          	beq	a4,a5,1528 <ETH_ReadPHYRegister+0x54>
/home/randy/mounriver-studio-projects/UdpServer/obj/../Peripheral/src/ch32v30x_eth.c:315
    }

    return (uint16_t)(ETH->MACMIIDR);
    151e:	400287b7          	lui	a5,0x40028
    1522:	4bc8                	lw	a0,20(a5)
    1524:	0542                	slli	a0,a0,0x10
    1526:	8141                	srli	a0,a0,0x10
/home/randy/mounriver-studio-projects/UdpServer/obj/../Peripheral/src/ch32v30x_eth.c:316
}
    1528:	0141                	addi	sp,sp,16
    152a:	8082                	ret

0000152c <ETH_WritePHYRegister>:
ETH_WritePHYRegister():
/home/randy/mounriver-studio-projects/UdpServer/obj/../Peripheral/src/ch32v30x_eth.c:331
 *
 * @return  ETH_ERROR - in case of timeout.
 *          ETH_SUCCESS - for correct write
 */
uint32_t ETH_WritePHYRegister(uint16_t PHYAddress, uint16_t PHYReg, uint16_t PHYValue)
{
    152c:	1141                	addi	sp,sp,-16
/home/randy/mounriver-studio-projects/UdpServer/obj/../Peripheral/src/ch32v30x_eth.c:335
    uint32_t      tmpreg = 0;
    __IO uint32_t timeout = 0;

    tmpreg = ETH->MACMIIAR;
    152e:	400287b7          	lui	a5,0x40028
/home/randy/mounriver-studio-projects/UdpServer/obj/../Peripheral/src/ch32v30x_eth.c:333
    __IO uint32_t timeout = 0;
    1532:	c602                	sw	zero,12(sp)
/home/randy/mounriver-studio-projects/UdpServer/obj/../Peripheral/src/ch32v30x_eth.c:335
    tmpreg = ETH->MACMIIAR;
    1534:	4b98                	lw	a4,16(a5)
/home/randy/mounriver-studio-projects/UdpServer/obj/../Peripheral/src/ch32v30x_eth.c:337
    tmpreg &= ~MACMIIAR_CR_MASK;
    tmpreg |= (((uint32_t)PHYAddress << 11) & ETH_MACMIIAR_PA);
    1536:	66c1                	lui	a3,0x10
    1538:	16fd                	addi	a3,a3,-1
    153a:	052e                	slli	a0,a0,0xb
    153c:	8d75                	and	a0,a0,a3
/home/randy/mounriver-studio-projects/UdpServer/obj/../Peripheral/src/ch32v30x_eth.c:336
    tmpreg &= ~MACMIIAR_CR_MASK;
    153e:	8b71                	andi	a4,a4,28
/home/randy/mounriver-studio-projects/UdpServer/obj/../Peripheral/src/ch32v30x_eth.c:338
    tmpreg |= (((uint32_t)PHYReg << 6) & ETH_MACMIIAR_MR);
    1540:	059a                	slli	a1,a1,0x6
/home/randy/mounriver-studio-projects/UdpServer/obj/../Peripheral/src/ch32v30x_eth.c:337
    tmpreg |= (((uint32_t)PHYAddress << 11) & ETH_MACMIIAR_PA);
    1542:	8d59                	or	a0,a0,a4
/home/randy/mounriver-studio-projects/UdpServer/obj/../Peripheral/src/ch32v30x_eth.c:338
    tmpreg |= (((uint32_t)PHYReg << 6) & ETH_MACMIIAR_MR);
    1544:	7c05f593          	andi	a1,a1,1984
    1548:	8dc9                	or	a1,a1,a0
/home/randy/mounriver-studio-projects/UdpServer/obj/../Peripheral/src/ch32v30x_eth.c:341
    tmpreg |= ETH_MACMIIAR_MW;
    tmpreg |= ETH_MACMIIAR_MB;
    ETH->MACMIIDR = PHYValue;
    154a:	cbd0                	sw	a2,20(a5)
/home/randy/mounriver-studio-projects/UdpServer/obj/../Peripheral/src/ch32v30x_eth.c:340
    tmpreg |= ETH_MACMIIAR_MB;
    154c:	0035e593          	ori	a1,a1,3
/home/randy/mounriver-studio-projects/UdpServer/obj/../Peripheral/src/ch32v30x_eth.c:342
    ETH->MACMIIAR = tmpreg;
    1550:	cb8c                	sw	a1,16(a5)
/home/randy/mounriver-studio-projects/UdpServer/obj/../Peripheral/src/ch32v30x_eth.c:348

    do
    {
        timeout++;
        tmpreg = ETH->MACMIIAR;
    } while((tmpreg & ETH_MACMIIAR_MB) && (timeout < (uint32_t)PHY_WRITE_TO));
    1552:	000507b7          	lui	a5,0x50
/home/randy/mounriver-studio-projects/UdpServer/obj/../Peripheral/src/ch32v30x_eth.c:347
        tmpreg = ETH->MACMIIAR;
    1556:	400286b7          	lui	a3,0x40028
/home/randy/mounriver-studio-projects/UdpServer/obj/../Peripheral/src/ch32v30x_eth.c:348
    } while((tmpreg & ETH_MACMIIAR_MB) && (timeout < (uint32_t)PHY_WRITE_TO));
    155a:	17f9                	addi	a5,a5,-2
/home/randy/mounriver-studio-projects/UdpServer/obj/../Peripheral/src/ch32v30x_eth.c:346 (discriminator 2)
        timeout++;
    155c:	4732                	lw	a4,12(sp)
    155e:	0705                	addi	a4,a4,1
    1560:	c63a                	sw	a4,12(sp)
/home/randy/mounriver-studio-projects/UdpServer/obj/../Peripheral/src/ch32v30x_eth.c:347 (discriminator 2)
        tmpreg = ETH->MACMIIAR;
    1562:	4a98                	lw	a4,16(a3)
/home/randy/mounriver-studio-projects/UdpServer/obj/../Peripheral/src/ch32v30x_eth.c:348 (discriminator 2)
    } while((tmpreg & ETH_MACMIIAR_MB) && (timeout < (uint32_t)PHY_WRITE_TO));
    1564:	8b05                	andi	a4,a4,1
    1566:	c701                	beqz	a4,156e <ETH_WritePHYRegister+0x42>
/home/randy/mounriver-studio-projects/UdpServer/obj/../Peripheral/src/ch32v30x_eth.c:348 (discriminator 1)
    1568:	4732                	lw	a4,12(sp)
    156a:	fee7f9e3          	bgeu	a5,a4,155c <ETH_WritePHYRegister+0x30>
/home/randy/mounriver-studio-projects/UdpServer/obj/../Peripheral/src/ch32v30x_eth.c:350

    if(timeout >= PHY_WRITE_TO)
    156e:	4532                	lw	a0,12(sp)
/home/randy/mounriver-studio-projects/UdpServer/obj/../Peripheral/src/ch32v30x_eth.c:356
    {
        return ETH_ERROR;
    }

    return ETH_SUCCESS;
}
    1570:	000507b7          	lui	a5,0x50
    1574:	17fd                	addi	a5,a5,-1
    1576:	00f53533          	sltu	a0,a0,a5
    157a:	0141                	addi	sp,sp,16
    157c:	8082                	ret

0000157e <ETH_DMATxDescChainInit>:
ETH_DMATxDescChainInit():
/home/randy/mounriver-studio-projects/UdpServer/obj/../Peripheral/src/ch32v30x_eth.c:712
void ETH_DMATxDescChainInit(ETH_DMADESCTypeDef *DMATxDescTab, uint8_t *TxBuff, uint32_t TxBuffCount)
{
    uint32_t            i = 0;
    ETH_DMADESCTypeDef *DMATxDesc;

    DMATxDescToSet = DMATxDescTab;
    157e:	86a1aa23          	sw	a0,-1932(gp) # 20000294 <DMATxDescToSet>
/home/randy/mounriver-studio-projects/UdpServer/obj/../Peripheral/src/ch32v30x_eth.c:714

    for(i = 0; i < TxBuffCount; i++)
    1582:	872a                	mv	a4,a0
    1584:	4781                	li	a5,0
/home/randy/mounriver-studio-projects/UdpServer/obj/../Peripheral/src/ch32v30x_eth.c:717
    {
        DMATxDesc = DMATxDescTab + i;
        DMATxDesc->Status = ETH_DMATxDesc_TCH | ETH_DMATxDesc_IC;
    1586:	401008b7          	lui	a7,0x40100
/home/randy/mounriver-studio-projects/UdpServer/obj/../Peripheral/src/ch32v30x_eth.c:718
        DMATxDesc->Buffer1Addr = (uint32_t)(&TxBuff[i * ETH_MAX_PACKET_SIZE]);
    158a:	5f400313          	li	t1,1524
/home/randy/mounriver-studio-projects/UdpServer/obj/../Peripheral/src/ch32v30x_eth.c:720

        if(i < (TxBuffCount - 1))
    158e:	fff60e13          	addi	t3,a2,-1 # ffff <_data_lma+0x619b>
/home/randy/mounriver-studio-projects/UdpServer/obj/../Peripheral/src/ch32v30x_eth.c:714 (discriminator 1)
    for(i = 0; i < TxBuffCount; i++)
    1592:	00c79663          	bne	a5,a2,159e <ETH_DMATxDescChainInit+0x20>
/home/randy/mounriver-studio-projects/UdpServer/obj/../Peripheral/src/ch32v30x_eth.c:730
        {
            DMATxDesc->Buffer2NextDescAddr = (uint32_t)DMATxDescTab;
        }
    }

    ETH->DMATDLAR = (uint32_t)DMATxDescTab;
    1596:	400297b7          	lui	a5,0x40029
    159a:	cb88                	sw	a0,16(a5)
/home/randy/mounriver-studio-projects/UdpServer/obj/../Peripheral/src/ch32v30x_eth.c:731
}
    159c:	8082                	ret
/home/randy/mounriver-studio-projects/UdpServer/obj/../Peripheral/src/ch32v30x_eth.c:718
        DMATxDesc->Buffer1Addr = (uint32_t)(&TxBuff[i * ETH_MAX_PACKET_SIZE]);
    159e:	026786b3          	mul	a3,a5,t1
/home/randy/mounriver-studio-projects/UdpServer/obj/../Peripheral/src/ch32v30x_eth.c:717
        DMATxDesc->Status = ETH_DMATxDesc_TCH | ETH_DMATxDesc_IC;
    15a2:	01172023          	sw	a7,0(a4) # 10000 <_data_lma+0x619c>
/home/randy/mounriver-studio-projects/UdpServer/obj/../Peripheral/src/ch32v30x_eth.c:718
        DMATxDesc->Buffer1Addr = (uint32_t)(&TxBuff[i * ETH_MAX_PACKET_SIZE]);
    15a6:	882a                	mv	a6,a0
    15a8:	96ae                	add	a3,a3,a1
    15aa:	c714                	sw	a3,8(a4)
/home/randy/mounriver-studio-projects/UdpServer/obj/../Peripheral/src/ch32v30x_eth.c:720
        if(i < (TxBuffCount - 1))
    15ac:	01070693          	addi	a3,a4,16
    15b0:	01c7f363          	bgeu	a5,t3,15b6 <ETH_DMATxDescChainInit+0x38>
/home/randy/mounriver-studio-projects/UdpServer/obj/../Peripheral/src/ch32v30x_eth.c:722
            DMATxDesc->Buffer2NextDescAddr = (uint32_t)(DMATxDescTab + i + 1);
    15b4:	8836                	mv	a6,a3
    15b6:	01072623          	sw	a6,12(a4)
    15ba:	0785                	addi	a5,a5,1
    15bc:	8736                	mv	a4,a3
    15be:	bfd1                	j	1592 <ETH_DMATxDescChainInit+0x14>

000015c0 <ETH_DMARxDescChainInit>:
ETH_DMARxDescChainInit():
/home/randy/mounriver-studio-projects/UdpServer/obj/../Peripheral/src/ch32v30x_eth.c:1046

    for(i = 0; i < RxBuffCount; i++)
    {
        DMARxDesc = DMARxDescTab + i;
        DMARxDesc->Status = ETH_DMARxDesc_OWN;
        DMARxDesc->ControlBufferSize = ETH_DMARxDesc_RCH | (uint32_t)ETH_MAX_PACKET_SIZE;
    15c0:	6691                	lui	a3,0x4
/home/randy/mounriver-studio-projects/UdpServer/obj/../Peripheral/src/ch32v30x_eth.c:1040
    DMARxDescToGet = DMARxDescTab;
    15c2:	86a1a823          	sw	a0,-1936(gp) # 20000290 <DMARxDescToGet>
/home/randy/mounriver-studio-projects/UdpServer/obj/../Peripheral/src/ch32v30x_eth.c:1042
    for(i = 0; i < RxBuffCount; i++)
    15c6:	4701                	li	a4,0
    15c8:	87aa                	mv	a5,a0
/home/randy/mounriver-studio-projects/UdpServer/obj/../Peripheral/src/ch32v30x_eth.c:1045
        DMARxDesc->Status = ETH_DMARxDesc_OWN;
    15ca:	80000337          	lui	t1,0x80000
/home/randy/mounriver-studio-projects/UdpServer/obj/../Peripheral/src/ch32v30x_eth.c:1046
        DMARxDesc->ControlBufferSize = ETH_DMARxDesc_RCH | (uint32_t)ETH_MAX_PACKET_SIZE;
    15ce:	5f468693          	addi	a3,a3,1524 # 45f4 <mem_realloc+0x84>
/home/randy/mounriver-studio-projects/UdpServer/obj/../Peripheral/src/ch32v30x_eth.c:1047
        DMARxDesc->Buffer1Addr = (uint32_t)(&RxBuff[i * ETH_MAX_PACKET_SIZE]);
    15d2:	5f400e13          	li	t3,1524
/home/randy/mounriver-studio-projects/UdpServer/obj/../Peripheral/src/ch32v30x_eth.c:1049

        if(i < (RxBuffCount - 1))
    15d6:	fff60e93          	addi	t4,a2,-1
/home/randy/mounriver-studio-projects/UdpServer/obj/../Peripheral/src/ch32v30x_eth.c:1042 (discriminator 1)
    for(i = 0; i < RxBuffCount; i++)
    15da:	00c71663          	bne	a4,a2,15e6 <ETH_DMARxDescChainInit+0x26>
/home/randy/mounriver-studio-projects/UdpServer/obj/../Peripheral/src/ch32v30x_eth.c:1059
        {
            DMARxDesc->Buffer2NextDescAddr = (uint32_t)(DMARxDescTab);
        }
    }

    ETH->DMARDLAR = (uint32_t)DMARxDescTab;
    15de:	400297b7          	lui	a5,0x40029
    15e2:	c7c8                	sw	a0,12(a5)
/home/randy/mounriver-studio-projects/UdpServer/obj/../Peripheral/src/ch32v30x_eth.c:1060
}
    15e4:	8082                	ret
/home/randy/mounriver-studio-projects/UdpServer/obj/../Peripheral/src/ch32v30x_eth.c:1047
        DMARxDesc->Buffer1Addr = (uint32_t)(&RxBuff[i * ETH_MAX_PACKET_SIZE]);
    15e6:	03c70833          	mul	a6,a4,t3
/home/randy/mounriver-studio-projects/UdpServer/obj/../Peripheral/src/ch32v30x_eth.c:1045
        DMARxDesc->Status = ETH_DMARxDesc_OWN;
    15ea:	0067a023          	sw	t1,0(a5) # 40029000 <_eusrstack+0x20019000>
/home/randy/mounriver-studio-projects/UdpServer/obj/../Peripheral/src/ch32v30x_eth.c:1046
        DMARxDesc->ControlBufferSize = ETH_DMARxDesc_RCH | (uint32_t)ETH_MAX_PACKET_SIZE;
    15ee:	c3d4                	sw	a3,4(a5)
/home/randy/mounriver-studio-projects/UdpServer/obj/../Peripheral/src/ch32v30x_eth.c:1047
        DMARxDesc->Buffer1Addr = (uint32_t)(&RxBuff[i * ETH_MAX_PACKET_SIZE]);
    15f0:	88aa                	mv	a7,a0
    15f2:	982e                	add	a6,a6,a1
    15f4:	0107a423          	sw	a6,8(a5)
/home/randy/mounriver-studio-projects/UdpServer/obj/../Peripheral/src/ch32v30x_eth.c:1049
        if(i < (RxBuffCount - 1))
    15f8:	01078813          	addi	a6,a5,16
    15fc:	01d77363          	bgeu	a4,t4,1602 <ETH_DMARxDescChainInit+0x42>
/home/randy/mounriver-studio-projects/UdpServer/obj/../Peripheral/src/ch32v30x_eth.c:1051
            DMARxDesc->Buffer2NextDescAddr = (uint32_t)(DMARxDescTab + i + 1);
    1600:	88c2                	mv	a7,a6
    1602:	0117a623          	sw	a7,12(a5)
    1606:	0705                	addi	a4,a4,1
    1608:	87c2                	mv	a5,a6
    160a:	bfc1                	j	15da <ETH_DMARxDescChainInit+0x1a>

0000160c <ETH_SoftwareReset>:
ETH_SoftwareReset():
/home/randy/mounriver-studio-projects/UdpServer/obj/../Peripheral/src/ch32v30x_eth.c:1269
 *
 * @return  none
 */
void ETH_SoftwareReset(void)
{
    ETH->DMABMR |= ETH_DMABMR_SR;
    160c:	40029737          	lui	a4,0x40029
    1610:	431c                	lw	a5,0(a4)
    1612:	0017e793          	ori	a5,a5,1
    1616:	c31c                	sw	a5,0(a4)
/home/randy/mounriver-studio-projects/UdpServer/obj/../Peripheral/src/ch32v30x_eth.c:1270
}
    1618:	8082                	ret

0000161a <ETH_DMAClearITPendingBit>:
ETH_DMAClearITPendingBit():
    161a:	400297b7          	lui	a5,0x40029
    161e:	cbc8                	sw	a0,20(a5)
    1620:	8082                	ret

00001622 <ETH_FlushTransmitFIFO>:
ETH_FlushTransmitFIFO():
/home/randy/mounriver-studio-projects/UdpServer/obj/../Peripheral/src/ch32v30x_eth.c:1507
 *
 * @return  none
 */
void ETH_FlushTransmitFIFO(void)
{
    ETH->DMAOMR |= ETH_DMAOMR_FTF;
    1622:	40029737          	lui	a4,0x40029
    1626:	4f1c                	lw	a5,24(a4)
    1628:	001006b7          	lui	a3,0x100
    162c:	8fd5                	or	a5,a5,a3
    162e:	cf1c                	sw	a5,24(a4)
/home/randy/mounriver-studio-projects/UdpServer/obj/../Peripheral/src/ch32v30x_eth.c:1508
}
    1630:	8082                	ret

00001632 <ETH_Start>:
ETH_Start():
/home/randy/mounriver-studio-projects/UdpServer/obj/../Peripheral/src/ch32v30x_eth.c:107
{
    1632:	bbffe2ef          	jal	t0,1f0 <__riscv_save_0>
ETH_MACTransmissionCmd():
/home/randy/mounriver-studio-projects/UdpServer/obj/../Peripheral/src/ch32v30x_eth.c:407
        ETH->MACCR |= ETH_MACCR_TE;
    1636:	40028437          	lui	s0,0x40028
    163a:	401c                	lw	a5,0(s0)
    163c:	0087e793          	ori	a5,a5,8
    1640:	c01c                	sw	a5,0(s0)
ETH_Start():
/home/randy/mounriver-studio-projects/UdpServer/obj/../Peripheral/src/ch32v30x_eth.c:109
    ETH_FlushTransmitFIFO();
    1642:	37c5                	jal	1622 <ETH_FlushTransmitFIFO>
ETH_MACReceptionCmd():
/home/randy/mounriver-studio-projects/UdpServer/obj/../Peripheral/src/ch32v30x_eth.c:428
        ETH->MACCR |= ETH_MACCR_RE;
    1644:	401c                	lw	a5,0(s0)
ETH_DMATransmissionCmd():
/home/randy/mounriver-studio-projects/UdpServer/obj/../Peripheral/src/ch32v30x_eth.c:1544
 */
void ETH_DMATransmissionCmd(FunctionalState NewState)
{
    if(NewState != DISABLE)
    {
        ETH->DMAOMR |= ETH_DMAOMR_ST;
    1646:	6689                	lui	a3,0x2
ETH_MACReceptionCmd():
/home/randy/mounriver-studio-projects/UdpServer/obj/../Peripheral/src/ch32v30x_eth.c:428
        ETH->MACCR |= ETH_MACCR_RE;
    1648:	0047e793          	ori	a5,a5,4
    164c:	c01c                	sw	a5,0(s0)
ETH_DMATransmissionCmd():
/home/randy/mounriver-studio-projects/UdpServer/obj/../Peripheral/src/ch32v30x_eth.c:1544
        ETH->DMAOMR |= ETH_DMAOMR_ST;
    164e:	400297b7          	lui	a5,0x40029
    1652:	4f98                	lw	a4,24(a5)
    1654:	8f55                	or	a4,a4,a3
    1656:	cf98                	sw	a4,24(a5)
ETH_DMAReceptionCmd():
/home/randy/mounriver-studio-projects/UdpServer/obj/../Peripheral/src/ch32v30x_eth.c:1565
 */
void ETH_DMAReceptionCmd(FunctionalState NewState)
{
    if(NewState != DISABLE)
    {
        ETH->DMAOMR |= ETH_DMAOMR_SR;
    1658:	4f98                	lw	a4,24(a5)
    165a:	00276713          	ori	a4,a4,2
    165e:	cf98                	sw	a4,24(a5)
ETH_Start():
/home/randy/mounriver-studio-projects/UdpServer/obj/../Peripheral/src/ch32v30x_eth.c:113
}
    1660:	bb5fe06f          	j	214 <__riscv_restore_0>

00001664 <ETH_DMAITConfig>:
ETH_DMAITConfig():
/home/randy/mounriver-studio-projects/UdpServer/obj/../Peripheral/src/ch32v30x_eth.c:1602
 *
 * @return  new state of the specified ETHERNET DMA interrupts.
 */
void ETH_DMAITConfig(uint32_t ETH_DMA_IT, FunctionalState NewState)
{
    if(NewState != DISABLE)
    1664:	c599                	beqz	a1,1672 <ETH_DMAITConfig+0xe>
/home/randy/mounriver-studio-projects/UdpServer/obj/../Peripheral/src/ch32v30x_eth.c:1604
    {
        ETH->DMAIER |= ETH_DMA_IT;
    1666:	40029737          	lui	a4,0x40029
    166a:	4f5c                	lw	a5,28(a4)
    166c:	8d5d                	or	a0,a0,a5
    166e:	cf48                	sw	a0,28(a4)
    1670:	8082                	ret
/home/randy/mounriver-studio-projects/UdpServer/obj/../Peripheral/src/ch32v30x_eth.c:1608
    }
    else
    {
        ETH->DMAIER &= (~(uint32_t)ETH_DMA_IT);
    1672:	400297b7          	lui	a5,0x40029
    1676:	4fd8                	lw	a4,28(a5)
    1678:	fff54513          	not	a0,a0
    167c:	8d79                	and	a0,a0,a4
    167e:	cfc8                	sw	a0,28(a5)
/home/randy/mounriver-studio-projects/UdpServer/obj/../Peripheral/src/ch32v30x_eth.c:1610
    }
}
    1680:	8082                	ret

00001682 <EXTI_ClearITPendingBit>:
EXTI_ClearITPendingBit():
    1682:	400107b7          	lui	a5,0x40010
    1686:	40a7aa23          	sw	a0,1044(a5) # 40010414 <_eusrstack+0x20000414>
    168a:	8082                	ret

0000168c <GPIO_Init>:
GPIO_Init():
/home/randy/mounriver-studio-projects/UdpServer/obj/../Peripheral/src/ch32v30x_gpio.c:90
void GPIO_Init(GPIO_TypeDef *GPIOx, GPIO_InitTypeDef *GPIO_InitStruct)
{
    uint32_t currentmode = 0x00, currentpin = 0x00, pinpos = 0x00, pos = 0x00;
    uint32_t tmpreg = 0x00, pinmask = 0x00;

    currentmode = ((uint32_t)GPIO_InitStruct->GPIO_Mode) & ((uint32_t)0x0F);
    168c:	459c                	lw	a5,8(a1)
/home/randy/mounriver-studio-projects/UdpServer/obj/../Peripheral/src/ch32v30x_gpio.c:92

    if((((uint32_t)GPIO_InitStruct->GPIO_Mode) & ((uint32_t)0x10)) != 0x00)
    168e:	0107f713          	andi	a4,a5,16
/home/randy/mounriver-studio-projects/UdpServer/obj/../Peripheral/src/ch32v30x_gpio.c:90
    currentmode = ((uint32_t)GPIO_InitStruct->GPIO_Mode) & ((uint32_t)0x0F);
    1692:	00f7f813          	andi	a6,a5,15
/home/randy/mounriver-studio-projects/UdpServer/obj/../Peripheral/src/ch32v30x_gpio.c:92
    if((((uint32_t)GPIO_InitStruct->GPIO_Mode) & ((uint32_t)0x10)) != 0x00)
    1696:	c701                	beqz	a4,169e <GPIO_Init+0x12>
/home/randy/mounriver-studio-projects/UdpServer/obj/../Peripheral/src/ch32v30x_gpio.c:94
    {
        currentmode |= (uint32_t)GPIO_InitStruct->GPIO_Speed;
    1698:	41d8                	lw	a4,4(a1)
    169a:	00e86833          	or	a6,a6,a4
/home/randy/mounriver-studio-projects/UdpServer/obj/../Peripheral/src/ch32v30x_gpio.c:97
    }

    if(((uint32_t)GPIO_InitStruct->GPIO_Pin & ((uint32_t)0x00FF)) != 0x00)
    169e:	218e                	lhu	a1,0(a1)
    16a0:	0ff5f713          	andi	a4,a1,255
    16a4:	c339                	beqz	a4,16ea <GPIO_Init+0x5e>
/home/randy/mounriver-studio-projects/UdpServer/obj/../Peripheral/src/ch32v30x_gpio.c:99
    {
        tmpreg = GPIOx->CFGLR;
    16a6:	4118                	lw	a4,0(a0)
/home/randy/mounriver-studio-projects/UdpServer/obj/../Peripheral/src/ch32v30x_gpio.c:101

        for(pinpos = 0x00; pinpos < 0x08; pinpos++)
    16a8:	4681                	li	a3,0
/home/randy/mounriver-studio-projects/UdpServer/obj/../Peripheral/src/ch32v30x_gpio.c:103
        {
            pos = ((uint32_t)0x01) << pinpos;
    16aa:	4e85                	li	t4,1
/home/randy/mounriver-studio-projects/UdpServer/obj/../Peripheral/src/ch32v30x_gpio.c:109
            currentpin = (GPIO_InitStruct->GPIO_Pin) & pos;

            if(currentpin == pos)
            {
                pos = pinpos << 2;
                pinmask = ((uint32_t)0x0F) << pos;
    16ac:	4f3d                	li	t5,15
/home/randy/mounriver-studio-projects/UdpServer/obj/../Peripheral/src/ch32v30x_gpio.c:113
                tmpreg &= ~pinmask;
                tmpreg |= (currentmode << pos);

                if(GPIO_InitStruct->GPIO_Mode == GPIO_Mode_IPD)
    16ae:	02800f93          	li	t6,40
/home/randy/mounriver-studio-projects/UdpServer/obj/../Peripheral/src/ch32v30x_gpio.c:119
                {
                    GPIOx->BCR = (((uint32_t)0x01) << pinpos);
                }
                else
                {
                    if(GPIO_InitStruct->GPIO_Mode == GPIO_Mode_IPU)
    16b2:	04800293          	li	t0,72
/home/randy/mounriver-studio-projects/UdpServer/obj/../Peripheral/src/ch32v30x_gpio.c:101
        for(pinpos = 0x00; pinpos < 0x08; pinpos++)
    16b6:	4e21                	li	t3,8
/home/randy/mounriver-studio-projects/UdpServer/obj/../Peripheral/src/ch32v30x_gpio.c:103
            pos = ((uint32_t)0x01) << pinpos;
    16b8:	00de9633          	sll	a2,t4,a3
/home/randy/mounriver-studio-projects/UdpServer/obj/../Peripheral/src/ch32v30x_gpio.c:104
            currentpin = (GPIO_InitStruct->GPIO_Pin) & pos;
    16bc:	00c5f8b3          	and	a7,a1,a2
/home/randy/mounriver-studio-projects/UdpServer/obj/../Peripheral/src/ch32v30x_gpio.c:106
            if(currentpin == pos)
    16c0:	03161163          	bne	a2,a7,16e2 <GPIO_Init+0x56>
/home/randy/mounriver-studio-projects/UdpServer/obj/../Peripheral/src/ch32v30x_gpio.c:108
                pos = pinpos << 2;
    16c4:	00269893          	slli	a7,a3,0x2
/home/randy/mounriver-studio-projects/UdpServer/obj/../Peripheral/src/ch32v30x_gpio.c:109
                pinmask = ((uint32_t)0x0F) << pos;
    16c8:	011f1333          	sll	t1,t5,a7
/home/randy/mounriver-studio-projects/UdpServer/obj/../Peripheral/src/ch32v30x_gpio.c:110
                tmpreg &= ~pinmask;
    16cc:	fff34313          	not	t1,t1
    16d0:	00e37733          	and	a4,t1,a4
/home/randy/mounriver-studio-projects/UdpServer/obj/../Peripheral/src/ch32v30x_gpio.c:111
                tmpreg |= (currentmode << pos);
    16d4:	011818b3          	sll	a7,a6,a7
    16d8:	00e8e733          	or	a4,a7,a4
/home/randy/mounriver-studio-projects/UdpServer/obj/../Peripheral/src/ch32v30x_gpio.c:113
                if(GPIO_InitStruct->GPIO_Mode == GPIO_Mode_IPD)
    16dc:	05f79f63          	bne	a5,t6,173a <GPIO_Init+0xae>
/home/randy/mounriver-studio-projects/UdpServer/obj/../Peripheral/src/ch32v30x_gpio.c:115
                    GPIOx->BCR = (((uint32_t)0x01) << pinpos);
    16e0:	c950                	sw	a2,20(a0)
/home/randy/mounriver-studio-projects/UdpServer/obj/../Peripheral/src/ch32v30x_gpio.c:101 (discriminator 2)
        for(pinpos = 0x00; pinpos < 0x08; pinpos++)
    16e2:	0685                	addi	a3,a3,1
    16e4:	fdc69ae3          	bne	a3,t3,16b8 <GPIO_Init+0x2c>
/home/randy/mounriver-studio-projects/UdpServer/obj/../Peripheral/src/ch32v30x_gpio.c:126
                        GPIOx->BSHR = (((uint32_t)0x01) << pinpos);
                    }
                }
            }
        }
        GPIOx->CFGLR = tmpreg;
    16e8:	c118                	sw	a4,0(a0)
/home/randy/mounriver-studio-projects/UdpServer/obj/../Peripheral/src/ch32v30x_gpio.c:129
    }

    if(GPIO_InitStruct->GPIO_Pin > 0x00FF)
    16ea:	0ff00713          	li	a4,255
    16ee:	04b77563          	bgeu	a4,a1,1738 <GPIO_Init+0xac>
/home/randy/mounriver-studio-projects/UdpServer/obj/../Peripheral/src/ch32v30x_gpio.c:131
    {
        tmpreg = GPIOx->CFGHR;
    16f2:	4154                	lw	a3,4(a0)
    16f4:	4621                	li	a2,8
/home/randy/mounriver-studio-projects/UdpServer/obj/../Peripheral/src/ch32v30x_gpio.c:135

        for(pinpos = 0x00; pinpos < 0x08; pinpos++)
        {
            pos = (((uint32_t)0x01) << (pinpos + 0x08));
    16f6:	4e85                	li	t4,1
/home/randy/mounriver-studio-projects/UdpServer/obj/../Peripheral/src/ch32v30x_gpio.c:141
            currentpin = ((GPIO_InitStruct->GPIO_Pin) & pos);

            if(currentpin == pos)
            {
                pos = pinpos << 2;
                pinmask = ((uint32_t)0x0F) << pos;
    16f8:	4f3d                	li	t5,15
/home/randy/mounriver-studio-projects/UdpServer/obj/../Peripheral/src/ch32v30x_gpio.c:145
                tmpreg &= ~pinmask;
                tmpreg |= (currentmode << pos);

                if(GPIO_InitStruct->GPIO_Mode == GPIO_Mode_IPD)
    16fa:	02800f93          	li	t6,40
/home/randy/mounriver-studio-projects/UdpServer/obj/../Peripheral/src/ch32v30x_gpio.c:150
                {
                    GPIOx->BCR = (((uint32_t)0x01) << (pinpos + 0x08));
                }

                if(GPIO_InitStruct->GPIO_Mode == GPIO_Mode_IPU)
    16fe:	04800293          	li	t0,72
/home/randy/mounriver-studio-projects/UdpServer/obj/../Peripheral/src/ch32v30x_gpio.c:133
        for(pinpos = 0x00; pinpos < 0x08; pinpos++)
    1702:	4e41                	li	t3,16
/home/randy/mounriver-studio-projects/UdpServer/obj/../Peripheral/src/ch32v30x_gpio.c:135
            pos = (((uint32_t)0x01) << (pinpos + 0x08));
    1704:	00ce98b3          	sll	a7,t4,a2
/home/randy/mounriver-studio-projects/UdpServer/obj/../Peripheral/src/ch32v30x_gpio.c:136
            currentpin = ((GPIO_InitStruct->GPIO_Pin) & pos);
    1708:	0115f733          	and	a4,a1,a7
/home/randy/mounriver-studio-projects/UdpServer/obj/../Peripheral/src/ch32v30x_gpio.c:138
            if(currentpin == pos)
    170c:	02e89263          	bne	a7,a4,1730 <GPIO_Init+0xa4>
/home/randy/mounriver-studio-projects/UdpServer/obj/../Peripheral/src/ch32v30x_gpio.c:140
                pos = pinpos << 2;
    1710:	00261713          	slli	a4,a2,0x2
    1714:	1701                	addi	a4,a4,-32
/home/randy/mounriver-studio-projects/UdpServer/obj/../Peripheral/src/ch32v30x_gpio.c:141
                pinmask = ((uint32_t)0x0F) << pos;
    1716:	00ef1333          	sll	t1,t5,a4
/home/randy/mounriver-studio-projects/UdpServer/obj/../Peripheral/src/ch32v30x_gpio.c:142
                tmpreg &= ~pinmask;
    171a:	fff34313          	not	t1,t1
    171e:	00d376b3          	and	a3,t1,a3
/home/randy/mounriver-studio-projects/UdpServer/obj/../Peripheral/src/ch32v30x_gpio.c:143
                tmpreg |= (currentmode << pos);
    1722:	00e81733          	sll	a4,a6,a4
    1726:	8ed9                	or	a3,a3,a4
/home/randy/mounriver-studio-projects/UdpServer/obj/../Peripheral/src/ch32v30x_gpio.c:145
                if(GPIO_InitStruct->GPIO_Mode == GPIO_Mode_IPD)
    1728:	01f79d63          	bne	a5,t6,1742 <GPIO_Init+0xb6>
/home/randy/mounriver-studio-projects/UdpServer/obj/../Peripheral/src/ch32v30x_gpio.c:147
                    GPIOx->BCR = (((uint32_t)0x01) << (pinpos + 0x08));
    172c:	01152a23          	sw	a7,20(a0) # 4014 <ip_frag+0xea>
/home/randy/mounriver-studio-projects/UdpServer/obj/../Peripheral/src/ch32v30x_gpio.c:150
                if(GPIO_InitStruct->GPIO_Mode == GPIO_Mode_IPU)
    1730:	0605                	addi	a2,a2,1
/home/randy/mounriver-studio-projects/UdpServer/obj/../Peripheral/src/ch32v30x_gpio.c:133 (discriminator 2)
        for(pinpos = 0x00; pinpos < 0x08; pinpos++)
    1732:	fdc619e3          	bne	a2,t3,1704 <GPIO_Init+0x78>
/home/randy/mounriver-studio-projects/UdpServer/obj/../Peripheral/src/ch32v30x_gpio.c:156
                {
                    GPIOx->BSHR = (((uint32_t)0x01) << (pinpos + 0x08));
                }
            }
        }
        GPIOx->CFGHR = tmpreg;
    1736:	c154                	sw	a3,4(a0)
/home/randy/mounriver-studio-projects/UdpServer/obj/../Peripheral/src/ch32v30x_gpio.c:158
    }
}
    1738:	8082                	ret
/home/randy/mounriver-studio-projects/UdpServer/obj/../Peripheral/src/ch32v30x_gpio.c:119
                    if(GPIO_InitStruct->GPIO_Mode == GPIO_Mode_IPU)
    173a:	fa5794e3          	bne	a5,t0,16e2 <GPIO_Init+0x56>
/home/randy/mounriver-studio-projects/UdpServer/obj/../Peripheral/src/ch32v30x_gpio.c:121
                        GPIOx->BSHR = (((uint32_t)0x01) << pinpos);
    173e:	c910                	sw	a2,16(a0)
    1740:	b74d                	j	16e2 <GPIO_Init+0x56>
/home/randy/mounriver-studio-projects/UdpServer/obj/../Peripheral/src/ch32v30x_gpio.c:150
                if(GPIO_InitStruct->GPIO_Mode == GPIO_Mode_IPU)
    1742:	fe5797e3          	bne	a5,t0,1730 <GPIO_Init+0xa4>
/home/randy/mounriver-studio-projects/UdpServer/obj/../Peripheral/src/ch32v30x_gpio.c:152
                    GPIOx->BSHR = (((uint32_t)0x01) << (pinpos + 0x08));
    1746:	01152823          	sw	a7,16(a0)
    174a:	b7dd                	j	1730 <GPIO_Init+0xa4>

0000174c <GPIO_ReadInputDataBit>:
GPIO_ReadInputDataBit():
/home/randy/mounriver-studio-projects/UdpServer/obj/../Peripheral/src/ch32v30x_gpio.c:191
 */
uint8_t GPIO_ReadInputDataBit(GPIO_TypeDef *GPIOx, uint16_t GPIO_Pin)
{
    uint8_t bitstatus = 0x00;

    if((GPIOx->INDR & GPIO_Pin) != (uint32_t)Bit_RESET)
    174c:	4508                	lw	a0,8(a0)
    174e:	8d6d                	and	a0,a0,a1
/home/randy/mounriver-studio-projects/UdpServer/obj/../Peripheral/src/ch32v30x_gpio.c:201
    {
        bitstatus = (uint8_t)Bit_RESET;
    }

    return bitstatus;
}
    1750:	00a03533          	snez	a0,a0
    1754:	8082                	ret

00001756 <GPIO_SetBits>:
GPIO_SetBits():
/home/randy/mounriver-studio-projects/UdpServer/obj/../Peripheral/src/ch32v30x_gpio.c:271
 *
 * @return  none
 */
void GPIO_SetBits(GPIO_TypeDef *GPIOx, uint16_t GPIO_Pin)
{
    GPIOx->BSHR = GPIO_Pin;
    1756:	c90c                	sw	a1,16(a0)
/home/randy/mounriver-studio-projects/UdpServer/obj/../Peripheral/src/ch32v30x_gpio.c:272
}
    1758:	8082                	ret

0000175a <GPIO_ResetBits>:
GPIO_ResetBits():
/home/randy/mounriver-studio-projects/UdpServer/obj/../Peripheral/src/ch32v30x_gpio.c:287
 *
 * @return  none
 */
void GPIO_ResetBits(GPIO_TypeDef *GPIOx, uint16_t GPIO_Pin)
{
    GPIOx->BCR = GPIO_Pin;
    175a:	c94c                	sw	a1,20(a0)
/home/randy/mounriver-studio-projects/UdpServer/obj/../Peripheral/src/ch32v30x_gpio.c:288
}
    175c:	8082                	ret

0000175e <RCC_GetClocksFreq>:
RCC_GetClocksFreq():
/home/randy/mounriver-studio-projects/UdpServer/obj/../Peripheral/src/ch32v30x_rcc.c:585
#ifdef CH32V30x_D8C
    uint8_t Pll2mull = 0;

#endif

    tmp = RCC->CFGR0 & CFGR0_SWS_Mask;
    175e:	40021737          	lui	a4,0x40021
    1762:	435c                	lw	a5,4(a4)
    1764:	4691                	li	a3,4
    1766:	8bb1                	andi	a5,a5,12
/home/randy/mounriver-studio-projects/UdpServer/obj/../Peripheral/src/ch32v30x_rcc.c:587

    switch(tmp)
    1768:	00d78563          	beq	a5,a3,1772 <RCC_GetClocksFreq+0x14>
    176c:	46a1                	li	a3,8
    176e:	06d78263          	beq	a5,a3,17d2 <RCC_GetClocksFreq+0x74>
/home/randy/mounriver-studio-projects/UdpServer/obj/../Peripheral/src/ch32v30x_rcc.c:590
    {
        case 0x00:
            RCC_Clocks->SYSCLK_Frequency = HSI_VALUE;
    1772:	007a17b7          	lui	a5,0x7a1
    1776:	20078793          	addi	a5,a5,512 # 7a1200 <_data_lma+0x79739c>
/home/randy/mounriver-studio-projects/UdpServer/obj/../Peripheral/src/ch32v30x_rcc.c:668

#endif
            }

            if(Pll_6_5 == 1)
                RCC_Clocks->SYSCLK_Frequency = (RCC_Clocks->SYSCLK_Frequency / 2);
    177a:	c11c                	sw	a5,0(a0)
/home/randy/mounriver-studio-projects/UdpServer/obj/../Peripheral/src/ch32v30x_rcc.c:677
        default:
            RCC_Clocks->SYSCLK_Frequency = HSI_VALUE;
            break;
    }

    tmp = RCC->CFGR0 & CFGR0_HPRE_Set_Mask;
    177c:	40021637          	lui	a2,0x40021
    1780:	425c                	lw	a5,4(a2)
/home/randy/mounriver-studio-projects/UdpServer/obj/../Peripheral/src/ch32v30x_rcc.c:679
    tmp = tmp >> 4;
    presc = APBAHBPrescTable[tmp];
    1782:	20000737          	lui	a4,0x20000
    1786:	04070713          	addi	a4,a4,64 # 20000040 <APBAHBPrescTable>
/home/randy/mounriver-studio-projects/UdpServer/obj/../Peripheral/src/ch32v30x_rcc.c:678
    tmp = tmp >> 4;
    178a:	8391                	srli	a5,a5,0x4
    178c:	8bbd                	andi	a5,a5,15
/home/randy/mounriver-studio-projects/UdpServer/obj/../Peripheral/src/ch32v30x_rcc.c:679
    presc = APBAHBPrescTable[tmp];
    178e:	97ba                	add	a5,a5,a4
    1790:	2394                	lbu	a3,0(a5)
/home/randy/mounriver-studio-projects/UdpServer/obj/../Peripheral/src/ch32v30x_rcc.c:680
    RCC_Clocks->HCLK_Frequency = RCC_Clocks->SYSCLK_Frequency >> presc;
    1792:	411c                	lw	a5,0(a0)
    1794:	00d7d7b3          	srl	a5,a5,a3
    1798:	c15c                	sw	a5,4(a0)
/home/randy/mounriver-studio-projects/UdpServer/obj/../Peripheral/src/ch32v30x_rcc.c:681
    tmp = RCC->CFGR0 & CFGR0_PPRE1_Set_Mask;
    179a:	4254                	lw	a3,4(a2)
/home/randy/mounriver-studio-projects/UdpServer/obj/../Peripheral/src/ch32v30x_rcc.c:682
    tmp = tmp >> 8;
    179c:	82a1                	srli	a3,a3,0x8
    179e:	8a9d                	andi	a3,a3,7
/home/randy/mounriver-studio-projects/UdpServer/obj/../Peripheral/src/ch32v30x_rcc.c:683
    presc = APBAHBPrescTable[tmp];
    17a0:	96ba                	add	a3,a3,a4
    17a2:	2294                	lbu	a3,0(a3)
/home/randy/mounriver-studio-projects/UdpServer/obj/../Peripheral/src/ch32v30x_rcc.c:684
    RCC_Clocks->PCLK1_Frequency = RCC_Clocks->HCLK_Frequency >> presc;
    17a4:	00d7d6b3          	srl	a3,a5,a3
    17a8:	c514                	sw	a3,8(a0)
/home/randy/mounriver-studio-projects/UdpServer/obj/../Peripheral/src/ch32v30x_rcc.c:685
    tmp = RCC->CFGR0 & CFGR0_PPRE2_Set_Mask;
    17aa:	4254                	lw	a3,4(a2)
/home/randy/mounriver-studio-projects/UdpServer/obj/../Peripheral/src/ch32v30x_rcc.c:686
    tmp = tmp >> 11;
    17ac:	82ad                	srli	a3,a3,0xb
    17ae:	8a9d                	andi	a3,a3,7
/home/randy/mounriver-studio-projects/UdpServer/obj/../Peripheral/src/ch32v30x_rcc.c:687
    presc = APBAHBPrescTable[tmp];
    17b0:	9736                	add	a4,a4,a3
    17b2:	2318                	lbu	a4,0(a4)
/home/randy/mounriver-studio-projects/UdpServer/obj/../Peripheral/src/ch32v30x_rcc.c:688
    RCC_Clocks->PCLK2_Frequency = RCC_Clocks->HCLK_Frequency >> presc;
    17b4:	00e7d7b3          	srl	a5,a5,a4
    17b8:	c55c                	sw	a5,12(a0)
/home/randy/mounriver-studio-projects/UdpServer/obj/../Peripheral/src/ch32v30x_rcc.c:689
    tmp = RCC->CFGR0 & CFGR0_ADCPRE_Set_Mask;
    17ba:	4258                	lw	a4,4(a2)
/home/randy/mounriver-studio-projects/UdpServer/obj/../Peripheral/src/ch32v30x_rcc.c:690
    tmp = tmp >> 14;
    17bc:	8339                	srli	a4,a4,0xe
    17be:	00377693          	andi	a3,a4,3
/home/randy/mounriver-studio-projects/UdpServer/obj/../Peripheral/src/ch32v30x_rcc.c:691
    presc = ADCPrescTable[tmp];
    17c2:	82018713          	addi	a4,gp,-2016 # 20000240 <ADCPrescTable>
    17c6:	9736                	add	a4,a4,a3
    17c8:	2318                	lbu	a4,0(a4)
/home/randy/mounriver-studio-projects/UdpServer/obj/../Peripheral/src/ch32v30x_rcc.c:692
    RCC_Clocks->ADCCLK_Frequency = RCC_Clocks->PCLK2_Frequency / presc;
    17ca:	02e7d7b3          	divu	a5,a5,a4
    17ce:	c91c                	sw	a5,16(a0)
/home/randy/mounriver-studio-projects/UdpServer/obj/../Peripheral/src/ch32v30x_rcc.c:693
}
    17d0:	8082                	ret
/home/randy/mounriver-studio-projects/UdpServer/obj/../Peripheral/src/ch32v30x_rcc.c:598
            pllmull = RCC->CFGR0 & CFGR0_PLLMull_Mask;
    17d2:	435c                	lw	a5,4(a4)
/home/randy/mounriver-studio-projects/UdpServer/obj/../Peripheral/src/ch32v30x_rcc.c:599
            pllsource = RCC->CFGR0 & CFGR0_PLLSRC_Mask;
    17d4:	4358                	lw	a4,4(a4)
    17d6:	66c1                	lui	a3,0x10
/home/randy/mounriver-studio-projects/UdpServer/obj/../Peripheral/src/ch32v30x_rcc.c:601
            pllmull = (pllmull >> 18) + 2;
    17d8:	83c9                	srli	a5,a5,0x12
/home/randy/mounriver-studio-projects/UdpServer/obj/../Peripheral/src/ch32v30x_rcc.c:599
            pllsource = RCC->CFGR0 & CFGR0_PLLSRC_Mask;
    17da:	8f75                	and	a4,a4,a3
/home/randy/mounriver-studio-projects/UdpServer/obj/../Peripheral/src/ch32v30x_rcc.c:603
            if(((*(uint32_t *)0x1FFFF70C) & (1 << 14)) != (1 << 14))
    17dc:	1ffff6b7          	lui	a3,0x1ffff
    17e0:	70c6a683          	lw	a3,1804(a3) # 1ffff70c <_data_lma+0x1fff58a8>
/home/randy/mounriver-studio-projects/UdpServer/obj/../Peripheral/src/ch32v30x_rcc.c:601
            pllmull = (pllmull >> 18) + 2;
    17e4:	8bbd                	andi	a5,a5,15
    17e6:	0789                	addi	a5,a5,2
/home/randy/mounriver-studio-projects/UdpServer/obj/../Peripheral/src/ch32v30x_rcc.c:603
            if(((*(uint32_t *)0x1FFFF70C) & (1 << 14)) != (1 << 14))
    17e8:	01169613          	slli	a2,a3,0x11
    17ec:	00064863          	bltz	a2,17fc <RCC_GetClocksFreq+0x9e>
/home/randy/mounriver-studio-projects/UdpServer/obj/../Peripheral/src/ch32v30x_rcc.c:605
                if(pllmull == 17)
    17f0:	46c5                	li	a3,17
/home/randy/mounriver-studio-projects/UdpServer/obj/../Peripheral/src/ch32v30x_rcc.c:578
    uint8_t Pll_6_5 = 0;
    17f2:	4601                	li	a2,0
/home/randy/mounriver-studio-projects/UdpServer/obj/../Peripheral/src/ch32v30x_rcc.c:605
                if(pllmull == 17)
    17f4:	02d79263          	bne	a5,a3,1818 <RCC_GetClocksFreq+0xba>
/home/randy/mounriver-studio-projects/UdpServer/obj/../Peripheral/src/ch32v30x_rcc.c:606
                    pllmull = 18;
    17f8:	47c9                	li	a5,18
    17fa:	a839                	j	1818 <RCC_GetClocksFreq+0xba>
/home/randy/mounriver-studio-projects/UdpServer/obj/../Peripheral/src/ch32v30x_rcc.c:610
                if(pllmull == 2)
    17fc:	4689                	li	a3,2
    17fe:	02d78f63          	beq	a5,a3,183c <RCC_GetClocksFreq+0xde>
/home/randy/mounriver-studio-projects/UdpServer/obj/../Peripheral/src/ch32v30x_rcc.c:612
                if(pllmull == 15)
    1802:	46bd                	li	a3,15
    1804:	02d78e63          	beq	a5,a3,1840 <RCC_GetClocksFreq+0xe2>
/home/randy/mounriver-studio-projects/UdpServer/obj/../Peripheral/src/ch32v30x_rcc.c:617
                if(pllmull == 16)
    1808:	46c1                	li	a3,16
    180a:	02d78e63          	beq	a5,a3,1846 <RCC_GetClocksFreq+0xe8>
/home/randy/mounriver-studio-projects/UdpServer/obj/../Peripheral/src/ch32v30x_rcc.c:619
                if(pllmull == 17)
    180e:	46c5                	li	a3,17
    1810:	4601                	li	a2,0
    1812:	00d79363          	bne	a5,a3,1818 <RCC_GetClocksFreq+0xba>
/home/randy/mounriver-studio-projects/UdpServer/obj/../Peripheral/src/ch32v30x_rcc.c:620
                    pllmull = 16;
    1816:	47c1                	li	a5,16
/home/randy/mounriver-studio-projects/UdpServer/obj/../Peripheral/src/ch32v30x_rcc.c:623
            if(pllsource == 0x00)
    1818:	ef1d                	bnez	a4,1856 <RCC_GetClocksFreq+0xf8>
/home/randy/mounriver-studio-projects/UdpServer/obj/../Peripheral/src/ch32v30x_rcc.c:625
                if(EXTEN->EXTEN_CTR & EXTEN_PLL_HSI_PRE)
    181a:	40024737          	lui	a4,0x40024
    181e:	80072703          	lw	a4,-2048(a4) # 40023800 <_eusrstack+0x20013800>
    1822:	8b41                	andi	a4,a4,16
    1824:	c705                	beqz	a4,184c <RCC_GetClocksFreq+0xee>
/home/randy/mounriver-studio-projects/UdpServer/obj/../Peripheral/src/ch32v30x_rcc.c:627
                    RCC_Clocks->SYSCLK_Frequency = (HSI_VALUE)*pllmull;
    1826:	007a1737          	lui	a4,0x7a1
    182a:	20070713          	addi	a4,a4,512 # 7a1200 <_data_lma+0x79739c>
/home/randy/mounriver-studio-projects/UdpServer/obj/../Peripheral/src/ch32v30x_rcc.c:662
                RCC_Clocks->SYSCLK_Frequency = RCC_Clocks->SYSCLK_Frequency * pllmull;
    182e:	02f707b3          	mul	a5,a4,a5
    1832:	c11c                	sw	a5,0(a0)
/home/randy/mounriver-studio-projects/UdpServer/obj/../Peripheral/src/ch32v30x_rcc.c:667
            if(Pll_6_5 == 1)
    1834:	d621                	beqz	a2,177c <RCC_GetClocksFreq+0x1e>
/home/randy/mounriver-studio-projects/UdpServer/obj/../Peripheral/src/ch32v30x_rcc.c:668
                RCC_Clocks->SYSCLK_Frequency = (RCC_Clocks->SYSCLK_Frequency / 2);
    1836:	411c                	lw	a5,0(a0)
    1838:	8385                	srli	a5,a5,0x1
    183a:	b781                	j	177a <RCC_GetClocksFreq+0x1c>
/home/randy/mounriver-studio-projects/UdpServer/obj/../Peripheral/src/ch32v30x_rcc.c:578
    uint8_t Pll_6_5 = 0;
    183c:	4601                	li	a2,0
    183e:	bf6d                	j	17f8 <RCC_GetClocksFreq+0x9a>
/home/randy/mounriver-studio-projects/UdpServer/obj/../Peripheral/src/ch32v30x_rcc.c:615
                    Pll_6_5 = 1;
    1840:	4605                	li	a2,1
/home/randy/mounriver-studio-projects/UdpServer/obj/../Peripheral/src/ch32v30x_rcc.c:614
                    pllmull = 13; /* *6.5 */
    1842:	47b5                	li	a5,13
    1844:	bfd1                	j	1818 <RCC_GetClocksFreq+0xba>
    1846:	4601                	li	a2,0
/home/randy/mounriver-studio-projects/UdpServer/obj/../Peripheral/src/ch32v30x_rcc.c:618
                    pllmull = 15;
    1848:	47bd                	li	a5,15
    184a:	b7f9                	j	1818 <RCC_GetClocksFreq+0xba>
/home/randy/mounriver-studio-projects/UdpServer/obj/../Peripheral/src/ch32v30x_rcc.c:631
                    RCC_Clocks->SYSCLK_Frequency = (HSI_VALUE >> 1) * pllmull;
    184c:	003d1737          	lui	a4,0x3d1
    1850:	90070713          	addi	a4,a4,-1792 # 3d0900 <_data_lma+0x3c6a9c>
    1854:	bfe9                	j	182e <RCC_GetClocksFreq+0xd0>
/home/randy/mounriver-studio-projects/UdpServer/obj/../Peripheral/src/ch32v30x_rcc.c:646
                if(RCC->CFGR2 & (1<<16)){ /* PLL2 */
    1856:	400215b7          	lui	a1,0x40021
    185a:	55d8                	lw	a4,44(a1)
    185c:	00f71693          	slli	a3,a4,0xf
/home/randy/mounriver-studio-projects/UdpServer/obj/../Peripheral/src/ch32v30x_rcc.c:647
                    RCC_Clocks->SYSCLK_Frequency = HSE_VALUE/(((RCC->CFGR2 & 0xF0)>>4) + 1);  /* PREDIV2 */
    1860:	55d8                	lw	a4,44(a1)
/home/randy/mounriver-studio-projects/UdpServer/obj/../Peripheral/src/ch32v30x_rcc.c:646
                if(RCC->CFGR2 & (1<<16)){ /* PLL2 */
    1862:	0406df63          	bgez	a3,18c0 <RCC_GetClocksFreq+0x162>
/home/randy/mounriver-studio-projects/UdpServer/obj/../Peripheral/src/ch32v30x_rcc.c:647
                    RCC_Clocks->SYSCLK_Frequency = HSE_VALUE/(((RCC->CFGR2 & 0xF0)>>4) + 1);  /* PREDIV2 */
    1866:	8311                	srli	a4,a4,0x4
    1868:	8b3d                	andi	a4,a4,15
    186a:	00170693          	addi	a3,a4,1
    186e:	007a1737          	lui	a4,0x7a1
    1872:	20070713          	addi	a4,a4,512 # 7a1200 <_data_lma+0x79739c>
    1876:	02d75733          	divu	a4,a4,a3
    187a:	c118                	sw	a4,0(a0)
/home/randy/mounriver-studio-projects/UdpServer/obj/../Peripheral/src/ch32v30x_rcc.c:649
                    Pll2mull = (uint8_t)((RCC->CFGR2 & 0xF00)>>8);
    187c:	55d4                	lw	a3,44(a1)
    187e:	82a1                	srli	a3,a3,0x8
    1880:	8abd                	andi	a3,a3,15
/home/randy/mounriver-studio-projects/UdpServer/obj/../Peripheral/src/ch32v30x_rcc.c:651
                    if(Pll2mull == 0) RCC_Clocks->SYSCLK_Frequency = (RCC_Clocks->SYSCLK_Frequency * 5)>>1;
    1882:	e28d                	bnez	a3,18a4 <RCC_GetClocksFreq+0x146>
/home/randy/mounriver-studio-projects/UdpServer/obj/../Peripheral/src/ch32v30x_rcc.c:651 (discriminator 1)
    1884:	4695                	li	a3,5
/home/randy/mounriver-studio-projects/UdpServer/obj/../Peripheral/src/ch32v30x_rcc.c:652 (discriminator 1)
                    else if(Pll2mull == 1) RCC_Clocks->SYSCLK_Frequency = (RCC_Clocks->SYSCLK_Frequency * 25)>>1;
    1886:	02d70733          	mul	a4,a4,a3
    188a:	8305                	srli	a4,a4,0x1
/home/randy/mounriver-studio-projects/UdpServer/obj/../Peripheral/src/ch32v30x_rcc.c:654
                    else  RCC_Clocks->SYSCLK_Frequency = RCC_Clocks->SYSCLK_Frequency * (Pll2mull + 2);
    188c:	c118                	sw	a4,0(a0)
/home/randy/mounriver-studio-projects/UdpServer/obj/../Peripheral/src/ch32v30x_rcc.c:656
                    RCC_Clocks->SYSCLK_Frequency = RCC_Clocks->SYSCLK_Frequency/((RCC->CFGR2 & 0xF) + 1);  /* PREDIV1 */
    188e:	40021737          	lui	a4,0x40021
    1892:	5758                	lw	a4,44(a4)
    1894:	4114                	lw	a3,0(a0)
    1896:	8b3d                	andi	a4,a4,15
    1898:	0705                	addi	a4,a4,1
    189a:	02e6d733          	divu	a4,a3,a4
/home/randy/mounriver-studio-projects/UdpServer/obj/../Peripheral/src/ch32v30x_rcc.c:659
                    RCC_Clocks->SYSCLK_Frequency = HSE_VALUE/((RCC->CFGR2 & 0xF) + 1);  /* PREDIV1 */
    189e:	c118                	sw	a4,0(a0)
/home/randy/mounriver-studio-projects/UdpServer/obj/../Peripheral/src/ch32v30x_rcc.c:662
                RCC_Clocks->SYSCLK_Frequency = RCC_Clocks->SYSCLK_Frequency * pllmull;
    18a0:	4118                	lw	a4,0(a0)
    18a2:	b771                	j	182e <RCC_GetClocksFreq+0xd0>
/home/randy/mounriver-studio-projects/UdpServer/obj/../Peripheral/src/ch32v30x_rcc.c:652
                    else if(Pll2mull == 1) RCC_Clocks->SYSCLK_Frequency = (RCC_Clocks->SYSCLK_Frequency * 25)>>1;
    18a4:	4585                	li	a1,1
    18a6:	00b69463          	bne	a3,a1,18ae <RCC_GetClocksFreq+0x150>
/home/randy/mounriver-studio-projects/UdpServer/obj/../Peripheral/src/ch32v30x_rcc.c:652 (discriminator 1)
    18aa:	46e5                	li	a3,25
    18ac:	bfe9                	j	1886 <RCC_GetClocksFreq+0x128>
/home/randy/mounriver-studio-projects/UdpServer/obj/../Peripheral/src/ch32v30x_rcc.c:653
                    else if(Pll2mull == 15) RCC_Clocks->SYSCLK_Frequency = RCC_Clocks->SYSCLK_Frequency * 20;
    18ae:	45bd                	li	a1,15
    18b0:	00b69663          	bne	a3,a1,18bc <RCC_GetClocksFreq+0x15e>
/home/randy/mounriver-studio-projects/UdpServer/obj/../Peripheral/src/ch32v30x_rcc.c:653 (discriminator 1)
    18b4:	46d1                	li	a3,20
/home/randy/mounriver-studio-projects/UdpServer/obj/../Peripheral/src/ch32v30x_rcc.c:654
                    else  RCC_Clocks->SYSCLK_Frequency = RCC_Clocks->SYSCLK_Frequency * (Pll2mull + 2);
    18b6:	02e68733          	mul	a4,a3,a4
    18ba:	bfc9                	j	188c <RCC_GetClocksFreq+0x12e>
    18bc:	0689                	addi	a3,a3,2
    18be:	bfe5                	j	18b6 <RCC_GetClocksFreq+0x158>
/home/randy/mounriver-studio-projects/UdpServer/obj/../Peripheral/src/ch32v30x_rcc.c:659
                    RCC_Clocks->SYSCLK_Frequency = HSE_VALUE/((RCC->CFGR2 & 0xF) + 1);  /* PREDIV1 */
    18c0:	8b3d                	andi	a4,a4,15
    18c2:	00170693          	addi	a3,a4,1 # 40021001 <_eusrstack+0x20011001>
    18c6:	007a1737          	lui	a4,0x7a1
    18ca:	20070713          	addi	a4,a4,512 # 7a1200 <_data_lma+0x79739c>
    18ce:	02d75733          	divu	a4,a4,a3
    18d2:	b7f1                	j	189e <RCC_GetClocksFreq+0x140>

000018d4 <RCC_AHBPeriphClockCmd>:
RCC_AHBPeriphClockCmd():
/home/randy/mounriver-studio-projects/UdpServer/obj/../Peripheral/src/ch32v30x_rcc.c:722
 *
 * @return  none
 */
void RCC_AHBPeriphClockCmd(uint32_t RCC_AHBPeriph, FunctionalState NewState)
{
    if(NewState != DISABLE)
    18d4:	c599                	beqz	a1,18e2 <RCC_AHBPeriphClockCmd+0xe>
/home/randy/mounriver-studio-projects/UdpServer/obj/../Peripheral/src/ch32v30x_rcc.c:724
    {
        RCC->AHBPCENR |= RCC_AHBPeriph;
    18d6:	40021737          	lui	a4,0x40021
    18da:	4b5c                	lw	a5,20(a4)
    18dc:	8d5d                	or	a0,a0,a5
    18de:	cb48                	sw	a0,20(a4)
    18e0:	8082                	ret
/home/randy/mounriver-studio-projects/UdpServer/obj/../Peripheral/src/ch32v30x_rcc.c:728
    }
    else
    {
        RCC->AHBPCENR &= ~RCC_AHBPeriph;
    18e2:	400217b7          	lui	a5,0x40021
    18e6:	4bd8                	lw	a4,20(a5)
    18e8:	fff54513          	not	a0,a0
    18ec:	8d79                	and	a0,a0,a4
    18ee:	cbc8                	sw	a0,20(a5)
/home/randy/mounriver-studio-projects/UdpServer/obj/../Peripheral/src/ch32v30x_rcc.c:730
    }
}
    18f0:	8082                	ret

000018f2 <RCC_APB2PeriphClockCmd>:
RCC_APB2PeriphClockCmd():
/home/randy/mounriver-studio-projects/UdpServer/obj/../Peripheral/src/ch32v30x_rcc.c:758
 *
 * @return  none
 */
void RCC_APB2PeriphClockCmd(uint32_t RCC_APB2Periph, FunctionalState NewState)
{
    if(NewState != DISABLE)
    18f2:	c599                	beqz	a1,1900 <RCC_APB2PeriphClockCmd+0xe>
/home/randy/mounriver-studio-projects/UdpServer/obj/../Peripheral/src/ch32v30x_rcc.c:760
    {
        RCC->APB2PCENR |= RCC_APB2Periph;
    18f4:	40021737          	lui	a4,0x40021
    18f8:	4f1c                	lw	a5,24(a4)
    18fa:	8d5d                	or	a0,a0,a5
    18fc:	cf08                	sw	a0,24(a4)
    18fe:	8082                	ret
/home/randy/mounriver-studio-projects/UdpServer/obj/../Peripheral/src/ch32v30x_rcc.c:764
    }
    else
    {
        RCC->APB2PCENR &= ~RCC_APB2Periph;
    1900:	400217b7          	lui	a5,0x40021
    1904:	4f98                	lw	a4,24(a5)
    1906:	fff54513          	not	a0,a0
    190a:	8d79                	and	a0,a0,a4
    190c:	cf88                	sw	a0,24(a5)
/home/randy/mounriver-studio-projects/UdpServer/obj/../Peripheral/src/ch32v30x_rcc.c:766
    }
}
    190e:	8082                	ret

00001910 <RCC_APB1PeriphClockCmd>:
RCC_APB1PeriphClockCmd():
/home/randy/mounriver-studio-projects/UdpServer/obj/../Peripheral/src/ch32v30x_rcc.c:803
 *
 * @return  none
 */
void RCC_APB1PeriphClockCmd(uint32_t RCC_APB1Periph, FunctionalState NewState)
{
    if(NewState != DISABLE)
    1910:	c599                	beqz	a1,191e <RCC_APB1PeriphClockCmd+0xe>
/home/randy/mounriver-studio-projects/UdpServer/obj/../Peripheral/src/ch32v30x_rcc.c:805
    {
        RCC->APB1PCENR |= RCC_APB1Periph;
    1912:	40021737          	lui	a4,0x40021
    1916:	4f5c                	lw	a5,28(a4)
    1918:	8d5d                	or	a0,a0,a5
    191a:	cf48                	sw	a0,28(a4)
    191c:	8082                	ret
/home/randy/mounriver-studio-projects/UdpServer/obj/../Peripheral/src/ch32v30x_rcc.c:809
    }
    else
    {
        RCC->APB1PCENR &= ~RCC_APB1Periph;
    191e:	400217b7          	lui	a5,0x40021
    1922:	4fd8                	lw	a4,28(a5)
    1924:	fff54513          	not	a0,a0
    1928:	8d79                	and	a0,a0,a4
    192a:	cfc8                	sw	a0,28(a5)
/home/randy/mounriver-studio-projects/UdpServer/obj/../Peripheral/src/ch32v30x_rcc.c:811
    }
}
    192c:	8082                	ret

0000192e <RCC_GetFlagStatus>:
RCC_GetFlagStatus():
/home/randy/mounriver-studio-projects/UdpServer/obj/../Peripheral/src/ch32v30x_rcc.c:987
{
    uint32_t tmp = 0;
    uint32_t statusreg = 0;

    FlagStatus bitstatus = RESET;
    tmp = RCC_FLAG >> 5;
    192e:	00555793          	srli	a5,a0,0x5
/home/randy/mounriver-studio-projects/UdpServer/obj/../Peripheral/src/ch32v30x_rcc.c:989

    if(tmp == 1)
    1932:	4705                	li	a4,1
    1934:	00e79963          	bne	a5,a4,1946 <RCC_GetFlagStatus+0x18>
/home/randy/mounriver-studio-projects/UdpServer/obj/../Peripheral/src/ch32v30x_rcc.c:991
    {
        statusreg = RCC->CTLR;
    1938:	400217b7          	lui	a5,0x40021
    193c:	439c                	lw	a5,0(a5)
/home/randy/mounriver-studio-projects/UdpServer/obj/../Peripheral/src/ch32v30x_rcc.c:1004
        statusreg = RCC->RSTSCKR;
    }

    tmp = RCC_FLAG & FLAG_Mask;

    if((statusreg & ((uint32_t)1 << tmp)) != (uint32_t)RESET)
    193e:	00a7d533          	srl	a0,a5,a0
/home/randy/mounriver-studio-projects/UdpServer/obj/../Peripheral/src/ch32v30x_rcc.c:1014
    {
        bitstatus = RESET;
    }

    return bitstatus;
}
    1942:	8905                	andi	a0,a0,1
    1944:	8082                	ret
/home/randy/mounriver-studio-projects/UdpServer/obj/../Peripheral/src/ch32v30x_rcc.c:993
    else if(tmp == 2)
    1946:	4709                	li	a4,2
    1948:	00e79663          	bne	a5,a4,1954 <RCC_GetFlagStatus+0x26>
/home/randy/mounriver-studio-projects/UdpServer/obj/../Peripheral/src/ch32v30x_rcc.c:995
        statusreg = RCC->BDCTLR;
    194c:	400217b7          	lui	a5,0x40021
    1950:	539c                	lw	a5,32(a5)
    1952:	b7f5                	j	193e <RCC_GetFlagStatus+0x10>
/home/randy/mounriver-studio-projects/UdpServer/obj/../Peripheral/src/ch32v30x_rcc.c:999
        statusreg = RCC->RSTSCKR;
    1954:	400217b7          	lui	a5,0x40021
    1958:	53dc                	lw	a5,36(a5)
    195a:	b7d5                	j	193e <RCC_GetFlagStatus+0x10>

0000195c <RCC_PREDIV2Config>:
RCC_PREDIV2Config():
/home/randy/mounriver-studio-projects/UdpServer/obj/../Peripheral/src/ch32v30x_rcc.c:1127
 */
void RCC_PREDIV2Config(uint32_t RCC_PREDIV2_Div)
{
    uint32_t tmpreg = 0;

    tmpreg = RCC->CFGR2;
    195c:	40021737          	lui	a4,0x40021
    1960:	575c                	lw	a5,44(a4)
/home/randy/mounriver-studio-projects/UdpServer/obj/../Peripheral/src/ch32v30x_rcc.c:1128
    tmpreg &= ~CFGR2_PREDIV2;
    1962:	f0f7f793          	andi	a5,a5,-241
/home/randy/mounriver-studio-projects/UdpServer/obj/../Peripheral/src/ch32v30x_rcc.c:1129
    tmpreg |= RCC_PREDIV2_Div;
    1966:	8d5d                	or	a0,a0,a5
/home/randy/mounriver-studio-projects/UdpServer/obj/../Peripheral/src/ch32v30x_rcc.c:1130
    RCC->CFGR2 = tmpreg;
    1968:	d748                	sw	a0,44(a4)
/home/randy/mounriver-studio-projects/UdpServer/obj/../Peripheral/src/ch32v30x_rcc.c:1131
}
    196a:	8082                	ret

0000196c <RCC_PLL3Config>:
RCC_PLL3Config():
/home/randy/mounriver-studio-projects/UdpServer/obj/../Peripheral/src/ch32v30x_rcc.c:1196
 */
void RCC_PLL3Config(uint32_t RCC_PLL3Mul)
{
    uint32_t tmpreg = 0;

    tmpreg = RCC->CFGR2;
    196c:	400216b7          	lui	a3,0x40021
    1970:	56dc                	lw	a5,44(a3)
/home/randy/mounriver-studio-projects/UdpServer/obj/../Peripheral/src/ch32v30x_rcc.c:1197
    tmpreg &= ~CFGR2_PLL3MUL;
    1972:	7745                	lui	a4,0xffff1
    1974:	177d                	addi	a4,a4,-1
    1976:	8ff9                	and	a5,a5,a4
/home/randy/mounriver-studio-projects/UdpServer/obj/../Peripheral/src/ch32v30x_rcc.c:1198
    tmpreg |= RCC_PLL3Mul;
    1978:	8d5d                	or	a0,a0,a5
/home/randy/mounriver-studio-projects/UdpServer/obj/../Peripheral/src/ch32v30x_rcc.c:1199
    RCC->CFGR2 = tmpreg;
    197a:	d6c8                	sw	a0,44(a3)
/home/randy/mounriver-studio-projects/UdpServer/obj/../Peripheral/src/ch32v30x_rcc.c:1200
}
    197c:	8082                	ret

0000197e <RCC_PLL3Cmd>:
RCC_PLL3Cmd():
/home/randy/mounriver-studio-projects/UdpServer/obj/../Peripheral/src/ch32v30x_rcc.c:1214
 *
 * @return  none
 */
void RCC_PLL3Cmd(FunctionalState NewState)
{
    if(NewState)
    197e:	c909                	beqz	a0,1990 <RCC_PLL3Cmd+0x12>
/home/randy/mounriver-studio-projects/UdpServer/obj/../Peripheral/src/ch32v30x_rcc.c:1216
    {
        RCC->CTLR |= (1 << 28);
    1980:	40021737          	lui	a4,0x40021
    1984:	431c                	lw	a5,0(a4)
    1986:	100006b7          	lui	a3,0x10000
    198a:	8fd5                	or	a5,a5,a3
    198c:	c31c                	sw	a5,0(a4)
    198e:	8082                	ret
/home/randy/mounriver-studio-projects/UdpServer/obj/../Peripheral/src/ch32v30x_rcc.c:1220
    }
    else
    {
        RCC->CTLR &= ~(1 << 28);
    1990:	400216b7          	lui	a3,0x40021
    1994:	429c                	lw	a5,0(a3)
    1996:	f0000737          	lui	a4,0xf0000
    199a:	177d                	addi	a4,a4,-1
    199c:	8ff9                	and	a5,a5,a4
    199e:	c29c                	sw	a5,0(a3)
/home/randy/mounriver-studio-projects/UdpServer/obj/../Peripheral/src/ch32v30x_rcc.c:1222
    }
}
    19a0:	8082                	ret

000019a2 <RCC_AHBPeriphResetCmd>:
RCC_AHBPeriphResetCmd():
/home/randy/mounriver-studio-projects/UdpServer/obj/../Peripheral/src/ch32v30x_rcc.c:1295
 *
 * @return  none
 */
void RCC_AHBPeriphResetCmd(uint32_t RCC_AHBPeriph, FunctionalState NewState)
{
    if(NewState != DISABLE)
    19a2:	c599                	beqz	a1,19b0 <RCC_AHBPeriphResetCmd+0xe>
/home/randy/mounriver-studio-projects/UdpServer/obj/../Peripheral/src/ch32v30x_rcc.c:1297
    {
        RCC->AHBRSTR |= RCC_AHBPeriph;
    19a4:	40021737          	lui	a4,0x40021
    19a8:	571c                	lw	a5,40(a4)
    19aa:	8d5d                	or	a0,a0,a5
    19ac:	d708                	sw	a0,40(a4)
    19ae:	8082                	ret
/home/randy/mounriver-studio-projects/UdpServer/obj/../Peripheral/src/ch32v30x_rcc.c:1301
    }
    else
    {
        RCC->AHBRSTR &= ~RCC_AHBPeriph;
    19b0:	400217b7          	lui	a5,0x40021
    19b4:	5798                	lw	a4,40(a5)
    19b6:	fff54513          	not	a0,a0
    19ba:	8d79                	and	a0,a0,a4
    19bc:	d788                	sw	a0,40(a5)
/home/randy/mounriver-studio-projects/UdpServer/obj/../Peripheral/src/ch32v30x_rcc.c:1303
    }
}
    19be:	8082                	ret

000019c0 <TIM_TimeBaseInit>:
TIM_TimeBaseInit():
/home/randy/mounriver-studio-projects/UdpServer/obj/../Peripheral/src/ch32v30x_tim.c:110
 */
void TIM_TimeBaseInit(TIM_TypeDef *TIMx, TIM_TimeBaseInitTypeDef *TIM_TimeBaseInitStruct)
{
    uint16_t tmpcr1 = 0;

    tmpcr1 = TIMx->CTLR1;
    19c0:	211e                	lhu	a5,0(a0)
/home/randy/mounriver-studio-projects/UdpServer/obj/../Peripheral/src/ch32v30x_tim.c:112

    if((TIMx == TIM1) || (TIMx == TIM2) || (TIMx == TIM3) || (TIMx == TIM4) ||
    19c2:	40013737          	lui	a4,0x40013
    19c6:	c0070693          	addi	a3,a4,-1024 # 40012c00 <_eusrstack+0x20002c00>
/home/randy/mounriver-studio-projects/UdpServer/obj/../Peripheral/src/ch32v30x_tim.c:110
    tmpcr1 = TIMx->CTLR1;
    19ca:	07c2                	slli	a5,a5,0x10
    19cc:	83c1                	srli	a5,a5,0x10
/home/randy/mounriver-studio-projects/UdpServer/obj/../Peripheral/src/ch32v30x_tim.c:112
    if((TIMx == TIM1) || (TIMx == TIM2) || (TIMx == TIM3) || (TIMx == TIM4) ||
    19ce:	04d50063          	beq	a0,a3,1a0e <TIM_TimeBaseInit+0x4e>
/home/randy/mounriver-studio-projects/UdpServer/obj/../Peripheral/src/ch32v30x_tim.c:112 (discriminator 1)
    19d2:	400006b7          	lui	a3,0x40000
    19d6:	02d50c63          	beq	a0,a3,1a0e <TIM_TimeBaseInit+0x4e>
/home/randy/mounriver-studio-projects/UdpServer/obj/../Peripheral/src/ch32v30x_tim.c:112 (discriminator 2)
    19da:	40068693          	addi	a3,a3,1024 # 40000400 <_eusrstack+0x1fff0400>
    19de:	02d50863          	beq	a0,a3,1a0e <TIM_TimeBaseInit+0x4e>
/home/randy/mounriver-studio-projects/UdpServer/obj/../Peripheral/src/ch32v30x_tim.c:112 (discriminator 3)
    19e2:	400016b7          	lui	a3,0x40001
    19e6:	80068613          	addi	a2,a3,-2048 # 40000800 <_eusrstack+0x1fff0800>
    19ea:	02c50263          	beq	a0,a2,1a0e <TIM_TimeBaseInit+0x4e>
/home/randy/mounriver-studio-projects/UdpServer/obj/../Peripheral/src/ch32v30x_tim.c:112 (discriminator 4)
    19ee:	c0068693          	addi	a3,a3,-1024
    19f2:	00d50e63          	beq	a0,a3,1a0e <TIM_TimeBaseInit+0x4e>
/home/randy/mounriver-studio-projects/UdpServer/obj/../Peripheral/src/ch32v30x_tim.c:113
       (TIMx == TIM5) || (TIMx == TIM8) || (TIMx == TIM9) || (TIMx == TIM10))
    19f6:	40070713          	addi	a4,a4,1024
    19fa:	00e50a63          	beq	a0,a4,1a0e <TIM_TimeBaseInit+0x4e>
/home/randy/mounriver-studio-projects/UdpServer/obj/../Peripheral/src/ch32v30x_tim.c:113 (discriminator 1)
    19fe:	40015737          	lui	a4,0x40015
    1a02:	c0070693          	addi	a3,a4,-1024 # 40014c00 <_eusrstack+0x20004c00>
    1a06:	00d50463          	beq	a0,a3,1a0e <TIM_TimeBaseInit+0x4e>
/home/randy/mounriver-studio-projects/UdpServer/obj/../Peripheral/src/ch32v30x_tim.c:113 (discriminator 2)
    1a0a:	00e51663          	bne	a0,a4,1a16 <TIM_TimeBaseInit+0x56>
/home/randy/mounriver-studio-projects/UdpServer/obj/../Peripheral/src/ch32v30x_tim.c:116
    {
        tmpcr1 &= (uint16_t)(~((uint16_t)(TIM_DIR | TIM_CMS)));
        tmpcr1 |= (uint32_t)TIM_TimeBaseInitStruct->TIM_CounterMode;
    1a0e:	21ba                	lhu	a4,2(a1)
/home/randy/mounriver-studio-projects/UdpServer/obj/../Peripheral/src/ch32v30x_tim.c:115
        tmpcr1 &= (uint16_t)(~((uint16_t)(TIM_DIR | TIM_CMS)));
    1a10:	f8f7f793          	andi	a5,a5,-113
/home/randy/mounriver-studio-projects/UdpServer/obj/../Peripheral/src/ch32v30x_tim.c:116
        tmpcr1 |= (uint32_t)TIM_TimeBaseInitStruct->TIM_CounterMode;
    1a14:	8fd9                	or	a5,a5,a4
/home/randy/mounriver-studio-projects/UdpServer/obj/../Peripheral/src/ch32v30x_tim.c:119
    }

    if((TIMx != TIM6) && (TIMx != TIM7))
    1a16:	40001737          	lui	a4,0x40001
    1a1a:	00e50c63          	beq	a0,a4,1a32 <TIM_TimeBaseInit+0x72>
/home/randy/mounriver-studio-projects/UdpServer/obj/../Peripheral/src/ch32v30x_tim.c:119 (discriminator 1)
    1a1e:	40070713          	addi	a4,a4,1024 # 40001400 <_eusrstack+0x1fff1400>
    1a22:	00e50863          	beq	a0,a4,1a32 <TIM_TimeBaseInit+0x72>
/home/randy/mounriver-studio-projects/UdpServer/obj/../Peripheral/src/ch32v30x_tim.c:121
    {
        tmpcr1 &= (uint16_t)(~((uint16_t)TIM_CTLR1_CKD));
    1a26:	cff7f793          	andi	a5,a5,-769
/home/randy/mounriver-studio-projects/UdpServer/obj/../Peripheral/src/ch32v30x_tim.c:122
        tmpcr1 |= (uint32_t)TIM_TimeBaseInitStruct->TIM_ClockDivision;
    1a2a:	21fa                	lhu	a4,6(a1)
/home/randy/mounriver-studio-projects/UdpServer/obj/../Peripheral/src/ch32v30x_tim.c:121
        tmpcr1 &= (uint16_t)(~((uint16_t)TIM_CTLR1_CKD));
    1a2c:	07c2                	slli	a5,a5,0x10
    1a2e:	83c1                	srli	a5,a5,0x10
/home/randy/mounriver-studio-projects/UdpServer/obj/../Peripheral/src/ch32v30x_tim.c:122
        tmpcr1 |= (uint32_t)TIM_TimeBaseInitStruct->TIM_ClockDivision;
    1a30:	8fd9                	or	a5,a5,a4
/home/randy/mounriver-studio-projects/UdpServer/obj/../Peripheral/src/ch32v30x_tim.c:125
    }

    TIMx->CTLR1 = tmpcr1;
    1a32:	a11e                	sh	a5,0(a0)
/home/randy/mounriver-studio-projects/UdpServer/obj/../Peripheral/src/ch32v30x_tim.c:126
    TIMx->ATRLR = TIM_TimeBaseInitStruct->TIM_Period;
    1a34:	21de                	lhu	a5,4(a1)
    1a36:	b55e                	sh	a5,44(a0)
/home/randy/mounriver-studio-projects/UdpServer/obj/../Peripheral/src/ch32v30x_tim.c:127
    TIMx->PSC = TIM_TimeBaseInitStruct->TIM_Prescaler;
    1a38:	219e                	lhu	a5,0(a1)
    1a3a:	b51e                	sh	a5,40(a0)
/home/randy/mounriver-studio-projects/UdpServer/obj/../Peripheral/src/ch32v30x_tim.c:129

    if((TIMx == TIM1) || (TIMx == TIM8) || (TIMx == TIM9) || (TIMx == TIM10))
    1a3c:	400137b7          	lui	a5,0x40013
    1a40:	c0078713          	addi	a4,a5,-1024 # 40012c00 <_eusrstack+0x20002c00>
    1a44:	00e50e63          	beq	a0,a4,1a60 <TIM_TimeBaseInit+0xa0>
/home/randy/mounriver-studio-projects/UdpServer/obj/../Peripheral/src/ch32v30x_tim.c:129 (discriminator 1)
    1a48:	40078793          	addi	a5,a5,1024
    1a4c:	00f50a63          	beq	a0,a5,1a60 <TIM_TimeBaseInit+0xa0>
/home/randy/mounriver-studio-projects/UdpServer/obj/../Peripheral/src/ch32v30x_tim.c:129 (discriminator 2)
    1a50:	400157b7          	lui	a5,0x40015
    1a54:	c0078713          	addi	a4,a5,-1024 # 40014c00 <_eusrstack+0x20004c00>
    1a58:	00e50463          	beq	a0,a4,1a60 <TIM_TimeBaseInit+0xa0>
/home/randy/mounriver-studio-projects/UdpServer/obj/../Peripheral/src/ch32v30x_tim.c:129 (discriminator 3)
    1a5c:	00f51463          	bne	a0,a5,1a64 <TIM_TimeBaseInit+0xa4>
/home/randy/mounriver-studio-projects/UdpServer/obj/../Peripheral/src/ch32v30x_tim.c:131
    {
        TIMx->RPTCR = TIM_TimeBaseInitStruct->TIM_RepetitionCounter;
    1a60:	259c                	lbu	a5,8(a1)
    1a62:	b91e                	sh	a5,48(a0)
/home/randy/mounriver-studio-projects/UdpServer/obj/../Peripheral/src/ch32v30x_tim.c:134
    }

    TIMx->SWEVGR = TIM_PSCReloadMode_Immediate;
    1a64:	4785                	li	a5,1
    1a66:	a95e                	sh	a5,20(a0)
/home/randy/mounriver-studio-projects/UdpServer/obj/../Peripheral/src/ch32v30x_tim.c:135
}
    1a68:	8082                	ret

00001a6a <TIM_TimeBaseStructInit>:
TIM_TimeBaseStructInit():
/home/randy/mounriver-studio-projects/UdpServer/obj/../Peripheral/src/ch32v30x_tim.c:436
 *
 * @return  none
 */
void TIM_TimeBaseStructInit(TIM_TimeBaseInitTypeDef *TIM_TimeBaseInitStruct)
{
    TIM_TimeBaseInitStruct->TIM_Period = 0xFFFF;
    1a6a:	57fd                	li	a5,-1
    1a6c:	a15e                	sh	a5,4(a0)
/home/randy/mounriver-studio-projects/UdpServer/obj/../Peripheral/src/ch32v30x_tim.c:437
    TIM_TimeBaseInitStruct->TIM_Prescaler = 0x0000;
    1a6e:	00051023          	sh	zero,0(a0)
/home/randy/mounriver-studio-projects/UdpServer/obj/../Peripheral/src/ch32v30x_tim.c:438
    TIM_TimeBaseInitStruct->TIM_ClockDivision = TIM_CKD_DIV1;
    1a72:	00051323          	sh	zero,6(a0)
/home/randy/mounriver-studio-projects/UdpServer/obj/../Peripheral/src/ch32v30x_tim.c:439
    TIM_TimeBaseInitStruct->TIM_CounterMode = TIM_CounterMode_Up;
    1a76:	00051123          	sh	zero,2(a0)
/home/randy/mounriver-studio-projects/UdpServer/obj/../Peripheral/src/ch32v30x_tim.c:440
    TIM_TimeBaseInitStruct->TIM_RepetitionCounter = 0x0000;
    1a7a:	00050423          	sb	zero,8(a0)
/home/randy/mounriver-studio-projects/UdpServer/obj/../Peripheral/src/ch32v30x_tim.c:441
}
    1a7e:	8082                	ret

00001a80 <TIM_Cmd>:
TIM_Cmd():
/home/randy/mounriver-studio-projects/UdpServer/obj/../Peripheral/src/ch32v30x_tim.c:516
 */
void TIM_Cmd(TIM_TypeDef *TIMx, FunctionalState NewState)
{
    if(NewState != DISABLE)
    {
        TIMx->CTLR1 |= TIM_CEN;
    1a80:	211e                	lhu	a5,0(a0)
/home/randy/mounriver-studio-projects/UdpServer/obj/../Peripheral/src/ch32v30x_tim.c:514
    if(NewState != DISABLE)
    1a82:	c589                	beqz	a1,1a8c <TIM_Cmd+0xc>
/home/randy/mounriver-studio-projects/UdpServer/obj/../Peripheral/src/ch32v30x_tim.c:516
        TIMx->CTLR1 |= TIM_CEN;
    1a84:	0017e793          	ori	a5,a5,1
/home/randy/mounriver-studio-projects/UdpServer/obj/../Peripheral/src/ch32v30x_tim.c:520
    }
    else
    {
        TIMx->CTLR1 &= (uint16_t)(~((uint16_t)TIM_CEN));
    1a88:	a11e                	sh	a5,0(a0)
/home/randy/mounriver-studio-projects/UdpServer/obj/../Peripheral/src/ch32v30x_tim.c:522
    }
}
    1a8a:	8082                	ret
/home/randy/mounriver-studio-projects/UdpServer/obj/../Peripheral/src/ch32v30x_tim.c:520
        TIMx->CTLR1 &= (uint16_t)(~((uint16_t)TIM_CEN));
    1a8c:	07c2                	slli	a5,a5,0x10
    1a8e:	83c1                	srli	a5,a5,0x10
    1a90:	9bf9                	andi	a5,a5,-2
    1a92:	07c2                	slli	a5,a5,0x10
    1a94:	83c1                	srli	a5,a5,0x10
    1a96:	bfcd                	j	1a88 <TIM_Cmd+0x8>

00001a98 <TIM_ITConfig>:
TIM_ITConfig():
/home/randy/mounriver-studio-projects/UdpServer/obj/../Peripheral/src/ch32v30x_tim.c:570
 */
void TIM_ITConfig(TIM_TypeDef *TIMx, uint16_t TIM_IT, FunctionalState NewState)
{
    if(NewState != DISABLE)
    {
        TIMx->DMAINTENR |= TIM_IT;
    1a98:	255e                	lhu	a5,12(a0)
/home/randy/mounriver-studio-projects/UdpServer/obj/../Peripheral/src/ch32v30x_tim.c:568
    if(NewState != DISABLE)
    1a9a:	c601                	beqz	a2,1aa2 <TIM_ITConfig+0xa>
/home/randy/mounriver-studio-projects/UdpServer/obj/../Peripheral/src/ch32v30x_tim.c:570
        TIMx->DMAINTENR |= TIM_IT;
    1a9c:	8ddd                	or	a1,a1,a5
/home/randy/mounriver-studio-projects/UdpServer/obj/../Peripheral/src/ch32v30x_tim.c:574
    }
    else
    {
        TIMx->DMAINTENR &= (uint16_t)~TIM_IT;
    1a9e:	a54e                	sh	a1,12(a0)
/home/randy/mounriver-studio-projects/UdpServer/obj/../Peripheral/src/ch32v30x_tim.c:576
    }
}
    1aa0:	8082                	ret
/home/randy/mounriver-studio-projects/UdpServer/obj/../Peripheral/src/ch32v30x_tim.c:574
        TIMx->DMAINTENR &= (uint16_t)~TIM_IT;
    1aa2:	fff5c593          	not	a1,a1
    1aa6:	8dfd                	and	a1,a1,a5
    1aa8:	bfdd                	j	1a9e <TIM_ITConfig+0x6>

00001aaa <TIM_GetFlagStatus>:
TIM_GetFlagStatus():
/home/randy/mounriver-studio-projects/UdpServer/obj/../Peripheral/src/ch32v30x_tim.c:2094
 */
FlagStatus TIM_GetFlagStatus(TIM_TypeDef *TIMx, uint16_t TIM_FLAG)
{
    ITStatus bitstatus = RESET;

    if((TIMx->INTFR & TIM_FLAG) != (uint16_t)RESET)
    1aaa:	290a                	lhu	a0,16(a0)
    1aac:	8d6d                	and	a0,a0,a1
/home/randy/mounriver-studio-projects/UdpServer/obj/../Peripheral/src/ch32v30x_tim.c:2104
    {
        bitstatus = RESET;
    }

    return bitstatus;
}
    1aae:	00a03533          	snez	a0,a0
    1ab2:	8082                	ret

00001ab4 <TIM_ClearFlag>:
TIM_ClearFlag():
/home/randy/mounriver-studio-projects/UdpServer/obj/../Peripheral/src/ch32v30x_tim.c:2131
 * 
 * @return  none
 */
void TIM_ClearFlag(TIM_TypeDef *TIMx, uint16_t TIM_FLAG)
{
    TIMx->INTFR = (uint16_t)~TIM_FLAG;
    1ab4:	fff5c593          	not	a1,a1
    1ab8:	05c2                	slli	a1,a1,0x10
    1aba:	81c1                	srli	a1,a1,0x10
    1abc:	a90e                	sh	a1,16(a0)
/home/randy/mounriver-studio-projects/UdpServer/obj/../Peripheral/src/ch32v30x_tim.c:2132
}
    1abe:	8082                	ret

00001ac0 <TIM_ClearITPendingBit>:
TIM_ClearITPendingBit():
    1ac0:	fff5c593          	not	a1,a1
    1ac4:	05c2                	slli	a1,a1,0x10
    1ac6:	81c1                	srli	a1,a1,0x10
    1ac8:	a90e                	sh	a1,16(a0)
    1aca:	8082                	ret

00001acc <USART_Init>:
USART_Init():
/home/randy/mounriver-studio-projects/UdpServer/obj/../Peripheral/src/ch32v30x_usart.c:122
 *        USART peripheral.
 *
 * @return  none
 */
void USART_Init(USART_TypeDef *USARTx, USART_InitTypeDef *USART_InitStruct)
{
    1acc:	f24fe2ef          	jal	t0,1f0 <__riscv_save_0>
/home/randy/mounriver-studio-projects/UdpServer/obj/../Peripheral/src/ch32v30x_usart.c:134
    if(USART_InitStruct->USART_HardwareFlowControl != USART_HardwareFlowControl_None)
    {
    }

    usartxbase = (uint32_t)USARTx;
    tmpreg = USARTx->CTLR2;
    1ad0:	2916                	lhu	a3,16(a0)
    1ad2:	77f5                	lui	a5,0xffffd
    1ad4:	17fd                	addi	a5,a5,-1
    1ad6:	8ff5                	and	a5,a5,a3
    1ad8:	21f6                	lhu	a3,6(a1)
/home/randy/mounriver-studio-projects/UdpServer/obj/../Peripheral/src/ch32v30x_usart.c:129
    if(USART_InitStruct->USART_HardwareFlowControl != USART_HardwareFlowControl_None)
    1ada:	25da                	lhu	a4,12(a1)
/home/randy/mounriver-studio-projects/UdpServer/obj/../Peripheral/src/ch32v30x_usart.c:122
{
    1adc:	7179                	addi	sp,sp,-48
    1ade:	8fd5                	or	a5,a5,a3
/home/randy/mounriver-studio-projects/UdpServer/obj/../Peripheral/src/ch32v30x_usart.c:138
    tmpreg &= CTLR2_STOP_CLEAR_Mask;
    tmpreg |= (uint32_t)USART_InitStruct->USART_StopBits;

    USARTx->CTLR2 = (uint16_t)tmpreg;
    1ae0:	a91e                	sh	a5,16(a0)
/home/randy/mounriver-studio-projects/UdpServer/obj/../Peripheral/src/ch32v30x_usart.c:139
    tmpreg = USARTx->CTLR1;
    1ae2:	2556                	lhu	a3,12(a0)
/home/randy/mounriver-studio-projects/UdpServer/obj/../Peripheral/src/ch32v30x_usart.c:141
    tmpreg &= CTLR1_CLEAR_Mask;
    tmpreg |= (uint32_t)USART_InitStruct->USART_WordLength | USART_InitStruct->USART_Parity |
    1ae4:	77fd                	lui	a5,0xfffff
    1ae6:	9f378793          	addi	a5,a5,-1549 # ffffe9f3 <_eusrstack+0xdffee9f3>
    1aea:	8ff5                	and	a5,a5,a3
    1aec:	21d6                	lhu	a3,4(a1)
/home/randy/mounriver-studio-projects/UdpServer/obj/../Peripheral/src/ch32v30x_usart.c:122
{
    1aee:	842a                	mv	s0,a0
    1af0:	c62e                	sw	a1,12(sp)
    1af2:	8fd5                	or	a5,a5,a3
    1af4:	2596                	lhu	a3,8(a1)
    1af6:	8fd5                	or	a5,a5,a3
    1af8:	25b6                	lhu	a3,10(a1)
    1afa:	8fd5                	or	a5,a5,a3
/home/randy/mounriver-studio-projects/UdpServer/obj/../Peripheral/src/ch32v30x_usart.c:143
              USART_InitStruct->USART_Mode;
    USARTx->CTLR1 = (uint16_t)tmpreg;
    1afc:	a55e                	sh	a5,12(a0)
/home/randy/mounriver-studio-projects/UdpServer/obj/../Peripheral/src/ch32v30x_usart.c:145

    tmpreg = USARTx->CTLR3;
    1afe:	295e                	lhu	a5,20(a0)
    1b00:	07c2                	slli	a5,a5,0x10
    1b02:	83c1                	srli	a5,a5,0x10
/home/randy/mounriver-studio-projects/UdpServer/obj/../Peripheral/src/ch32v30x_usart.c:147
    tmpreg &= CTLR3_CLEAR_Mask;
    tmpreg |= USART_InitStruct->USART_HardwareFlowControl;
    1b04:	cff7f793          	andi	a5,a5,-769
    1b08:	8fd9                	or	a5,a5,a4
/home/randy/mounriver-studio-projects/UdpServer/obj/../Peripheral/src/ch32v30x_usart.c:148
    USARTx->CTLR3 = (uint16_t)tmpreg;
    1b0a:	a95e                	sh	a5,20(a0)
/home/randy/mounriver-studio-projects/UdpServer/obj/../Peripheral/src/ch32v30x_usart.c:150

    RCC_GetClocksFreq(&RCC_ClocksStatus);
    1b0c:	0868                	addi	a0,sp,28
    1b0e:	c51ff0ef          	jal	ra,175e <RCC_GetClocksFreq>
/home/randy/mounriver-studio-projects/UdpServer/obj/../Peripheral/src/ch32v30x_usart.c:152

    if(usartxbase == USART1_BASE)
    1b12:	400147b7          	lui	a5,0x40014
    1b16:	80078793          	addi	a5,a5,-2048 # 40013800 <_eusrstack+0x20003800>
    1b1a:	45b2                	lw	a1,12(sp)
    1b1c:	02f41e63          	bne	s0,a5,1b58 <USART_Init+0x8c>
/home/randy/mounriver-studio-projects/UdpServer/obj/../Peripheral/src/ch32v30x_usart.c:154
    {
        apbclock = RCC_ClocksStatus.PCLK2_Frequency;
    1b20:	57a2                	lw	a5,40(sp)
/home/randy/mounriver-studio-projects/UdpServer/obj/../Peripheral/src/ch32v30x_usart.c:161
    else
    {
        apbclock = RCC_ClocksStatus.PCLK1_Frequency;
    }

    integerdivider = ((25 * apbclock) / (4 * (USART_InitStruct->USART_BaudRate)));
    1b22:	4765                	li	a4,25
    1b24:	02e787b3          	mul	a5,a5,a4
    1b28:	4198                	lw	a4,0(a1)
/home/randy/mounriver-studio-projects/UdpServer/obj/../Peripheral/src/ch32v30x_usart.c:162
    tmpreg = (integerdivider / 100) << 4;
    1b2a:	06400693          	li	a3,100
/home/randy/mounriver-studio-projects/UdpServer/obj/../Peripheral/src/ch32v30x_usart.c:161
    integerdivider = ((25 * apbclock) / (4 * (USART_InitStruct->USART_BaudRate)));
    1b2e:	070a                	slli	a4,a4,0x2
    1b30:	02e7d7b3          	divu	a5,a5,a4
/home/randy/mounriver-studio-projects/UdpServer/obj/../Peripheral/src/ch32v30x_usart.c:162
    tmpreg = (integerdivider / 100) << 4;
    1b34:	02d7d733          	divu	a4,a5,a3
/home/randy/mounriver-studio-projects/UdpServer/obj/../Peripheral/src/ch32v30x_usart.c:164
    fractionaldivider = integerdivider - (100 * (tmpreg >> 4));
    tmpreg |= ((((fractionaldivider * 16) + 50) / 100)) & ((uint8_t)0x0F);
    1b38:	02d7f7b3          	remu	a5,a5,a3
/home/randy/mounriver-studio-projects/UdpServer/obj/../Peripheral/src/ch32v30x_usart.c:162
    tmpreg = (integerdivider / 100) << 4;
    1b3c:	0712                	slli	a4,a4,0x4
/home/randy/mounriver-studio-projects/UdpServer/obj/../Peripheral/src/ch32v30x_usart.c:164
    tmpreg |= ((((fractionaldivider * 16) + 50) / 100)) & ((uint8_t)0x0F);
    1b3e:	0792                	slli	a5,a5,0x4
    1b40:	03278793          	addi	a5,a5,50
    1b44:	02d7d7b3          	divu	a5,a5,a3
    1b48:	8bbd                	andi	a5,a5,15
    1b4a:	8fd9                	or	a5,a5,a4
/home/randy/mounriver-studio-projects/UdpServer/obj/../Peripheral/src/ch32v30x_usart.c:165
    USARTx->BRR = (uint16_t)tmpreg;
    1b4c:	07c2                	slli	a5,a5,0x10
    1b4e:	83c1                	srli	a5,a5,0x10
    1b50:	a41e                	sh	a5,8(s0)
/home/randy/mounriver-studio-projects/UdpServer/obj/../Peripheral/src/ch32v30x_usart.c:166
}
    1b52:	6145                	addi	sp,sp,48
    1b54:	ec0fe06f          	j	214 <__riscv_restore_0>
/home/randy/mounriver-studio-projects/UdpServer/obj/../Peripheral/src/ch32v30x_usart.c:158
        apbclock = RCC_ClocksStatus.PCLK1_Frequency;
    1b58:	5792                	lw	a5,36(sp)
    1b5a:	b7e1                	j	1b22 <USART_Init+0x56>

00001b5c <USART_Cmd>:
USART_Cmd():
/home/randy/mounriver-studio-projects/UdpServer/obj/../Peripheral/src/ch32v30x_usart.c:244
 *
 * @return  none
 */
void USART_Cmd(USART_TypeDef *USARTx, FunctionalState NewState)
{
    if(NewState != DISABLE)
    1b5c:	c591                	beqz	a1,1b68 <USART_Cmd+0xc>
/home/randy/mounriver-studio-projects/UdpServer/obj/../Peripheral/src/ch32v30x_usart.c:246
    {
        USARTx->CTLR1 |= CTLR1_UE_Set;
    1b5e:	255e                	lhu	a5,12(a0)
    1b60:	6709                	lui	a4,0x2
    1b62:	8fd9                	or	a5,a5,a4
/home/randy/mounriver-studio-projects/UdpServer/obj/../Peripheral/src/ch32v30x_usart.c:250
    }
    else
    {
        USARTx->CTLR1 &= CTLR1_UE_Reset;
    1b64:	a55e                	sh	a5,12(a0)
/home/randy/mounriver-studio-projects/UdpServer/obj/../Peripheral/src/ch32v30x_usart.c:252
    }
}
    1b66:	8082                	ret
/home/randy/mounriver-studio-projects/UdpServer/obj/../Peripheral/src/ch32v30x_usart.c:250
        USARTx->CTLR1 &= CTLR1_UE_Reset;
    1b68:	255a                	lhu	a4,12(a0)
    1b6a:	77f9                	lui	a5,0xffffe
    1b6c:	17fd                	addi	a5,a5,-1
    1b6e:	8ff9                	and	a5,a5,a4
    1b70:	bfd5                	j	1b64 <USART_Cmd+0x8>

00001b72 <USART_SendData>:
USART_SendData():
/home/randy/mounriver-studio-projects/UdpServer/obj/../Peripheral/src/ch32v30x_usart.c:447
 *
 * @return  none
 */
void USART_SendData(USART_TypeDef *USARTx, uint16_t Data)
{
    USARTx->DATAR = (Data & (uint16_t)0x01FF);
    1b72:	1ff5f593          	andi	a1,a1,511
    1b76:	a14e                	sh	a1,4(a0)
/home/randy/mounriver-studio-projects/UdpServer/obj/../Peripheral/src/ch32v30x_usart.c:448
}
    1b78:	8082                	ret

00001b7a <USART_GetFlagStatus>:
USART_GetFlagStatus():
/home/randy/mounriver-studio-projects/UdpServer/obj/../Peripheral/src/ch32v30x_usart.c:649
 */
FlagStatus USART_GetFlagStatus(USART_TypeDef *USARTx, uint16_t USART_FLAG)
{
    FlagStatus bitstatus = RESET;

    if((USARTx->STATR & USART_FLAG) != (uint16_t)RESET)
    1b7a:	210a                	lhu	a0,0(a0)
    1b7c:	8d6d                	and	a0,a0,a1
/home/randy/mounriver-studio-projects/UdpServer/obj/../Peripheral/src/ch32v30x_usart.c:658
    else
    {
        bitstatus = RESET;
    }
    return bitstatus;
}
    1b7e:	00a03533          	snez	a0,a0
    1b82:	8082                	ret

00001b84 <ETH_TxPktChainMode>:
ETH_TxPktChainMode():
/home/randy/mounriver-studio-projects/UdpServer/obj/../NetLib/eth_driver_10M.c:805
 * @return  Send status.
 */
uint32_t ETH_TxPktChainMode(uint16_t len, uint32_t *pBuff )
{
    /* Check if the descriptor is owned by the ETHERNET DMA (when set) or CPU (when reset) */
    if((DMATxDescToSet->Status & ETH_DMATxDesc_OWN) != (u32)RESET)
    1b84:	8741a783          	lw	a5,-1932(gp) # 20000294 <DMATxDescToSet>
    1b88:	4398                	lw	a4,0(a5)
    1b8a:	02074b63          	bltz	a4,1bc0 <ETH_TxPktChainMode+0x3c>
/home/randy/mounriver-studio-projects/UdpServer/obj/../NetLib/eth_driver_10M.c:818

    /* Setting the last segment and first segment bits (in this case a frame is transmitted in one descriptor) */
#if HARDWARE_CHECKSUM_CONFIG
    DMATxDescToSet->Status |= ETH_DMATxDesc_LS | ETH_DMATxDesc_FS | ETH_DMATxDesc_CIC_TCPUDPICMP_Full;
#else
    DMATxDescToSet->Status |= ETH_DMATxDesc_LS | ETH_DMATxDesc_FS;
    1b8e:	4398                	lw	a4,0(a5)
    1b90:	30000637          	lui	a2,0x30000
/home/randy/mounriver-studio-projects/UdpServer/obj/../NetLib/eth_driver_10M.c:811
    DMATxDescToSet->ControlBufferSize = (len & ETH_DMATxDesc_TBS1);
    1b94:	054e                	slli	a0,a0,0x13
/home/randy/mounriver-studio-projects/UdpServer/obj/../NetLib/eth_driver_10M.c:818
    DMATxDescToSet->Status |= ETH_DMATxDesc_LS | ETH_DMATxDesc_FS;
    1b96:	8f51                	or	a4,a4,a2
    1b98:	c398                	sw	a4,0(a5)
/home/randy/mounriver-studio-projects/UdpServer/obj/../NetLib/eth_driver_10M.c:822
#endif

    /* Set Own bit of the Tx descriptor Status: gives the buffer back to ETHERNET DMA */
    DMATxDescToSet->Status |= ETH_DMATxDesc_OWN;
    1b9a:	4398                	lw	a4,0(a5)
    1b9c:	80000637          	lui	a2,0x80000
/home/randy/mounriver-studio-projects/UdpServer/obj/../NetLib/eth_driver_10M.c:811
    DMATxDescToSet->ControlBufferSize = (len & ETH_DMATxDesc_TBS1);
    1ba0:	814d                	srli	a0,a0,0x13
/home/randy/mounriver-studio-projects/UdpServer/obj/../NetLib/eth_driver_10M.c:822
    DMATxDescToSet->Status |= ETH_DMATxDesc_OWN;
    1ba2:	8f51                	or	a4,a4,a2
    1ba4:	c398                	sw	a4,0(a5)
/home/randy/mounriver-studio-projects/UdpServer/obj/../NetLib/eth_driver_10M.c:811
    DMATxDescToSet->ControlBufferSize = (len & ETH_DMATxDesc_TBS1);
    1ba6:	c3c8                	sw	a0,4(a5)
/home/randy/mounriver-studio-projects/UdpServer/obj/../NetLib/eth_driver_10M.c:812
    DMATxDescToSet->Buffer1Addr = (uint32_t)pBuff;
    1ba8:	c78c                	sw	a1,8(a5)
/home/randy/mounriver-studio-projects/UdpServer/obj/../NetLib/eth_driver_10M.c:825

    /* Clear TBUS ETHERNET DMA flag */
    ETH->DMASR = ETH_DMASR_TBUS;
    1baa:	40029737          	lui	a4,0x40029
    1bae:	4611                	li	a2,4
    1bb0:	cb50                	sw	a2,20(a4)
/home/randy/mounriver-studio-projects/UdpServer/obj/../NetLib/eth_driver_10M.c:827
    /* Resume DMA transmission*/
    ETH->DMATPDR = 0;
    1bb2:	00072223          	sw	zero,4(a4) # 40029004 <_eusrstack+0x20019004>
/home/randy/mounriver-studio-projects/UdpServer/obj/../NetLib/eth_driver_10M.c:832

    /* Update the ETHERNET DMA global Tx descriptor with next Tx descriptor */
    /* Chained Mode */
    /* Selects the next DMA Tx descriptor list for next buffer to send */
    DMATxDescToSet = (ETH_DMADESCTypeDef*) (DMATxDescToSet->Buffer2NextDescAddr);
    1bb6:	47dc                	lw	a5,12(a5)
/home/randy/mounriver-studio-projects/UdpServer/obj/../NetLib/eth_driver_10M.c:834
    /* Return SUCCESS */
    return ETH_SUCCESS;
    1bb8:	4505                	li	a0,1
/home/randy/mounriver-studio-projects/UdpServer/obj/../NetLib/eth_driver_10M.c:832
    DMATxDescToSet = (ETH_DMADESCTypeDef*) (DMATxDescToSet->Buffer2NextDescAddr);
    1bba:	86f1aa23          	sw	a5,-1932(gp) # 20000294 <DMATxDescToSet>
/home/randy/mounriver-studio-projects/UdpServer/obj/../NetLib/eth_driver_10M.c:834
    return ETH_SUCCESS;
    1bbe:	8082                	ret
/home/randy/mounriver-studio-projects/UdpServer/obj/../NetLib/eth_driver_10M.c:808
        return ETH_ERROR;
    1bc0:	4501                	li	a0,0
/home/randy/mounriver-studio-projects/UdpServer/obj/../NetLib/eth_driver_10M.c:835
}
    1bc2:	8082                	ret

00001bc4 <ETH_LedDataSet>:
ETH_LedDataSet():
/home/randy/mounriver-studio-projects/UdpServer/obj/../NetLib/eth_driver_10M.c:374
{
    1bc4:	e2cfe2ef          	jal	t0,1f0 <__riscv_save_0>
/home/randy/mounriver-studio-projects/UdpServer/obj/../NetLib/eth_driver_10M.c:375
    if( mode == LED_OFF )
    1bc8:	4785                	li	a5,1
/home/randy/mounriver-studio-projects/UdpServer/obj/../NetLib/eth_driver_10M.c:377
        GPIO_SetBits(GPIOC, GPIO_Pin_1);
    1bca:	4589                	li	a1,2
/home/randy/mounriver-studio-projects/UdpServer/obj/../NetLib/eth_driver_10M.c:375
    if( mode == LED_OFF )
    1bcc:	00f51863          	bne	a0,a5,1bdc <ETH_LedDataSet+0x18>
/home/randy/mounriver-studio-projects/UdpServer/obj/../NetLib/eth_driver_10M.c:377
        GPIO_SetBits(GPIOC, GPIO_Pin_1);
    1bd0:	40011537          	lui	a0,0x40011
    1bd4:	b83ff0ef          	jal	ra,1756 <GPIO_SetBits>
/home/randy/mounriver-studio-projects/UdpServer/obj/../NetLib/eth_driver_10M.c:383
}
    1bd8:	e3cfe06f          	j	214 <__riscv_restore_0>
/home/randy/mounriver-studio-projects/UdpServer/obj/../NetLib/eth_driver_10M.c:381
        GPIO_ResetBits(GPIOC, GPIO_Pin_1);
    1bdc:	40011537          	lui	a0,0x40011
    1be0:	b7bff0ef          	jal	ra,175a <GPIO_ResetBits>
/home/randy/mounriver-studio-projects/UdpServer/obj/../NetLib/eth_driver_10M.c:383
}
    1be4:	bfd5                	j	1bd8 <ETH_LedDataSet+0x14>

00001be6 <ETH_LedLinkSet>:
ETH_LedLinkSet():
/home/randy/mounriver-studio-projects/UdpServer/obj/../NetLib/eth_driver_10M.c:355
{
    1be6:	e0afe2ef          	jal	t0,1f0 <__riscv_save_0>
/home/randy/mounriver-studio-projects/UdpServer/obj/../NetLib/eth_driver_10M.c:356
    if( mode == LED_OFF )
    1bea:	4785                	li	a5,1
/home/randy/mounriver-studio-projects/UdpServer/obj/../NetLib/eth_driver_10M.c:358
        GPIO_SetBits(GPIOC, GPIO_Pin_0);
    1bec:	4585                	li	a1,1
/home/randy/mounriver-studio-projects/UdpServer/obj/../NetLib/eth_driver_10M.c:356
    if( mode == LED_OFF )
    1bee:	00f51863          	bne	a0,a5,1bfe <ETH_LedLinkSet+0x18>
/home/randy/mounriver-studio-projects/UdpServer/obj/../NetLib/eth_driver_10M.c:358
        GPIO_SetBits(GPIOC, GPIO_Pin_0);
    1bf2:	40011537          	lui	a0,0x40011
    1bf6:	b61ff0ef          	jal	ra,1756 <GPIO_SetBits>
/home/randy/mounriver-studio-projects/UdpServer/obj/../NetLib/eth_driver_10M.c:364
}
    1bfa:	e1afe06f          	j	214 <__riscv_restore_0>
/home/randy/mounriver-studio-projects/UdpServer/obj/../NetLib/eth_driver_10M.c:362
        GPIO_ResetBits(GPIOC, GPIO_Pin_0);
    1bfe:	40011537          	lui	a0,0x40011
    1c02:	b59ff0ef          	jal	ra,175a <GPIO_ResetBits>
/home/randy/mounriver-studio-projects/UdpServer/obj/../NetLib/eth_driver_10M.c:364
}
    1c06:	bfd5                	j	1bfa <ETH_LedLinkSet+0x14>

00001c08 <WCHNET_GetMacAddr>:
WCHNET_GetMacAddr():
/home/randy/mounriver-studio-projects/UdpServer/obj/../NetLib/eth_driver_10M.c:92
        *p = *macaddr;
    1c08:	1ffff737          	lui	a4,0x1ffff
/home/randy/mounriver-studio-projects/UdpServer/obj/../NetLib/eth_driver_10M.c:86
{
    1c0c:	4781                	li	a5,0
/home/randy/mounriver-studio-projects/UdpServer/obj/../NetLib/eth_driver_10M.c:92
        *p = *macaddr;
    1c0e:	7ed70713          	addi	a4,a4,2029 # 1ffff7ed <_data_lma+0x1fff5989>
/home/randy/mounriver-studio-projects/UdpServer/obj/../NetLib/eth_driver_10M.c:90
    for(i=0;i<6;i++)
    1c12:	4699                	li	a3,6
/home/randy/mounriver-studio-projects/UdpServer/obj/../NetLib/eth_driver_10M.c:92 (discriminator 3)
        *p = *macaddr;
    1c14:	40f70633          	sub	a2,a4,a5
    1c18:	220c                	lbu	a1,0(a2)
    1c1a:	00f50633          	add	a2,a0,a5
    1c1e:	0785                	addi	a5,a5,1
    1c20:	a20c                	sb	a1,0(a2)
/home/randy/mounriver-studio-projects/UdpServer/obj/../NetLib/eth_driver_10M.c:90 (discriminator 3)
    for(i=0;i<6;i++)
    1c22:	fed799e3          	bne	a5,a3,1c14 <WCHNET_GetMacAddr+0xc>
/home/randy/mounriver-studio-projects/UdpServer/obj/../NetLib/eth_driver_10M.c:96
}
    1c26:	8082                	ret

00001c28 <WCHNET_TimeIsr>:
WCHNET_TimeIsr():
/home/randy/mounriver-studio-projects/UdpServer/obj/../NetLib/eth_driver_10M.c:107
    LocalTime += timperiod;
    1c28:	88018793          	addi	a5,gp,-1920 # 200002a0 <LocalTime>
    1c2c:	4398                	lw	a4,0(a5)
    1c2e:	953a                	add	a0,a0,a4
    1c30:	c388                	sw	a0,0(a5)
/home/randy/mounriver-studio-projects/UdpServer/obj/../NetLib/eth_driver_10M.c:108
}
    1c32:	8082                	ret

00001c34 <ETH_LedConfiguration>:
ETH_LedConfiguration():
/home/randy/mounriver-studio-projects/UdpServer/obj/../NetLib/eth_driver_10M.c:395
{
    1c34:	dbcfe2ef          	jal	t0,1f0 <__riscv_save_0>
    1c38:	1141                	addi	sp,sp,-16
/home/randy/mounriver-studio-projects/UdpServer/obj/../NetLib/eth_driver_10M.c:398
    RCC_APB2PeriphClockCmd(RCC_APB2Periph_GPIOC,ENABLE);
    1c3a:	4585                	li	a1,1
    1c3c:	4541                	li	a0,16
/home/randy/mounriver-studio-projects/UdpServer/obj/../NetLib/eth_driver_10M.c:396
    GPIO_InitTypeDef  GPIO={0};
    1c3e:	c202                	sw	zero,4(sp)
    1c40:	c402                	sw	zero,8(sp)
    1c42:	c602                	sw	zero,12(sp)
/home/randy/mounriver-studio-projects/UdpServer/obj/../NetLib/eth_driver_10M.c:398
    RCC_APB2PeriphClockCmd(RCC_APB2Periph_GPIOC,ENABLE);
    1c44:	cafff0ef          	jal	ra,18f2 <RCC_APB2PeriphClockCmd>
/home/randy/mounriver-studio-projects/UdpServer/obj/../NetLib/eth_driver_10M.c:399
    GPIO.GPIO_Pin = GPIO_Pin_0|GPIO_Pin_1;
    1c48:	478d                	li	a5,3
    1c4a:	827c                	sh	a5,4(sp)
/home/randy/mounriver-studio-projects/UdpServer/obj/../NetLib/eth_driver_10M.c:400
    GPIO.GPIO_Mode = GPIO_Mode_Out_PP;
    1c4c:	47c1                	li	a5,16
    1c4e:	c63e                	sw	a5,12(sp)
/home/randy/mounriver-studio-projects/UdpServer/obj/../NetLib/eth_driver_10M.c:402
    GPIO_Init(GPIOC,&GPIO);
    1c50:	004c                	addi	a1,sp,4
/home/randy/mounriver-studio-projects/UdpServer/obj/../NetLib/eth_driver_10M.c:401
    GPIO.GPIO_Speed = GPIO_Speed_50MHz;
    1c52:	478d                	li	a5,3
/home/randy/mounriver-studio-projects/UdpServer/obj/../NetLib/eth_driver_10M.c:402
    GPIO_Init(GPIOC,&GPIO);
    1c54:	40011537          	lui	a0,0x40011
/home/randy/mounriver-studio-projects/UdpServer/obj/../NetLib/eth_driver_10M.c:401
    GPIO.GPIO_Speed = GPIO_Speed_50MHz;
    1c58:	c43e                	sw	a5,8(sp)
/home/randy/mounriver-studio-projects/UdpServer/obj/../NetLib/eth_driver_10M.c:402
    GPIO_Init(GPIOC,&GPIO);
    1c5a:	a33ff0ef          	jal	ra,168c <GPIO_Init>
ETH_LedDataSet():
/home/randy/mounriver-studio-projects/UdpServer/obj/../NetLib/eth_driver_10M.c:377
        GPIO_SetBits(GPIOC, GPIO_Pin_1);
    1c5e:	4589                	li	a1,2
    1c60:	40011537          	lui	a0,0x40011
    1c64:	af3ff0ef          	jal	ra,1756 <GPIO_SetBits>
ETH_LedLinkSet():
/home/randy/mounriver-studio-projects/UdpServer/obj/../NetLib/eth_driver_10M.c:358
        GPIO_SetBits(GPIOC, GPIO_Pin_0);
    1c68:	4585                	li	a1,1
    1c6a:	40011537          	lui	a0,0x40011
    1c6e:	ae9ff0ef          	jal	ra,1756 <GPIO_SetBits>
ETH_LedConfiguration():
/home/randy/mounriver-studio-projects/UdpServer/obj/../NetLib/eth_driver_10M.c:405
}
    1c72:	0141                	addi	sp,sp,16
    1c74:	da0fe06f          	j	214 <__riscv_restore_0>

00001c78 <ETH_SetClock>:
ETH_SetClock():
/home/randy/mounriver-studio-projects/UdpServer/obj/../NetLib/eth_driver_10M.c:417
{
    1c78:	d78fe2ef          	jal	t0,1f0 <__riscv_save_0>
/home/randy/mounriver-studio-projects/UdpServer/obj/../NetLib/eth_driver_10M.c:418
    RCC_PLL3Cmd(DISABLE);
    1c7c:	4501                	li	a0,0
    1c7e:	3301                	jal	197e <RCC_PLL3Cmd>
/home/randy/mounriver-studio-projects/UdpServer/obj/../NetLib/eth_driver_10M.c:419
    RCC_PREDIV2Config(RCC_PREDIV2_Div2);                             /* HSE = 8M */
    1c80:	4541                	li	a0,16
    1c82:	39e9                	jal	195c <RCC_PREDIV2Config>
/home/randy/mounriver-studio-projects/UdpServer/obj/../NetLib/eth_driver_10M.c:420
    RCC_PLL3Config(RCC_PLL3Mul_15);                                  /* 4M*15 = 60MHz */
    1c84:	6535                	lui	a0,0xd
    1c86:	31dd                	jal	196c <RCC_PLL3Config>
/home/randy/mounriver-studio-projects/UdpServer/obj/../NetLib/eth_driver_10M.c:421
    RCC_PLL3Cmd(ENABLE);
    1c88:	4505                	li	a0,1
    1c8a:	39d5                	jal	197e <RCC_PLL3Cmd>
/home/randy/mounriver-studio-projects/UdpServer/obj/../NetLib/eth_driver_10M.c:422 (discriminator 1)
    while(RESET == RCC_GetFlagStatus(RCC_FLAG_PLL3RDY));
    1c8c:	03d00513          	li	a0,61
    1c90:	c9fff0ef          	jal	ra,192e <RCC_GetFlagStatus>
    1c94:	dd65                	beqz	a0,1c8c <ETH_SetClock+0x14>
/home/randy/mounriver-studio-projects/UdpServer/obj/../NetLib/eth_driver_10M.c:423
}
    1c96:	d7efe06f          	j	214 <__riscv_restore_0>

00001c9a <ETH_LinkUpCfg>:
ETH_LinkUpCfg():
/home/randy/mounriver-studio-projects/UdpServer/obj/../NetLib/eth_driver_10M.c:435
{
    1c9a:	d56fe2ef          	jal	t0,1f0 <__riscv_save_0>
/home/randy/mounriver-studio-projects/UdpServer/obj/../NetLib/eth_driver_10M.c:436
    WCHNET_PhyStatus( regval );
    1c9e:	66e000ef          	jal	ra,230c <WCHNET_PhyStatus>
/home/randy/mounriver-studio-projects/UdpServer/obj/../NetLib/eth_driver_10M.c:437
    ETH->MACCR &= ~(ETH_Speed_100M|ETH_Speed_1000M);
    1ca2:	400287b7          	lui	a5,0x40028
    1ca6:	4398                	lw	a4,0(a5)
    1ca8:	76d1                	lui	a3,0xffff4
    1caa:	16fd                	addi	a3,a3,-1
    1cac:	8f75                	and	a4,a4,a3
    1cae:	c398                	sw	a4,0(a5)
/home/randy/mounriver-studio-projects/UdpServer/obj/../NetLib/eth_driver_10M.c:438
    phyStatus = PHY_Linked_Status;
    1cb0:	4691                	li	a3,4
    1cb2:	8ad182a3          	sb	a3,-1883(gp) # 200002c5 <phyStatus>
/home/randy/mounriver-studio-projects/UdpServer/obj/../NetLib/eth_driver_10M.c:441
    ETH->MACFFR |= (ETH_ReceiveAll_Enable | ETH_PromiscuousMode_Enable);
    1cb6:	43d8                	lw	a4,4(a5)
    1cb8:	800006b7          	lui	a3,0x80000
    1cbc:	0685                	addi	a3,a3,1
    1cbe:	8f55                	or	a4,a4,a3
    1cc0:	c3d8                	sw	a4,4(a5)
/home/randy/mounriver-studio-projects/UdpServer/obj/../NetLib/eth_driver_10M.c:443
    ETH->MMCCR |= ETH_MMCCR_CR;             //Counters Reset
    1cc2:	1007a703          	lw	a4,256(a5) # 40028100 <_eusrstack+0x20018100>
    1cc6:	00176713          	ori	a4,a4,1
    1cca:	10e7a023          	sw	a4,256(a5)
/home/randy/mounriver-studio-projects/UdpServer/obj/../NetLib/eth_driver_10M.c:444
    while(ETH->MMCCR & ETH_MMCCR_CR);       //Wait for counters reset to complete
    1cce:	40028737          	lui	a4,0x40028
/home/randy/mounriver-studio-projects/UdpServer/obj/../NetLib/eth_driver_10M.c:444 (discriminator 1)
    1cd2:	10072783          	lw	a5,256(a4) # 40028100 <_eusrstack+0x20018100>
    1cd6:	8b85                	andi	a5,a5,1
    1cd8:	ffed                	bnez	a5,1cd2 <ETH_LinkUpCfg+0x38>
/home/randy/mounriver-studio-projects/UdpServer/obj/../NetLib/eth_driver_10M.c:445
    PhyPolarityDetect = 1;
    1cda:	4705                	li	a4,1
    1cdc:	88e18223          	sb	a4,-1916(gp) # 200002a4 <PhyPolarityDetect>
/home/randy/mounriver-studio-projects/UdpServer/obj/../NetLib/eth_driver_10M.c:446
    LinkSuccTime = LocalTime;
    1ce0:	8801a703          	lw	a4,-1920(gp) # 200002a0 <LocalTime>
    1ce4:	86e1ae23          	sw	a4,-1924(gp) # 2000029c <LinkSuccTime>
/home/randy/mounriver-studio-projects/UdpServer/obj/../NetLib/eth_driver_10M.c:447
    ETH_Start( );
    1ce8:	94bff0ef          	jal	ra,1632 <ETH_Start>
/home/randy/mounriver-studio-projects/UdpServer/obj/../NetLib/eth_driver_10M.c:448
}
    1cec:	d28fe06f          	j	214 <__riscv_restore_0>

00001cf0 <ETH_PHYLink>:
ETH_PHYLink():
/home/randy/mounriver-studio-projects/UdpServer/obj/../NetLib/eth_driver_10M.c:460
{
    1cf0:	ce6fe2ef          	jal	t0,1d6 <__riscv_save_4>
/home/randy/mounriver-studio-projects/UdpServer/obj/../NetLib/eth_driver_10M.c:463
    phy_bsr = ETH_ReadPHYRegister( gPHYAddress, PHY_BSR);
    1cf4:	88e18413          	addi	s0,gp,-1906 # 200002ae <gPHYAddress>
    1cf8:	200a                	lhu	a0,0(s0)
    1cfa:	4585                	li	a1,1
    1cfc:	fd8ff0ef          	jal	ra,14d4 <ETH_ReadPHYRegister>
    1d00:	84aa                	mv	s1,a0
/home/randy/mounriver-studio-projects/UdpServer/obj/../NetLib/eth_driver_10M.c:464
    phy_bcr = ETH_ReadPHYRegister( gPHYAddress, PHY_BCR);
    1d02:	200a                	lhu	a0,0(s0)
    1d04:	4581                	li	a1,0
    1d06:	fceff0ef          	jal	ra,14d4 <ETH_ReadPHYRegister>
    1d0a:	89aa                	mv	s3,a0
/home/randy/mounriver-studio-projects/UdpServer/obj/../NetLib/eth_driver_10M.c:465
    phy_anlpar = ETH_ReadPHYRegister( gPHYAddress, PHY_ANLPAR);
    1d0c:	200a                	lhu	a0,0(s0)
    1d0e:	4595                	li	a1,5
    1d10:	fc4ff0ef          	jal	ra,14d4 <ETH_ReadPHYRegister>
/home/randy/mounriver-studio-projects/UdpServer/obj/../NetLib/eth_driver_10M.c:467
    if(phy_bsr & PHY_Linked_Status)   //LinkUp
    1d14:	0044f793          	andi	a5,s1,4
    1d18:	10078263          	beqz	a5,1e1c <ETH_PHYLink+0x12c>
/home/randy/mounriver-studio-projects/UdpServer/obj/../NetLib/eth_driver_10M.c:469
        if(phy_bcr & PHY_AutoNegotiation)   //determine whether auto-negotiation is enable
    1d1c:	01399793          	slli	a5,s3,0x13
    1d20:	0e07d663          	bgez	a5,1e0c <ETH_PHYLink+0x11c>
    1d24:	892a                	mv	s2,a0
/home/randy/mounriver-studio-projects/UdpServer/obj/../NetLib/eth_driver_10M.c:471
            if(phy_anlpar == 0)
    1d26:	0204f793          	andi	a5,s1,32
    1d2a:	e559                	bnez	a0,1db8 <ETH_PHYLink+0xc8>
/home/randy/mounriver-studio-projects/UdpServer/obj/../NetLib/eth_driver_10M.c:473
                if(phy_bsr & PHY_AutoNego_Complete)
    1d2c:	cfa1                	beqz	a5,1d84 <ETH_PHYLink+0x94>
/home/randy/mounriver-studio-projects/UdpServer/obj/../NetLib/eth_driver_10M.c:475
                    ETH->MACCR &= ~ETH_Mode_FullDuplex;
    1d2e:	400286b7          	lui	a3,0x40028
    1d32:	429c                	lw	a5,0(a3)
    1d34:	777d                	lui	a4,0xfffff
    1d36:	7ff70713          	addi	a4,a4,2047 # fffff7ff <_eusrstack+0xdffef7ff>
    1d3a:	8ff9                	and	a5,a5,a4
    1d3c:	c29c                	sw	a5,0(a3)
/home/randy/mounriver-studio-projects/UdpServer/obj/../NetLib/eth_driver_10M.c:476
                    ETH_LinkUpCfg(phy_bsr);
    1d3e:	8526                	mv	a0,s1
    1d40:	3fa9                	jal	1c9a <ETH_LinkUpCfg>
/home/randy/mounriver-studio-projects/UdpServer/obj/../NetLib/eth_driver_10M.c:477
                    if((ChipId & 0xf0) == 0x20)
    1d42:	8781a783          	lw	a5,-1928(gp) # 20000298 <ChipId>
    1d46:	02000713          	li	a4,32
    1d4a:	0f07f793          	andi	a5,a5,240
    1d4e:	02e79063          	bne	a5,a4,1d6e <ETH_PHYLink+0x7e>
/home/randy/mounriver-studio-projects/UdpServer/obj/../NetLib/eth_driver_10M.c:479
                        if(phyNegoStat & TURN_PN_POLARITY)
    1d52:	200a                	lhu	a0,0(s0)
    1d54:	8a418413          	addi	s0,gp,-1884 # 200002c4 <phyNegoStat>
    1d58:	201c                	lbu	a5,0(s0)
    1d5a:	8b89                	andi	a5,a5,2
    1d5c:	cb99                	beqz	a5,1d72 <ETH_PHYLink+0x82>
/home/randy/mounriver-studio-projects/UdpServer/obj/../NetLib/eth_driver_10M.c:482
                            ETH_WritePHYRegister(gPHYAddress, PHY_MDIX, PHY_PN_SWITCH_N);
    1d5e:	4611                	li	a2,4
    1d60:	45f9                	li	a1,30
    1d62:	fcaff0ef          	jal	ra,152c <ETH_WritePHYRegister>
/home/randy/mounriver-studio-projects/UdpServer/obj/../NetLib/eth_driver_10M.c:489
                        phyNegoLinkTime = LocalTime;
    1d66:	8801a703          	lw	a4,-1920(gp) # 200002a0 <LocalTime>
    1d6a:	8ae1a023          	sw	a4,-1888(gp) # 200002c0 <phyNegoLinkTime>
/home/randy/mounriver-studio-projects/UdpServer/obj/../NetLib/eth_driver_10M.c:549
}
    1d6e:	c9cfe06f          	j	20a <__riscv_restore_4>
/home/randy/mounriver-studio-projects/UdpServer/obj/../NetLib/eth_driver_10M.c:486
                            ETH_WritePHYRegister(gPHYAddress, PHY_MDIX, PHY_PN_SWITCH_P);
    1d72:	4601                	li	a2,0
    1d74:	45f9                	li	a1,30
    1d76:	fb6ff0ef          	jal	ra,152c <ETH_WritePHYRegister>
/home/randy/mounriver-studio-projects/UdpServer/obj/../NetLib/eth_driver_10M.c:487
                            phyNegoStat |= LAST_NEGO_STAT;
    1d7a:	201c                	lbu	a5,0(s0)
    1d7c:	0017e793          	ori	a5,a5,1
    1d80:	a01c                	sb	a5,0(s0)
    1d82:	b7d5                	j	1d66 <ETH_PHYLink+0x76>
/home/randy/mounriver-studio-projects/UdpServer/obj/../NetLib/eth_driver_10M.c:493
                    PHY_LINK_RESET();
    1d84:	200a                	lhu	a0,0(s0)
    1d86:	6621                	lui	a2,0x8
    1d88:	4581                	li	a1,0
    1d8a:	fa2ff0ef          	jal	ra,152c <ETH_WritePHYRegister>
    1d8e:	8a0182a3          	sb	zero,-1883(gp) # 200002c5 <phyStatus>
    1d92:	8a018323          	sb	zero,-1882(gp) # 200002c6 <phySucCnt>
    1d96:	88018c23          	sb	zero,-1896(gp) # 200002b8 <phyLinkCnt>
    1d9a:	88018623          	sb	zero,-1908(gp) # 200002ac <TRDetectStep>
    1d9e:	200a                	lhu	a0,0(s0)
    1da0:	88018223          	sb	zero,-1916(gp) # 200002a4 <PhyPolarityDetect>
    1da4:	4721                	li	a4,8
    1da6:	88018d23          	sb	zero,-1894(gp) # 200002ba <phyLinkStatus>
    1daa:	4621                	li	a2,8
    1dac:	45f9                	li	a1,30
    1dae:	82e18223          	sb	a4,-2012(gp) # 20000244 <phyPN>
    1db2:	f7aff0ef          	jal	ra,152c <ETH_WritePHYRegister>
    1db6:	bf65                	j	1d6e <ETH_PHYLink+0x7e>
/home/randy/mounriver-studio-projects/UdpServer/obj/../NetLib/eth_driver_10M.c:497
                phyNegoStat = 0;
    1db8:	8a018223          	sb	zero,-1884(gp) # 200002c4 <phyNegoStat>
/home/randy/mounriver-studio-projects/UdpServer/obj/../NetLib/eth_driver_10M.c:498
                if(phy_bsr & PHY_AutoNego_Complete)
    1dbc:	cb8d                	beqz	a5,1dee <ETH_PHYLink+0xfe>
/home/randy/mounriver-studio-projects/UdpServer/obj/../NetLib/eth_driver_10M.c:500
                    phy_stat = ETH_ReadPHYRegister( gPHYAddress, PHY_STATUS );
    1dbe:	200a                	lhu	a0,0(s0)
    1dc0:	45c1                	li	a1,16
    1dc2:	f12ff0ef          	jal	ra,14d4 <ETH_ReadPHYRegister>
/home/randy/mounriver-studio-projects/UdpServer/obj/../NetLib/eth_driver_10M.c:501
                    if( phy_stat & (1<<2) )
    1dc6:	8911                	andi	a0,a0,4
/home/randy/mounriver-studio-projects/UdpServer/obj/../NetLib/eth_driver_10M.c:503
                        ETH->MACCR |= ETH_Mode_FullDuplex;
    1dc8:	400286b7          	lui	a3,0x40028
/home/randy/mounriver-studio-projects/UdpServer/obj/../NetLib/eth_driver_10M.c:501
                    if( phy_stat & (1<<2) )
    1dcc:	e901                	bnez	a0,1ddc <ETH_PHYLink+0xec>
/home/randy/mounriver-studio-projects/UdpServer/obj/../NetLib/eth_driver_10M.c:507
                        if( (phy_anlpar&PHY_ANLPAR_SELECTOR_FIELD) != PHY_ANLPAR_SELECTOR_VALUE )
    1dce:	01f97913          	andi	s2,s2,31
    1dd2:	4785                	li	a5,1
/home/randy/mounriver-studio-projects/UdpServer/obj/../NetLib/eth_driver_10M.c:509
                            ETH->MACCR |= ETH_Mode_FullDuplex;
    1dd4:	400286b7          	lui	a3,0x40028
/home/randy/mounriver-studio-projects/UdpServer/obj/../NetLib/eth_driver_10M.c:507
                        if( (phy_anlpar&PHY_ANLPAR_SELECTOR_FIELD) != PHY_ANLPAR_SELECTOR_VALUE )
    1dd8:	02f90c63          	beq	s2,a5,1e10 <ETH_PHYLink+0x120>
/home/randy/mounriver-studio-projects/UdpServer/obj/../NetLib/eth_driver_10M.c:509
                            ETH->MACCR |= ETH_Mode_FullDuplex;
    1ddc:	429c                	lw	a5,0(a3)
    1dde:	6705                	lui	a4,0x1
    1de0:	80070713          	addi	a4,a4,-2048 # 800 <__stack_size>
    1de4:	8fd9                	or	a5,a5,a4
/home/randy/mounriver-studio-projects/UdpServer/obj/../NetLib/eth_driver_10M.c:513
                            ETH->MACCR &= ~ETH_Mode_FullDuplex;
    1de6:	c29c                	sw	a5,0(a3)
/home/randy/mounriver-studio-projects/UdpServer/obj/../NetLib/eth_driver_10M.c:516
                    ETH_LinkUpCfg(phy_bsr);
    1de8:	8526                	mv	a0,s1
    1dea:	3d45                	jal	1c9a <ETH_LinkUpCfg>
    1dec:	b749                	j	1d6e <ETH_PHYLink+0x7e>
/home/randy/mounriver-studio-projects/UdpServer/obj/../NetLib/eth_driver_10M.c:519
                    EXTEN->EXTEN_CTR &= ~EXTEN_ETH_10M_EN;
    1dee:	40024737          	lui	a4,0x40024
    1df2:	80072783          	lw	a5,-2048(a4) # 40023800 <_eusrstack+0x20013800>
    1df6:	9bed                	andi	a5,a5,-5
    1df8:	80f72023          	sw	a5,-2048(a4)
/home/randy/mounriver-studio-projects/UdpServer/obj/../NetLib/eth_driver_10M.c:520
                    phyLinkReset = 1;
    1dfc:	4705                	li	a4,1
    1dfe:	88e18ca3          	sb	a4,-1895(gp) # 200002b9 <phyLinkReset>
/home/randy/mounriver-studio-projects/UdpServer/obj/../NetLib/eth_driver_10M.c:521
                    phyLinkTime = LocalTime;
    1e02:	8801a703          	lw	a4,-1920(gp) # 200002a0 <LocalTime>
    1e06:	88e1ae23          	sw	a4,-1892(gp) # 200002bc <phyLinkTime>
    1e0a:	b795                	j	1d6e <ETH_PHYLink+0x7e>
/home/randy/mounriver-studio-projects/UdpServer/obj/../NetLib/eth_driver_10M.c:526
            ETH->MACCR &= ~ETH_Mode_FullDuplex;
    1e0c:	400286b7          	lui	a3,0x40028
/home/randy/mounriver-studio-projects/UdpServer/obj/../NetLib/eth_driver_10M.c:513
                            ETH->MACCR &= ~ETH_Mode_FullDuplex;
    1e10:	429c                	lw	a5,0(a3)
    1e12:	777d                	lui	a4,0xfffff
    1e14:	7ff70713          	addi	a4,a4,2047 # fffff7ff <_eusrstack+0xdffef7ff>
    1e18:	8ff9                	and	a5,a5,a4
    1e1a:	b7f1                	j	1de6 <ETH_PHYLink+0xf6>
/home/randy/mounriver-studio-projects/UdpServer/obj/../NetLib/eth_driver_10M.c:531
        WCHNET_PhyStatus( phy_bsr );
    1e1c:	8526                	mv	a0,s1
    1e1e:	21fd                	jal	230c <WCHNET_PhyStatus>
/home/randy/mounriver-studio-projects/UdpServer/obj/../NetLib/eth_driver_10M.c:532
        EXTEN->EXTEN_CTR &= ~EXTEN_ETH_10M_EN;
    1e20:	40024737          	lui	a4,0x40024
    1e24:	80072783          	lw	a5,-2048(a4) # 40023800 <_eusrstack+0x20013800>
/home/randy/mounriver-studio-projects/UdpServer/obj/../NetLib/eth_driver_10M.c:534
        phyLinkTime = LocalTime;
    1e28:	88018693          	addi	a3,gp,-1920 # 200002a0 <LocalTime>
/home/randy/mounriver-studio-projects/UdpServer/obj/../NetLib/eth_driver_10M.c:532
        EXTEN->EXTEN_CTR &= ~EXTEN_ETH_10M_EN;
    1e2c:	9bed                	andi	a5,a5,-5
    1e2e:	80f72023          	sw	a5,-2048(a4)
/home/randy/mounriver-studio-projects/UdpServer/obj/../NetLib/eth_driver_10M.c:533
        phyLinkReset = 1;
    1e32:	4705                	li	a4,1
    1e34:	88e18ca3          	sb	a4,-1895(gp) # 200002b9 <phyLinkReset>
/home/randy/mounriver-studio-projects/UdpServer/obj/../NetLib/eth_driver_10M.c:534
        phyLinkTime = LocalTime;
    1e38:	4298                	lw	a4,0(a3)
    1e3a:	88e1ae23          	sw	a4,-1892(gp) # 200002bc <phyLinkTime>
/home/randy/mounriver-studio-projects/UdpServer/obj/../NetLib/eth_driver_10M.c:535
        if((ChipId & 0xf0) == 0x20)
    1e3e:	8781a783          	lw	a5,-1928(gp) # 20000298 <ChipId>
    1e42:	02000713          	li	a4,32
    1e46:	0f07f793          	andi	a5,a5,240
    1e4a:	f2e792e3          	bne	a5,a4,1d6e <ETH_PHYLink+0x7e>
/home/randy/mounriver-studio-projects/UdpServer/obj/../NetLib/eth_driver_10M.c:537
            if(phyNegoStat & LAST_NEGO_STAT)
    1e4e:	8a418793          	addi	a5,gp,-1884 # 200002c4 <phyNegoStat>
    1e52:	2398                	lbu	a4,0(a5)
    1e54:	00177613          	andi	a2,a4,1
    1e58:	f0060be3          	beqz	a2,1d6e <ETH_PHYLink+0x7e>
/home/randy/mounriver-studio-projects/UdpServer/obj/../NetLib/eth_driver_10M.c:539
                if(LocalTime - phyNegoLinkTime < 100)
    1e5c:	4290                	lw	a2,0(a3)
    1e5e:	8a018693          	addi	a3,gp,-1888 # 200002c0 <phyNegoLinkTime>
    1e62:	428c                	lw	a1,0(a3)
    1e64:	8e0d                	sub	a2,a2,a1
    1e66:	06300593          	li	a1,99
    1e6a:	f0c5e2e3          	bltu	a1,a2,1d6e <ETH_PHYLink+0x7e>
/home/randy/mounriver-studio-projects/UdpServer/obj/../NetLib/eth_driver_10M.c:541
                    phyNegoLinkTime = 0;
    1e6e:	0006a023          	sw	zero,0(a3) # 40028000 <_eusrstack+0x20018000>
/home/randy/mounriver-studio-projects/UdpServer/obj/../NetLib/eth_driver_10M.c:544
                    phyNegoStat ^= TURN_PN_POLARITY;
    1e72:	00274713          	xori	a4,a4,2
/home/randy/mounriver-studio-projects/UdpServer/obj/../NetLib/eth_driver_10M.c:543
                    ETH->DMAMFBOCR;
    1e76:	400296b7          	lui	a3,0x40029
    1e7a:	5294                	lw	a3,32(a3)
/home/randy/mounriver-studio-projects/UdpServer/obj/../NetLib/eth_driver_10M.c:544
                    phyNegoStat ^= TURN_PN_POLARITY;
    1e7c:	a398                	sb	a4,0(a5)
/home/randy/mounriver-studio-projects/UdpServer/obj/../NetLib/eth_driver_10M.c:549
}
    1e7e:	bdc5                	j	1d6e <ETH_PHYLink+0x7e>

00001e80 <ETH_RegInit>:
ETH_RegInit():
/home/randy/mounriver-studio-projects/UdpServer/obj/../NetLib/eth_driver_10M.c:646
{
    1e80:	b70fe2ef          	jal	t0,1f0 <__riscv_save_0>
/home/randy/mounriver-studio-projects/UdpServer/obj/../NetLib/eth_driver_10M.c:648
    ETH->MACMIIAR = (uint32_t)ETH_MACMIIAR_CR_Div42;
    1e84:	40028737          	lui	a4,0x40028
    1e88:	00072823          	sw	zero,16(a4) # 40028010 <_eusrstack+0x20018010>
/home/randy/mounriver-studio-projects/UdpServer/obj/../NetLib/eth_driver_10M.c:655
                  ETH_InitStruct->ETH_AutomaticPadCRCStrip |
    1e8c:	4d54                	lw	a3,28(a0)
    1e8e:	415c                	lw	a5,4(a0)
/home/randy/mounriver-studio-projects/UdpServer/obj/../NetLib/eth_driver_10M.c:646
{
    1e90:	842e                	mv	s0,a1
/home/randy/mounriver-studio-projects/UdpServer/obj/../NetLib/eth_driver_10M.c:685
    ETH_WritePHYRegister(PHYAddress, PHY_BCR, PHY_Reset);
    1e92:	6621                	lui	a2,0x8
/home/randy/mounriver-studio-projects/UdpServer/obj/../NetLib/eth_driver_10M.c:655
                  ETH_InitStruct->ETH_AutomaticPadCRCStrip |
    1e94:	8fd5                	or	a5,a5,a3
    1e96:	4514                	lw	a3,8(a0)
/home/randy/mounriver-studio-projects/UdpServer/obj/../NetLib/eth_driver_10M.c:685
    ETH_WritePHYRegister(PHYAddress, PHY_BCR, PHY_Reset);
    1e98:	4581                	li	a1,0
/home/randy/mounriver-studio-projects/UdpServer/obj/../NetLib/eth_driver_10M.c:655
                  ETH_InitStruct->ETH_AutomaticPadCRCStrip |
    1e9a:	8fd5                	or	a5,a5,a3
    1e9c:	4554                	lw	a3,12(a0)
    1e9e:	8fd5                	or	a5,a5,a3
    1ea0:	5154                	lw	a3,36(a0)
    1ea2:	8fd5                	or	a5,a5,a3
    1ea4:	5554                	lw	a3,44(a0)
    1ea6:	8fd5                	or	a5,a5,a3
/home/randy/mounriver-studio-projects/UdpServer/obj/../NetLib/eth_driver_10M.c:651
    ETH->MACCR = (uint32_t)(ETH_InitStruct->ETH_Watchdog |
    1ea8:	001006b7          	lui	a3,0x100
    1eac:	8fd5                	or	a5,a5,a3
    1eae:	c31c                	sw	a5,0(a4)
/home/randy/mounriver-studio-projects/UdpServer/obj/../NetLib/eth_driver_10M.c:659
    ETH->MACFFR = (uint32_t)(ETH_InitStruct->ETH_ReceiveAll |
    1eb0:	5d54                	lw	a3,60(a0)
    1eb2:	5d1c                	lw	a5,56(a0)
    1eb4:	8fd5                	or	a5,a5,a3
/home/randy/mounriver-studio-projects/UdpServer/obj/../NetLib/eth_driver_10M.c:660
                          ETH_InitStruct->ETH_SourceAddrFilter |
    1eb6:	4134                	lw	a3,64(a0)
    1eb8:	8fd5                	or	a5,a5,a3
/home/randy/mounriver-studio-projects/UdpServer/obj/../NetLib/eth_driver_10M.c:661
                          ETH_InitStruct->ETH_PassControlFrames |
    1eba:	4174                	lw	a3,68(a0)
    1ebc:	8fd5                	or	a5,a5,a3
/home/randy/mounriver-studio-projects/UdpServer/obj/../NetLib/eth_driver_10M.c:662
                          ETH_InitStruct->ETH_BroadcastFramesReception |
    1ebe:	4534                	lw	a3,72(a0)
    1ec0:	8fd5                	or	a5,a5,a3
/home/randy/mounriver-studio-projects/UdpServer/obj/../NetLib/eth_driver_10M.c:663
                          ETH_InitStruct->ETH_DestinationAddrFilter |
    1ec2:	4574                	lw	a3,76(a0)
    1ec4:	8fd5                	or	a5,a5,a3
/home/randy/mounriver-studio-projects/UdpServer/obj/../NetLib/eth_driver_10M.c:664
                          ETH_InitStruct->ETH_PromiscuousMode |
    1ec6:	4934                	lw	a3,80(a0)
    1ec8:	8fd5                	or	a5,a5,a3
/home/randy/mounriver-studio-projects/UdpServer/obj/../NetLib/eth_driver_10M.c:665
                          ETH_InitStruct->ETH_MulticastFramesFilter |
    1eca:	4974                	lw	a3,84(a0)
    1ecc:	8fd5                	or	a5,a5,a3
/home/randy/mounriver-studio-projects/UdpServer/obj/../NetLib/eth_driver_10M.c:659
    ETH->MACFFR = (uint32_t)(ETH_InitStruct->ETH_ReceiveAll |
    1ece:	c35c                	sw	a5,4(a4)
/home/randy/mounriver-studio-projects/UdpServer/obj/../NetLib/eth_driver_10M.c:668
    ETH->MACHTHR = (uint32_t)ETH_InitStruct->ETH_HashTableHigh;
    1ed0:	4d3c                	lw	a5,88(a0)
    1ed2:	c71c                	sw	a5,8(a4)
/home/randy/mounriver-studio-projects/UdpServer/obj/../NetLib/eth_driver_10M.c:669
    ETH->MACHTLR = (uint32_t)ETH_InitStruct->ETH_HashTableLow;
    1ed4:	4d7c                	lw	a5,92(a0)
    1ed6:	c75c                	sw	a5,12(a4)
/home/randy/mounriver-studio-projects/UdpServer/obj/../NetLib/eth_driver_10M.c:673
                     ETH_InitStruct->ETH_ReceiveFlowControl |
    1ed8:	5934                	lw	a3,112(a0)
    1eda:	557c                	lw	a5,108(a0)
    1edc:	8fd5                	or	a5,a5,a3
    1ede:	5974                	lw	a3,116(a0)
    1ee0:	8fd5                	or	a5,a5,a3
/home/randy/mounriver-studio-projects/UdpServer/obj/../NetLib/eth_driver_10M.c:671
    ETH->MACFCR = (uint32_t)((ETH_InitStruct->ETH_PauseTime << 16) |
    1ee2:	5134                	lw	a3,96(a0)
    1ee4:	06c2                	slli	a3,a3,0x10
/home/randy/mounriver-studio-projects/UdpServer/obj/../NetLib/eth_driver_10M.c:673
                     ETH_InitStruct->ETH_ReceiveFlowControl |
    1ee6:	8fd5                	or	a5,a5,a3
/home/randy/mounriver-studio-projects/UdpServer/obj/../NetLib/eth_driver_10M.c:671
    ETH->MACFCR = (uint32_t)((ETH_InitStruct->ETH_PauseTime << 16) |
    1ee8:	cf1c                	sw	a5,24(a4)
/home/randy/mounriver-studio-projects/UdpServer/obj/../NetLib/eth_driver_10M.c:676
    ETH->MACVLANTR = (uint32_t)(ETH_InitStruct->ETH_VLANTagComparison |
    1eea:	5d74                	lw	a3,124(a0)
    1eec:	5d3c                	lw	a5,120(a0)
    1eee:	8fd5                	or	a5,a5,a3
    1ef0:	cf5c                	sw	a5,28(a4)
/home/randy/mounriver-studio-projects/UdpServer/obj/../NetLib/eth_driver_10M.c:679
    ETH->DMAOMR = (uint32_t)(ETH_InitStruct->ETH_DropTCPIPChecksumErrorFrame |
    1ef2:	08c52703          	lw	a4,140(a0) # d08c <_data_lma+0x3228>
    1ef6:	08052783          	lw	a5,128(a0)
    1efa:	8fd9                	or	a5,a5,a4
/home/randy/mounriver-studio-projects/UdpServer/obj/../NetLib/eth_driver_10M.c:680
                    ETH_InitStruct->ETH_TransmitStoreForward |
    1efc:	09452703          	lw	a4,148(a0)
    1f00:	8fd9                	or	a5,a5,a4
/home/randy/mounriver-studio-projects/UdpServer/obj/../NetLib/eth_driver_10M.c:681
                    ETH_InitStruct->ETH_ForwardErrorFrames |
    1f02:	09852703          	lw	a4,152(a0)
/home/randy/mounriver-studio-projects/UdpServer/obj/../NetLib/eth_driver_10M.c:685
    ETH_WritePHYRegister(PHYAddress, PHY_BCR, PHY_Reset);
    1f06:	8522                	mv	a0,s0
/home/randy/mounriver-studio-projects/UdpServer/obj/../NetLib/eth_driver_10M.c:681
                    ETH_InitStruct->ETH_ForwardErrorFrames |
    1f08:	8fd9                	or	a5,a5,a4
/home/randy/mounriver-studio-projects/UdpServer/obj/../NetLib/eth_driver_10M.c:679
    ETH->DMAOMR = (uint32_t)(ETH_InitStruct->ETH_DropTCPIPChecksumErrorFrame |
    1f0a:	40029737          	lui	a4,0x40029
    1f0e:	cf1c                	sw	a5,24(a4)
/home/randy/mounriver-studio-projects/UdpServer/obj/../NetLib/eth_driver_10M.c:685
    ETH_WritePHYRegister(PHYAddress, PHY_BCR, PHY_Reset);
    1f10:	e1cff0ef          	jal	ra,152c <ETH_WritePHYRegister>
/home/randy/mounriver-studio-projects/UdpServer/obj/../NetLib/eth_driver_10M.c:686
    ETH_WritePHYRegister(PHYAddress, PHY_MDIX, PHY_PN_SWITCH_AUTO);
    1f14:	4621                	li	a2,8
    1f16:	45f9                	li	a1,30
    1f18:	8522                	mv	a0,s0
    1f1a:	e12ff0ef          	jal	ra,152c <ETH_WritePHYRegister>
/home/randy/mounriver-studio-projects/UdpServer/obj/../NetLib/eth_driver_10M.c:688
}
    1f1e:	4505                	li	a0,1
    1f20:	af4fe06f          	j	214 <__riscv_restore_0>

00001f24 <ETH_Configuration>:
ETH_Configuration():
/home/randy/mounriver-studio-projects/UdpServer/obj/../NetLib/eth_driver_10M.c:698
{
    1f24:	ab2fe2ef          	jal	t0,1d6 <__riscv_save_4>
    1f28:	7131                	addi	sp,sp,-192
/home/randy/mounriver-studio-projects/UdpServer/obj/../NetLib/eth_driver_10M.c:703
    RCC_AHBPeriphClockCmd(RCC_AHBPeriph_ETH_MAC | \
    1f2a:	4585                	li	a1,1
/home/randy/mounriver-studio-projects/UdpServer/obj/../NetLib/eth_driver_10M.c:698
{
    1f2c:	84aa                	mv	s1,a0
/home/randy/mounriver-studio-projects/UdpServer/obj/../NetLib/eth_driver_10M.c:703
    RCC_AHBPeriphClockCmd(RCC_AHBPeriph_ETH_MAC | \
    1f2e:	6571                	lui	a0,0x1c
    1f30:	9a5ff0ef          	jal	ra,18d4 <RCC_AHBPeriphClockCmd>
/home/randy/mounriver-studio-projects/UdpServer/obj/../NetLib/eth_driver_10M.c:707
    gPHYAddress = PHY_ADDRESS;
    1f34:	4785                	li	a5,1
    1f36:	88f19723          	sh	a5,-1906(gp) # 200002ae <gPHYAddress>
/home/randy/mounriver-studio-projects/UdpServer/obj/../NetLib/eth_driver_10M.c:708
    ETH_SetClock( );
    1f3a:	d3fff0ef          	jal	ra,1c78 <ETH_SetClock>
/home/randy/mounriver-studio-projects/UdpServer/obj/../NetLib/eth_driver_10M.c:711
    EXTEN->EXTEN_CTR |= EXTEN_ETH_10M_EN;    /* Enable 10M Ethernet physical layer   */
    1f3e:	40024737          	lui	a4,0x40024
    1f42:	80072783          	lw	a5,-2048(a4) # 40023800 <_eusrstack+0x20013800>
/home/randy/mounriver-studio-projects/UdpServer/obj/../NetLib/eth_driver_10M.c:717
    ETH_SoftwareReset();
    1f46:	6409                	lui	s0,0x2
    1f48:	71040413          	addi	s0,s0,1808 # 2710 <WCHNET_Init+0x14>
/home/randy/mounriver-studio-projects/UdpServer/obj/../NetLib/eth_driver_10M.c:711
    EXTEN->EXTEN_CTR |= EXTEN_ETH_10M_EN;    /* Enable 10M Ethernet physical layer   */
    1f4c:	0047e793          	ori	a5,a5,4
    1f50:	80f72023          	sw	a5,-2048(a4)
/home/randy/mounriver-studio-projects/UdpServer/obj/../NetLib/eth_driver_10M.c:714
    ETH_DeInit();
    1f54:	d6cff0ef          	jal	ra,14c0 <ETH_DeInit>
/home/randy/mounriver-studio-projects/UdpServer/obj/../NetLib/eth_driver_10M.c:717
    ETH_SoftwareReset();
    1f58:	88e18913          	addi	s2,gp,-1906 # 200002ae <gPHYAddress>
    1f5c:	eb0ff0ef          	jal	ra,160c <ETH_SoftwareReset>
/home/randy/mounriver-studio-projects/UdpServer/obj/../NetLib/eth_driver_10M.c:723
    }while(ETH->DMABMR & ETH_DMABMR_SR);
    1f60:	400299b7          	lui	s3,0x40029
/home/randy/mounriver-studio-projects/UdpServer/obj/../NetLib/eth_driver_10M.c:721
        Delay_Us(10);
    1f64:	147d                	addi	s0,s0,-1
    1f66:	0442                	slli	s0,s0,0x10
    1f68:	4529                	li	a0,10
    1f6a:	8041                	srli	s0,s0,0x10
    1f6c:	24b1                	jal	21b8 <Delay_Us>
/home/randy/mounriver-studio-projects/UdpServer/obj/../NetLib/eth_driver_10M.c:722
        if( !--timeout )  break;
    1f6e:	c409                	beqz	s0,1f78 <ETH_Configuration+0x54>
/home/randy/mounriver-studio-projects/UdpServer/obj/../NetLib/eth_driver_10M.c:723
    }while(ETH->DMABMR & ETH_DMABMR_SR);
    1f70:	0009a783          	lw	a5,0(s3) # 40029000 <_eusrstack+0x20019000>
    1f74:	8b85                	andi	a5,a5,1
    1f76:	f7fd                	bnez	a5,1f64 <ETH_Configuration+0x40>
/home/randy/mounriver-studio-projects/UdpServer/obj/../NetLib/eth_driver_10M.c:771
    ETH_RegInit( &ETH_InitStructure, gPHYAddress );
    1f78:	00095583          	lhu	a1,0(s2)
/home/randy/mounriver-studio-projects/UdpServer/obj/../NetLib/eth_driver_10M.c:744
    ETH_InitStructure.ETH_PassControlFrames = ETH_PassControlFrames_BlockAll;
    1f7c:	04000793          	li	a5,64
/home/randy/mounriver-studio-projects/UdpServer/obj/../NetLib/eth_driver_10M.c:766
    ETH_InitStructure.ETH_TransmitStoreForward = ETH_TransmitStoreForward_Enable;
    1f80:	00200437          	lui	s0,0x200
/home/randy/mounriver-studio-projects/UdpServer/obj/../NetLib/eth_driver_10M.c:767
    ETH_InitStructure.ETH_ForwardErrorFrames = ETH_ForwardErrorFrames_Enable;
    1f84:	08000713          	li	a4,128
/home/randy/mounriver-studio-projects/UdpServer/obj/../NetLib/eth_driver_10M.c:771
    ETH_RegInit( &ETH_InitStructure, gPHYAddress );
    1f88:	0048                	addi	a0,sp,4
/home/randy/mounriver-studio-projects/UdpServer/obj/../NetLib/eth_driver_10M.c:744
    ETH_InitStructure.ETH_PassControlFrames = ETH_PassControlFrames_BlockAll;
    1f8a:	c2be                	sw	a5,68(sp)
/home/randy/mounriver-studio-projects/UdpServer/obj/../NetLib/eth_driver_10M.c:766
    ETH_InitStructure.ETH_TransmitStoreForward = ETH_TransmitStoreForward_Enable;
    1f8c:	c922                	sw	s0,144(sp)
/home/randy/mounriver-studio-projects/UdpServer/obj/../NetLib/eth_driver_10M.c:767
    ETH_InitStructure.ETH_ForwardErrorFrames = ETH_ForwardErrorFrames_Enable;
    1f8e:	cd3a                	sw	a4,152(sp)
/home/randy/mounriver-studio-projects/UdpServer/obj/../NetLib/eth_driver_10M.c:768
    ETH_InitStructure.ETH_ForwardUndersizedGoodFrames = ETH_ForwardUndersizedGoodFrames_Enable;
    1f90:	cf3e                	sw	a5,156(sp)
/home/randy/mounriver-studio-projects/UdpServer/obj/../NetLib/eth_driver_10M.c:727
    ETH_InitStructure.ETH_Watchdog = ETH_Watchdog_Enable;
    1f92:	c402                	sw	zero,8(sp)
/home/randy/mounriver-studio-projects/UdpServer/obj/../NetLib/eth_driver_10M.c:728
    ETH_InitStructure.ETH_Jabber = ETH_Jabber_Enable;
    1f94:	c602                	sw	zero,12(sp)
/home/randy/mounriver-studio-projects/UdpServer/obj/../NetLib/eth_driver_10M.c:729
    ETH_InitStructure.ETH_InterFrameGap = ETH_InterFrameGap_96Bit;
    1f96:	c802                	sw	zero,16(sp)
/home/randy/mounriver-studio-projects/UdpServer/obj/../NetLib/eth_driver_10M.c:733
    ETH_InitStructure.ETH_ChecksumOffload = ETH_ChecksumOffload_Disable;
    1f98:	d402                	sw	zero,40(sp)
/home/randy/mounriver-studio-projects/UdpServer/obj/../NetLib/eth_driver_10M.c:735
    ETH_InitStructure.ETH_AutomaticPadCRCStrip = ETH_AutomaticPadCRCStrip_Disable;
    1f9a:	d802                	sw	zero,48(sp)
/home/randy/mounriver-studio-projects/UdpServer/obj/../NetLib/eth_driver_10M.c:736
    ETH_InitStructure.ETH_LoopbackMode = ETH_LoopbackMode_Disable;
    1f9c:	d002                	sw	zero,32(sp)
/home/randy/mounriver-studio-projects/UdpServer/obj/../NetLib/eth_driver_10M.c:739
    ETH_InitStructure.ETH_ReceiveAll = ETH_ReceiveAll_Disable;
    1f9e:	de02                	sw	zero,60(sp)
/home/randy/mounriver-studio-projects/UdpServer/obj/../NetLib/eth_driver_10M.c:740
    ETH_InitStructure.ETH_PromiscuousMode = ETH_PromiscuousMode_Disable;
    1fa0:	c882                	sw	zero,80(sp)
/home/randy/mounriver-studio-projects/UdpServer/obj/../NetLib/eth_driver_10M.c:741
    ETH_InitStructure.ETH_BroadcastFramesReception = ETH_BroadcastFramesReception_Enable;
    1fa2:	c482                	sw	zero,72(sp)
/home/randy/mounriver-studio-projects/UdpServer/obj/../NetLib/eth_driver_10M.c:742
    ETH_InitStructure.ETH_MulticastFramesFilter = ETH_MulticastFramesFilter_Perfect;
    1fa4:	ca82                	sw	zero,84(sp)
/home/randy/mounriver-studio-projects/UdpServer/obj/../NetLib/eth_driver_10M.c:743
    ETH_InitStructure.ETH_UnicastFramesFilter = ETH_UnicastFramesFilter_Perfect;
    1fa6:	cc82                	sw	zero,88(sp)
/home/randy/mounriver-studio-projects/UdpServer/obj/../NetLib/eth_driver_10M.c:745
    ETH_InitStructure.ETH_DestinationAddrFilter = ETH_DestinationAddrFilter_Normal;
    1fa8:	c682                	sw	zero,76(sp)
/home/randy/mounriver-studio-projects/UdpServer/obj/../NetLib/eth_driver_10M.c:746
    ETH_InitStructure.ETH_SourceAddrFilter = ETH_SourceAddrFilter_Disable;
    1faa:	c082                	sw	zero,64(sp)
/home/randy/mounriver-studio-projects/UdpServer/obj/../NetLib/eth_driver_10M.c:748
    ETH_InitStructure.ETH_HashTableHigh = 0x0;
    1fac:	ce82                	sw	zero,92(sp)
/home/randy/mounriver-studio-projects/UdpServer/obj/../NetLib/eth_driver_10M.c:749
    ETH_InitStructure.ETH_HashTableLow = 0x0;
    1fae:	d082                	sw	zero,96(sp)
/home/randy/mounriver-studio-projects/UdpServer/obj/../NetLib/eth_driver_10M.c:752
    ETH_InitStructure.ETH_VLANTagComparison = ETH_VLANTagComparison_16Bit;
    1fb0:	de82                	sw	zero,124(sp)
/home/randy/mounriver-studio-projects/UdpServer/obj/../NetLib/eth_driver_10M.c:753
    ETH_InitStructure.ETH_VLANTagIdentifier = 0x0;
    1fb2:	c102                	sw	zero,128(sp)
/home/randy/mounriver-studio-projects/UdpServer/obj/../NetLib/eth_driver_10M.c:756
    ETH_InitStructure.ETH_PauseTime = 0x0;
    1fb4:	d282                	sw	zero,100(sp)
/home/randy/mounriver-studio-projects/UdpServer/obj/../NetLib/eth_driver_10M.c:757
    ETH_InitStructure.ETH_UnicastPauseFrameDetect = ETH_UnicastPauseFrameDetect_Disable;
    1fb6:	d882                	sw	zero,112(sp)
/home/randy/mounriver-studio-projects/UdpServer/obj/../NetLib/eth_driver_10M.c:758
    ETH_InitStructure.ETH_ReceiveFlowControl = ETH_ReceiveFlowControl_Disable;
    1fb8:	da82                	sw	zero,116(sp)
/home/randy/mounriver-studio-projects/UdpServer/obj/../NetLib/eth_driver_10M.c:759
    ETH_InitStructure.ETH_TransmitFlowControl = ETH_TransmitFlowControl_Disable;
    1fba:	dc82                	sw	zero,120(sp)
/home/randy/mounriver-studio-projects/UdpServer/obj/../NetLib/eth_driver_10M.c:765
    ETH_InitStructure.ETH_DropTCPIPChecksumErrorFrame = ETH_DropTCPIPChecksumErrorFrame_Enable;
    1fbc:	c302                	sw	zero,132(sp)
/home/randy/mounriver-studio-projects/UdpServer/obj/../NetLib/eth_driver_10M.c:771
    ETH_RegInit( &ETH_InitStructure, gPHYAddress );
    1fbe:	35c9                	jal	1e80 <ETH_RegInit>
/home/randy/mounriver-studio-projects/UdpServer/obj/../NetLib/eth_driver_10M.c:774
    ETH->MACA0HR = (uint32_t)((macAddr[5]<<8) | macAddr[4]);
    1fc0:	30dc                	lbu	a5,5(s1)
    1fc2:	20d8                	lbu	a4,4(s1)
    1fc4:	400286b7          	lui	a3,0x40028
    1fc8:	07a2                	slli	a5,a5,0x8
    1fca:	8fd9                	or	a5,a5,a4
    1fcc:	c2bc                	sw	a5,64(a3)
/home/randy/mounriver-studio-projects/UdpServer/obj/../NetLib/eth_driver_10M.c:775
    ETH->MACA0LR = (uint32_t)(macAddr[0] | (macAddr[1]<<8) | (macAddr[2]<<16) | (macAddr[3]<<24));
    1fce:	3098                	lbu	a4,1(s1)
    1fd0:	209c                	lbu	a5,0(s1)
/home/randy/mounriver-studio-projects/UdpServer/obj/../NetLib/eth_driver_10M.c:783
    ETH_DMAITConfig(ETH_DMA_IT_NIS |\
    1fd2:	80018537          	lui	a0,0x80018
    1fd6:	0722                	slli	a4,a4,0x8
    1fd8:	8f5d                	or	a4,a4,a5
    1fda:	20bc                	lbu	a5,2(s1)
    1fdc:	4585                	li	a1,1
    1fde:	0c150513          	addi	a0,a0,193 # 800180c1 <_eusrstack+0x600080c1>
    1fe2:	07c2                	slli	a5,a5,0x10
    1fe4:	8f5d                	or	a4,a4,a5
    1fe6:	30bc                	lbu	a5,3(s1)
    1fe8:	07e2                	slli	a5,a5,0x18
    1fea:	8fd9                	or	a5,a5,a4
/home/randy/mounriver-studio-projects/UdpServer/obj/../NetLib/eth_driver_10M.c:775
    ETH->MACA0LR = (uint32_t)(macAddr[0] | (macAddr[1]<<8) | (macAddr[2]<<16) | (macAddr[3]<<24));
    1fec:	c2fc                	sw	a5,68(a3)
/home/randy/mounriver-studio-projects/UdpServer/obj/../NetLib/eth_driver_10M.c:781
    ETH->MMCRIMR = ETH_MMCRIMR_RGUFM | ETH_MMCRIMR_RFCEM;
    1fee:	000207b7          	lui	a5,0x20
/home/randy/mounriver-studio-projects/UdpServer/obj/../NetLib/eth_driver_10M.c:778
    ETH->MMCTIMR = ETH_MMCTIMR_TGFM;
    1ff2:	1086a823          	sw	s0,272(a3) # 40028110 <_eusrstack+0x20018110>
/home/randy/mounriver-studio-projects/UdpServer/obj/../NetLib/eth_driver_10M.c:781
    ETH->MMCRIMR = ETH_MMCRIMR_RGUFM | ETH_MMCRIMR_RFCEM;
    1ff6:	02078793          	addi	a5,a5,32 # 20020 <_data_lma+0x161bc>
    1ffa:	10f6a623          	sw	a5,268(a3)
/home/randy/mounriver-studio-projects/UdpServer/obj/../NetLib/eth_driver_10M.c:783
    ETH_DMAITConfig(ETH_DMA_IT_NIS |\
    1ffe:	e66ff0ef          	jal	ra,1664 <ETH_DMAITConfig>
/home/randy/mounriver-studio-projects/UdpServer/obj/../NetLib/eth_driver_10M.c:790
}
    2002:	6129                	addi	sp,sp,192
    2004:	a06fe06f          	j	20a <__riscv_restore_4>

00002008 <WCHNET_ETHIsr>:
WCHNET_ETHIsr():
/home/randy/mounriver-studio-projects/UdpServer/obj/../NetLib/eth_driver_10M.c:845
 * @brief   Ethernet Interrupt Service Routine
 *
 * @return  none
 */
void WCHNET_ETHIsr(void)
{
    2008:	9e8fe2ef          	jal	t0,1f0 <__riscv_save_0>
/home/randy/mounriver-studio-projects/UdpServer/obj/../NetLib/eth_driver_10M.c:848
    uint32_t int_sta;

    int_sta = ETH->DMASR;
    200c:	400297b7          	lui	a5,0x40029
    2010:	4bc0                	lw	s0,20(a5)
/home/randy/mounriver-studio-projects/UdpServer/obj/../NetLib/eth_driver_10M.c:849
    if (int_sta & ETH_DMA_IT_AIS)
    2012:	01041713          	slli	a4,s0,0x10
    2016:	02075a63          	bgez	a4,204a <WCHNET_ETHIsr+0x42>
/home/randy/mounriver-studio-projects/UdpServer/obj/../NetLib/eth_driver_10M.c:851
    {
        if (int_sta & ETH_DMA_IT_RBU)
    201a:	08047713          	andi	a4,s0,128
    201e:	c31d                	beqz	a4,2044 <WCHNET_ETHIsr+0x3c>
/home/randy/mounriver-studio-projects/UdpServer/obj/../NetLib/eth_driver_10M.c:853
        {
            if((ChipId & 0xf0) == 0x10)
    2020:	8781a703          	lw	a4,-1928(gp) # 20000298 <ChipId>
    2024:	46c1                	li	a3,16
    2026:	0f077713          	andi	a4,a4,240
    202a:	00d71963          	bne	a4,a3,203c <WCHNET_ETHIsr+0x34>
/home/randy/mounriver-studio-projects/UdpServer/obj/../NetLib/eth_driver_10M.c:855
            {
                ((ETH_DMADESCTypeDef *)(((ETH_DMADESCTypeDef *)(ETH->DMACHRDR))->Buffer2NextDescAddr))->Status = ETH_DMARxDesc_OWN;
    202e:	47f8                	lw	a4,76(a5)
    2030:	800006b7          	lui	a3,0x80000
    2034:	4758                	lw	a4,12(a4)
    2036:	c314                	sw	a3,0(a4)
/home/randy/mounriver-studio-projects/UdpServer/obj/../NetLib/eth_driver_10M.c:858

                /* Resume DMA reception */
                ETH->DMARPDR = 0;
    2038:	0007a423          	sw	zero,8(a5) # 40029008 <_eusrstack+0x20019008>
/home/randy/mounriver-studio-projects/UdpServer/obj/../NetLib/eth_driver_10M.c:860
            }
            ETH_DMAClearITPendingBit(ETH_DMA_IT_RBU);
    203c:	08000513          	li	a0,128
    2040:	ddaff0ef          	jal	ra,161a <ETH_DMAClearITPendingBit>
/home/randy/mounriver-studio-projects/UdpServer/obj/../NetLib/eth_driver_10M.c:862
        }
        ETH_DMAClearITPendingBit(ETH_DMA_IT_AIS);
    2044:	6521                	lui	a0,0x8
    2046:	dd4ff0ef          	jal	ra,161a <ETH_DMAClearITPendingBit>
/home/randy/mounriver-studio-projects/UdpServer/obj/../NetLib/eth_driver_10M.c:865
    }

    if( int_sta & ETH_DMA_IT_NIS )
    204a:	00f41793          	slli	a5,s0,0xf
    204e:	0207da63          	bgez	a5,2082 <WCHNET_ETHIsr+0x7a>
/home/randy/mounriver-studio-projects/UdpServer/obj/../NetLib/eth_driver_10M.c:867
    {
        if( int_sta & ETH_DMA_IT_R )
    2052:	04047793          	andi	a5,s0,64
    2056:	c789                	beqz	a5,2060 <WCHNET_ETHIsr+0x58>
/home/randy/mounriver-studio-projects/UdpServer/obj/../NetLib/eth_driver_10M.c:871
        {
            /*If you don't use the Ethernet library,
             * you can do some data processing operations here*/
            ETH_DMAClearITPendingBit(ETH_DMA_IT_R);
    2058:	04000513          	li	a0,64
    205c:	dbeff0ef          	jal	ra,161a <ETH_DMAClearITPendingBit>
/home/randy/mounriver-studio-projects/UdpServer/obj/../NetLib/eth_driver_10M.c:873
        }
        if( int_sta & ETH_DMA_IT_T )
    2060:	00147793          	andi	a5,s0,1
    2064:	c781                	beqz	a5,206c <WCHNET_ETHIsr+0x64>
/home/randy/mounriver-studio-projects/UdpServer/obj/../NetLib/eth_driver_10M.c:875
        {
            ETH_DMAClearITPendingBit(ETH_DMA_IT_T);
    2066:	4505                	li	a0,1
    2068:	db2ff0ef          	jal	ra,161a <ETH_DMAClearITPendingBit>
/home/randy/mounriver-studio-projects/UdpServer/obj/../NetLib/eth_driver_10M.c:877
        }
        if( int_sta & ETH_DMA_IT_PHYLINK)
    206c:	00045863          	bgez	s0,207c <WCHNET_ETHIsr+0x74>
/home/randy/mounriver-studio-projects/UdpServer/obj/../NetLib/eth_driver_10M.c:879
        {
            ETH_PHYLink( );
    2070:	c81ff0ef          	jal	ra,1cf0 <ETH_PHYLink>
/home/randy/mounriver-studio-projects/UdpServer/obj/../NetLib/eth_driver_10M.c:880
            ETH_DMAClearITPendingBit(ETH_DMA_IT_PHYLINK);
    2074:	80000537          	lui	a0,0x80000
    2078:	da2ff0ef          	jal	ra,161a <ETH_DMAClearITPendingBit>
/home/randy/mounriver-studio-projects/UdpServer/obj/../NetLib/eth_driver_10M.c:882
        }
        ETH_DMAClearITPendingBit(ETH_DMA_IT_NIS);
    207c:	6541                	lui	a0,0x10
    207e:	d9cff0ef          	jal	ra,161a <ETH_DMAClearITPendingBit>
/home/randy/mounriver-studio-projects/UdpServer/obj/../NetLib/eth_driver_10M.c:884
    }
}
    2082:	992fe06f          	j	214 <__riscv_restore_0>

00002086 <ETH_Init>:
ETH_Init():
/home/randy/mounriver-studio-projects/UdpServer/obj/../NetLib/eth_driver_10M.c:894
 * @brief   Ethernet initialization.
 *
 * @return  none
 */
void ETH_Init( uint8_t *macAddr )
{
    2086:	96afe2ef          	jal	t0,1f0 <__riscv_save_0>
    208a:	842a                	mv	s0,a0
/home/randy/mounriver-studio-projects/UdpServer/obj/../NetLib/eth_driver_10M.c:895
    Delay_Ms(100);
    208c:	06400513          	li	a0,100
    2090:	2ab9                	jal	21ee <Delay_Ms>
/home/randy/mounriver-studio-projects/UdpServer/obj/../NetLib/eth_driver_10M.c:896
    ChipId = DBGMCU_GetCHIPID();
    2092:	c24ff0ef          	jal	ra,14b6 <DBGMCU_GetCHIPID>
    2096:	86a1ac23          	sw	a0,-1928(gp) # 20000298 <ChipId>
/home/randy/mounriver-studio-projects/UdpServer/obj/../NetLib/eth_driver_10M.c:897
    ETH_LedConfiguration( );
    209a:	b9bff0ef          	jal	ra,1c34 <ETH_LedConfiguration>
/home/randy/mounriver-studio-projects/UdpServer/obj/../NetLib/eth_driver_10M.c:898
    RandVal = (macAddr[3]^macAddr[4]^macAddr[5]) * 214017 + 2531017;
    209e:	303c                	lbu	a5,3(s0)
    20a0:	2058                	lbu	a4,4(s0)
/home/randy/mounriver-studio-projects/UdpServer/obj/../NetLib/eth_driver_10M.c:899
    ETH_Configuration( macAddr );
    20a2:	8522                	mv	a0,s0
/home/randy/mounriver-studio-projects/UdpServer/obj/../NetLib/eth_driver_10M.c:898
    RandVal = (macAddr[3]^macAddr[4]^macAddr[5]) * 214017 + 2531017;
    20a4:	8fb9                	xor	a5,a5,a4
    20a6:	3058                	lbu	a4,5(s0)
    20a8:	8fb9                	xor	a5,a5,a4
    20aa:	00034737          	lui	a4,0x34
    20ae:	40170713          	addi	a4,a4,1025 # 34401 <_data_lma+0x2a59d>
    20b2:	02e787b3          	mul	a5,a5,a4
    20b6:	0026a737          	lui	a4,0x26a
    20ba:	ec970713          	addi	a4,a4,-311 # 269ec9 <_data_lma+0x260065>
    20be:	97ba                	add	a5,a5,a4
    20c0:	88f1a423          	sw	a5,-1912(gp) # 200002a8 <RandVal>
/home/randy/mounriver-studio-projects/UdpServer/obj/../NetLib/eth_driver_10M.c:899
    ETH_Configuration( macAddr );
    20c4:	3585                	jal	1f24 <ETH_Configuration>
/home/randy/mounriver-studio-projects/UdpServer/obj/../NetLib/eth_driver_10M.c:900
    ETH_DMATxDescChainInit(DMATxDscrTab, MACTxBuf, ETH_TXBUFNB);
    20c6:	20002537          	lui	a0,0x20002
    20ca:	200045b7          	lui	a1,0x20004
    20ce:	8f850413          	addi	s0,a0,-1800 # 200018f8 <DMATxDscrTab>
    20d2:	4609                	li	a2,2
    20d4:	2c458593          	addi	a1,a1,708 # 200042c4 <MACTxBuf>
    20d8:	8f850513          	addi	a0,a0,-1800
    20dc:	ca2ff0ef          	jal	ra,157e <ETH_DMATxDescChainInit>
/home/randy/mounriver-studio-projects/UdpServer/obj/../NetLib/eth_driver_10M.c:901
    ETH_DMARxDescChainInit(DMARxDscrTab, MACRxBuf, ETH_RXBUFNB);
    20e0:	20002537          	lui	a0,0x20002
    20e4:	200025b7          	lui	a1,0x20002
    20e8:	88850493          	addi	s1,a0,-1912 # 20001888 <DMARxDscrTab>
    20ec:	461d                	li	a2,7
    20ee:	91858593          	addi	a1,a1,-1768 # 20001918 <MACRxBuf>
    20f2:	88850513          	addi	a0,a0,-1912
    20f6:	ccaff0ef          	jal	ra,15c0 <ETH_DMARxDescChainInit>
/home/randy/mounriver-studio-projects/UdpServer/obj/../NetLib/eth_driver_10M.c:902
    pDMARxSet = DMARxDscrTab;
    20fa:	8891a823          	sw	s1,-1904(gp) # 200002b0 <pDMARxSet>
/home/randy/mounriver-studio-projects/UdpServer/obj/../NetLib/eth_driver_10M.c:903
    pDMATxSet = DMATxDscrTab;
    20fe:	8881aa23          	sw	s0,-1900(gp) # 200002b4 <pDMATxSet>
NVIC_EnableIRQ():
/home/randy/mounriver-studio-projects/UdpServer/Core/core_riscv.h:170
    2102:	6709                	lui	a4,0x2
    2104:	e000e7b7          	lui	a5,0xe000e
    2108:	10e7a423          	sw	a4,264(a5) # e000e108 <_eusrstack+0xbfffe108>
NVIC_SetPriority():
/home/randy/mounriver-studio-projects/UdpServer/Core/core_riscv.h:286
  NVIC->IPRIOR[(uint32_t)(IRQn)] = priority;
    210c:	440786a3          	sb	zero,1101(a5)
ETH_Init():
/home/randy/mounriver-studio-projects/UdpServer/obj/../NetLib/eth_driver_10M.c:906
    NVIC_EnableIRQ(ETH_IRQn);
    NVIC_SetPriority(ETH_IRQn, 0);
}
    2110:	904fe06f          	j	214 <__riscv_restore_0>

00002114 <ETH_LibInit>:
ETH_LibInit():
/home/randy/mounriver-studio-projects/UdpServer/obj/../NetLib/eth_driver_10M.c:916
 * @brief   Ethernet library initialization program
 *
 * @return  command status
 */
uint8_t ETH_LibInit( uint8_t *ip, uint8_t *gwip, uint8_t *mask, uint8_t *macaddr )
{
    2114:	8dcfe2ef          	jal	t0,1f0 <__riscv_save_0>
    2118:	7139                	addi	sp,sp,-64
/home/randy/mounriver-studio-projects/UdpServer/obj/../NetLib/eth_driver_10M.c:921
    uint8_t s;
    struct _WCH_CFG  cfg;

    memset(&cfg,0,sizeof(cfg));
    cfg.TxBufSize = ETH_TX_BUF_SZE;
    211a:	5f400793          	li	a5,1524
    211e:	ca3e                	sw	a5,20(sp)
/home/randy/mounriver-studio-projects/UdpServer/obj/../NetLib/eth_driver_10M.c:922
    cfg.TCPMss   = WCHNET_TCP_MSS;
    2120:	5b400793          	li	a5,1460
    2124:	cc3e                	sw	a5,24(sp)
/home/randy/mounriver-studio-projects/UdpServer/obj/../NetLib/eth_driver_10M.c:923
    cfg.HeapSize = WCHNET_MEM_HEAP_SIZE;
    2126:	66400793          	li	a5,1636
    212a:	ce3e                	sw	a5,28(sp)
/home/randy/mounriver-studio-projects/UdpServer/obj/../NetLib/eth_driver_10M.c:924
    cfg.ARPTableNum = WCHNET_NUM_ARP_TABLE;
    212c:	03200793          	li	a5,50
    2130:	d03e                	sw	a5,32(sp)
/home/randy/mounriver-studio-projects/UdpServer/obj/../NetLib/eth_driver_10M.c:925
    cfg.MiscConfig0 = WCHNET_MISC_CONFIG0;
    2132:	10300793          	li	a5,259
    2136:	d23e                	sw	a5,36(sp)
/home/randy/mounriver-studio-projects/UdpServer/obj/../NetLib/eth_driver_10M.c:926
    cfg.MiscConfig1 = WCHNET_MISC_CONFIG1;
    2138:	405527b7          	lui	a5,0x40552
    213c:	0785                	addi	a5,a5,1
    213e:	d43e                	sw	a5,40(sp)
/home/randy/mounriver-studio-projects/UdpServer/obj/../NetLib/eth_driver_10M.c:927
    cfg.led_link = ETH_LedLinkSet;
    2140:	000027b7          	lui	a5,0x2
    2144:	be678793          	addi	a5,a5,-1050 # 1be6 <ETH_LedLinkSet>
    2148:	d63e                	sw	a5,44(sp)
/home/randy/mounriver-studio-projects/UdpServer/obj/../NetLib/eth_driver_10M.c:928
    cfg.led_data = ETH_LedDataSet;
    214a:	000027b7          	lui	a5,0x2
    214e:	bc478793          	addi	a5,a5,-1084 # 1bc4 <ETH_LedDataSet>
    2152:	d83e                	sw	a5,48(sp)
/home/randy/mounriver-studio-projects/UdpServer/obj/../NetLib/eth_driver_10M.c:929
    cfg.net_send = ETH_TxPktChainMode;
    2154:	000027b7          	lui	a5,0x2
    2158:	b8478793          	addi	a5,a5,-1148 # 1b84 <ETH_TxPktChainMode>
    215c:	da3e                	sw	a5,52(sp)
/home/randy/mounriver-studio-projects/UdpServer/obj/../NetLib/eth_driver_10M.c:930
    cfg.CheckValid = WCHNET_CFG_VALID;
    215e:	123457b7          	lui	a5,0x12345
    2162:	67878793          	addi	a5,a5,1656 # 12345678 <_data_lma+0x1233b814>
/home/randy/mounriver-studio-projects/UdpServer/obj/../NetLib/eth_driver_10M.c:916
{
    2166:	892a                	mv	s2,a0
/home/randy/mounriver-studio-projects/UdpServer/obj/../NetLib/eth_driver_10M.c:931
    s = WCHNET_ConfigLIB(&cfg);
    2168:	0848                	addi	a0,sp,20
/home/randy/mounriver-studio-projects/UdpServer/obj/../NetLib/eth_driver_10M.c:916
{
    216a:	c62e                	sw	a1,12(sp)
    216c:	c432                	sw	a2,8(sp)
    216e:	84b6                	mv	s1,a3
/home/randy/mounriver-studio-projects/UdpServer/obj/../NetLib/eth_driver_10M.c:920
    memset(&cfg,0,sizeof(cfg));
    2170:	dc02                	sw	zero,56(sp)
/home/randy/mounriver-studio-projects/UdpServer/obj/../NetLib/eth_driver_10M.c:930
    cfg.CheckValid = WCHNET_CFG_VALID;
    2172:	de3e                	sw	a5,60(sp)
/home/randy/mounriver-studio-projects/UdpServer/obj/../NetLib/eth_driver_10M.c:931
    s = WCHNET_ConfigLIB(&cfg);
    2174:	2d15                	jal	27a8 <WCHNET_ConfigLIB>
/home/randy/mounriver-studio-projects/UdpServer/obj/../NetLib/eth_driver_10M.c:932
    if( s ){
    2176:	842a                	mv	s0,a0
    2178:	e909                	bnez	a0,218a <ETH_LibInit+0x76>
/home/randy/mounriver-studio-projects/UdpServer/obj/../NetLib/eth_driver_10M.c:935
       return (s);
    }
    s = WCHNET_Init(ip,gwip,mask,macaddr);
    217a:	4622                	lw	a2,8(sp)
    217c:	45b2                	lw	a1,12(sp)
    217e:	86a6                	mv	a3,s1
    2180:	854a                	mv	a0,s2
    2182:	2bad                	jal	26fc <WCHNET_Init>
    2184:	842a                	mv	s0,a0
/home/randy/mounriver-studio-projects/UdpServer/obj/../NetLib/eth_driver_10M.c:936
    ETH_Init( macaddr );
    2186:	8526                	mv	a0,s1
    2188:	3dfd                	jal	2086 <ETH_Init>
/home/randy/mounriver-studio-projects/UdpServer/obj/../NetLib/eth_driver_10M.c:938
    return (s);
}
    218a:	8522                	mv	a0,s0
    218c:	6121                	addi	sp,sp,64
    218e:	886fe06f          	j	214 <__riscv_restore_0>

00002192 <Delay_Init>:
Delay_Init():
/home/randy/mounriver-studio-projects/UdpServer/obj/../Debug/debug.c:30
 *
 * @return  none
 */
void Delay_Init(void)
{
    p_us = SystemCoreClock / 8000000;
    2192:	81c1a783          	lw	a5,-2020(gp) # 2000023c <SystemCoreClock>
    2196:	007a1737          	lui	a4,0x7a1
    219a:	20070713          	addi	a4,a4,512 # 7a1200 <_data_lma+0x79739c>
    219e:	02e7d7b3          	divu	a5,a5,a4
    21a2:	0ff7f793          	andi	a5,a5,255
    21a6:	8af18523          	sb	a5,-1878(gp) # 200002ca <p_us>
/home/randy/mounriver-studio-projects/UdpServer/obj/../Debug/debug.c:31
    p_ms = (uint16_t)p_us * 1000;
    21aa:	3e800713          	li	a4,1000
    21ae:	02e787b3          	mul	a5,a5,a4
    21b2:	8af19423          	sh	a5,-1880(gp) # 200002c8 <p_ms>
/home/randy/mounriver-studio-projects/UdpServer/obj/../Debug/debug.c:32
}
    21b6:	8082                	ret

000021b8 <Delay_Us>:
Delay_Us():
/home/randy/mounriver-studio-projects/UdpServer/obj/../Debug/debug.c:47
 */
void Delay_Us(uint32_t n)
{
    uint32_t i;

    SysTick->SR &= ~(1 << 0);
    21b8:	e000f7b7          	lui	a5,0xe000f
    21bc:	43d8                	lw	a4,4(a5)
/home/randy/mounriver-studio-projects/UdpServer/obj/../Debug/debug.c:50
    i = (uint32_t)n * p_us;

    SysTick->CMP = i;
    21be:	4681                	li	a3,0
/home/randy/mounriver-studio-projects/UdpServer/obj/../Debug/debug.c:47
    SysTick->SR &= ~(1 << 0);
    21c0:	9b79                	andi	a4,a4,-2
    21c2:	c3d8                	sw	a4,4(a5)
/home/randy/mounriver-studio-projects/UdpServer/obj/../Debug/debug.c:48
    i = (uint32_t)n * p_us;
    21c4:	8aa1c703          	lbu	a4,-1878(gp) # 200002ca <p_us>
/home/randy/mounriver-studio-projects/UdpServer/obj/../Debug/debug.c:50
    SysTick->CMP = i;
    21c8:	02a70633          	mul	a2,a4,a0
    21cc:	cb90                	sw	a2,16(a5)
    21ce:	cbd4                	sw	a3,20(a5)
/home/randy/mounriver-studio-projects/UdpServer/obj/../Debug/debug.c:51
    SysTick->CTLR |= (1 << 4);
    21d0:	4398                	lw	a4,0(a5)
    21d2:	01076713          	ori	a4,a4,16
    21d6:	c398                	sw	a4,0(a5)
/home/randy/mounriver-studio-projects/UdpServer/obj/../Debug/debug.c:52
    SysTick->CTLR |= (1 << 5) | (1 << 0);
    21d8:	4398                	lw	a4,0(a5)
    21da:	02176713          	ori	a4,a4,33
    21de:	c398                	sw	a4,0(a5)
/home/randy/mounriver-studio-projects/UdpServer/obj/../Debug/debug.c:54 (discriminator 1)

    while((SysTick->SR & (1 << 0)) != (1 << 0))
    21e0:	43d8                	lw	a4,4(a5)
    21e2:	8b05                	andi	a4,a4,1
    21e4:	df75                	beqz	a4,21e0 <Delay_Us+0x28>
/home/randy/mounriver-studio-projects/UdpServer/obj/../Debug/debug.c:56
        ;
    SysTick->CTLR &= ~(1 << 0);
    21e6:	4398                	lw	a4,0(a5)
    21e8:	9b79                	andi	a4,a4,-2
    21ea:	c398                	sw	a4,0(a5)
/home/randy/mounriver-studio-projects/UdpServer/obj/../Debug/debug.c:57
}
    21ec:	8082                	ret

000021ee <Delay_Ms>:
Delay_Ms():
/home/randy/mounriver-studio-projects/UdpServer/obj/../Debug/debug.c:72
 */
void Delay_Ms(uint32_t n)
{
    uint32_t i;

    SysTick->SR &= ~(1 << 0);
    21ee:	e000f7b7          	lui	a5,0xe000f
    21f2:	43d8                	lw	a4,4(a5)
/home/randy/mounriver-studio-projects/UdpServer/obj/../Debug/debug.c:75
    i = (uint32_t)n * p_ms;

    SysTick->CMP = i;
    21f4:	4681                	li	a3,0
/home/randy/mounriver-studio-projects/UdpServer/obj/../Debug/debug.c:72
    SysTick->SR &= ~(1 << 0);
    21f6:	9b79                	andi	a4,a4,-2
    21f8:	c3d8                	sw	a4,4(a5)
/home/randy/mounriver-studio-projects/UdpServer/obj/../Debug/debug.c:73
    i = (uint32_t)n * p_ms;
    21fa:	8a81d703          	lhu	a4,-1880(gp) # 200002c8 <p_ms>
/home/randy/mounriver-studio-projects/UdpServer/obj/../Debug/debug.c:75
    SysTick->CMP = i;
    21fe:	02a70633          	mul	a2,a4,a0
    2202:	cb90                	sw	a2,16(a5)
    2204:	cbd4                	sw	a3,20(a5)
/home/randy/mounriver-studio-projects/UdpServer/obj/../Debug/debug.c:76
    SysTick->CTLR |= (1 << 4);
    2206:	4398                	lw	a4,0(a5)
    2208:	01076713          	ori	a4,a4,16
    220c:	c398                	sw	a4,0(a5)
/home/randy/mounriver-studio-projects/UdpServer/obj/../Debug/debug.c:77
    SysTick->CTLR |= (1 << 5) | (1 << 0);
    220e:	4398                	lw	a4,0(a5)
    2210:	02176713          	ori	a4,a4,33
    2214:	c398                	sw	a4,0(a5)
/home/randy/mounriver-studio-projects/UdpServer/obj/../Debug/debug.c:79 (discriminator 1)

    while((SysTick->SR & (1 << 0)) != (1 << 0))
    2216:	43d8                	lw	a4,4(a5)
    2218:	8b05                	andi	a4,a4,1
    221a:	df75                	beqz	a4,2216 <Delay_Ms+0x28>
/home/randy/mounriver-studio-projects/UdpServer/obj/../Debug/debug.c:81
        ;
    SysTick->CTLR &= ~(1 << 0);
    221c:	4398                	lw	a4,0(a5)
    221e:	9b79                	andi	a4,a4,-2
    2220:	c398                	sw	a4,0(a5)
/home/randy/mounriver-studio-projects/UdpServer/obj/../Debug/debug.c:82
}
    2222:	8082                	ret

00002224 <USART_Printf_Init>:
USART_Printf_Init():
/home/randy/mounriver-studio-projects/UdpServer/obj/../Debug/debug.c:94
 * @param   baudrate - USART communication baud rate.
 *
 * @return  None
 */
void USART_Printf_Init(uint32_t baudrate)
{
    2224:	fcdfd2ef          	jal	t0,1f0 <__riscv_save_0>
    2228:	842a                	mv	s0,a0
/home/randy/mounriver-studio-projects/UdpServer/obj/../Debug/debug.c:99
    GPIO_InitTypeDef  GPIO_InitStructure;
    USART_InitTypeDef USART_InitStructure;

#if(DEBUG == DEBUG_UART1)
    RCC_APB2PeriphClockCmd(RCC_APB2Periph_USART1 | RCC_APB2Periph_GPIOA, ENABLE);
    222a:	6511                	lui	a0,0x4
/home/randy/mounriver-studio-projects/UdpServer/obj/../Debug/debug.c:94
{
    222c:	1101                	addi	sp,sp,-32
/home/randy/mounriver-studio-projects/UdpServer/obj/../Debug/debug.c:99
    RCC_APB2PeriphClockCmd(RCC_APB2Periph_USART1 | RCC_APB2Periph_GPIOA, ENABLE);
    222e:	4585                	li	a1,1
    2230:	0511                	addi	a0,a0,4
    2232:	ec0ff0ef          	jal	ra,18f2 <RCC_APB2PeriphClockCmd>
/home/randy/mounriver-studio-projects/UdpServer/obj/../Debug/debug.c:101

    GPIO_InitStructure.GPIO_Pin = GPIO_Pin_9;
    2236:	20000793          	li	a5,512
    223a:	827c                	sh	a5,4(sp)
/home/randy/mounriver-studio-projects/UdpServer/obj/../Debug/debug.c:104
    GPIO_InitStructure.GPIO_Speed = GPIO_Speed_50MHz;
    GPIO_InitStructure.GPIO_Mode = GPIO_Mode_AF_PP;
    GPIO_Init(GPIOA, &GPIO_InitStructure);
    223c:	40011537          	lui	a0,0x40011
/home/randy/mounriver-studio-projects/UdpServer/obj/../Debug/debug.c:102
    GPIO_InitStructure.GPIO_Speed = GPIO_Speed_50MHz;
    2240:	478d                	li	a5,3
    2242:	c43e                	sw	a5,8(sp)
/home/randy/mounriver-studio-projects/UdpServer/obj/../Debug/debug.c:104
    GPIO_Init(GPIOA, &GPIO_InitStructure);
    2244:	004c                	addi	a1,sp,4
/home/randy/mounriver-studio-projects/UdpServer/obj/../Debug/debug.c:103
    GPIO_InitStructure.GPIO_Mode = GPIO_Mode_AF_PP;
    2246:	47e1                	li	a5,24
/home/randy/mounriver-studio-projects/UdpServer/obj/../Debug/debug.c:104
    GPIO_Init(GPIOA, &GPIO_InitStructure);
    2248:	80050513          	addi	a0,a0,-2048 # 40010800 <_eusrstack+0x20000800>
/home/randy/mounriver-studio-projects/UdpServer/obj/../Debug/debug.c:103
    GPIO_InitStructure.GPIO_Mode = GPIO_Mode_AF_PP;
    224c:	c63e                	sw	a5,12(sp)
/home/randy/mounriver-studio-projects/UdpServer/obj/../Debug/debug.c:104
    GPIO_Init(GPIOA, &GPIO_InitStructure);
    224e:	c3eff0ef          	jal	ra,168c <GPIO_Init>
/home/randy/mounriver-studio-projects/UdpServer/obj/../Debug/debug.c:126
    GPIO_InitStructure.GPIO_Mode = GPIO_Mode_AF_PP;
    GPIO_Init(GPIOB, &GPIO_InitStructure);

#endif

    USART_InitStructure.USART_BaudRate = baudrate;
    2252:	c822                	sw	s0,16(sp)
/home/randy/mounriver-studio-projects/UdpServer/obj/../Debug/debug.c:134
    USART_InitStructure.USART_Parity = USART_Parity_No;
    USART_InitStructure.USART_HardwareFlowControl = USART_HardwareFlowControl_None;
    USART_InitStructure.USART_Mode = USART_Mode_Tx;

#if(DEBUG == DEBUG_UART1)
    USART_Init(USART1, &USART_InitStructure);
    2254:	40014437          	lui	s0,0x40014
/home/randy/mounriver-studio-projects/UdpServer/obj/../Debug/debug.c:129
    USART_InitStructure.USART_Parity = USART_Parity_No;
    2258:	000807b7          	lui	a5,0x80
/home/randy/mounriver-studio-projects/UdpServer/obj/../Debug/debug.c:134
    USART_Init(USART1, &USART_InitStructure);
    225c:	080c                	addi	a1,sp,16
    225e:	80040513          	addi	a0,s0,-2048 # 40013800 <_eusrstack+0x20003800>
/home/randy/mounriver-studio-projects/UdpServer/obj/../Debug/debug.c:129
    USART_InitStructure.USART_Parity = USART_Parity_No;
    2262:	cc3e                	sw	a5,24(sp)
/home/randy/mounriver-studio-projects/UdpServer/obj/../Debug/debug.c:127
    USART_InitStructure.USART_WordLength = USART_WordLength_8b;
    2264:	ca02                	sw	zero,20(sp)
/home/randy/mounriver-studio-projects/UdpServer/obj/../Debug/debug.c:130
    USART_InitStructure.USART_HardwareFlowControl = USART_HardwareFlowControl_None;
    2266:	00011e23          	sh	zero,28(sp)
/home/randy/mounriver-studio-projects/UdpServer/obj/../Debug/debug.c:134
    USART_Init(USART1, &USART_InitStructure);
    226a:	863ff0ef          	jal	ra,1acc <USART_Init>
/home/randy/mounriver-studio-projects/UdpServer/obj/../Debug/debug.c:135
    USART_Cmd(USART1, ENABLE);
    226e:	4585                	li	a1,1
    2270:	80040513          	addi	a0,s0,-2048
    2274:	8e9ff0ef          	jal	ra,1b5c <USART_Cmd>
/home/randy/mounriver-studio-projects/UdpServer/obj/../Debug/debug.c:146
#elif(DEBUG == DEBUG_UART3)
    USART_Init(USART3, &USART_InitStructure);
    USART_Cmd(USART3, ENABLE);

#endif
}
    2278:	6105                	addi	sp,sp,32
    227a:	f9bfd06f          	j	214 <__riscv_restore_0>

0000227e <_write>:
_write():
/home/randy/mounriver-studio-projects/UdpServer/obj/../Debug/debug.c:175
 *          size - Data length
 *
 * @return  size: Data length
 */
__attribute__((used)) int _write(int fd, char *buf, int size)
{
    227e:	f59fd2ef          	jal	t0,1d6 <__riscv_save_4>
/home/randy/mounriver-studio-projects/UdpServer/obj/../Debug/debug.c:218

#else
    for(i = 0; i < size; i++)
    {
#if(DEBUG == DEBUG_UART1)
        while(USART_GetFlagStatus(USART1, USART_FLAG_TC) == RESET);
    2282:	400144b7          	lui	s1,0x40014
/home/randy/mounriver-studio-projects/UdpServer/obj/../Debug/debug.c:175
{
    2286:	89ae                	mv	s3,a1
    2288:	8932                	mv	s2,a2
/home/randy/mounriver-studio-projects/UdpServer/obj/../Debug/debug.c:215
    for(i = 0; i < size; i++)
    228a:	4401                	li	s0,0
/home/randy/mounriver-studio-projects/UdpServer/obj/../Debug/debug.c:218
        while(USART_GetFlagStatus(USART1, USART_FLAG_TC) == RESET);
    228c:	80048493          	addi	s1,s1,-2048 # 40013800 <_eusrstack+0x20003800>
/home/randy/mounriver-studio-projects/UdpServer/obj/../Debug/debug.c:215 (discriminator 1)
    for(i = 0; i < size; i++)
    2290:	01244563          	blt	s0,s2,229a <_write+0x1c>
/home/randy/mounriver-studio-projects/UdpServer/obj/../Debug/debug.c:230
        USART_SendData(USART3, *buf++);
#endif
    }
#endif
    return size;
}
    2294:	854a                	mv	a0,s2
    2296:	f75fd06f          	j	20a <__riscv_restore_4>
/home/randy/mounriver-studio-projects/UdpServer/obj/../Debug/debug.c:218 (discriminator 1)
        while(USART_GetFlagStatus(USART1, USART_FLAG_TC) == RESET);
    229a:	04000593          	li	a1,64
    229e:	8526                	mv	a0,s1
    22a0:	8dbff0ef          	jal	ra,1b7a <USART_GetFlagStatus>
    22a4:	d97d                	beqz	a0,229a <_write+0x1c>
/home/randy/mounriver-studio-projects/UdpServer/obj/../Debug/debug.c:219 (discriminator 2)
        USART_SendData(USART1, *buf++);
    22a6:	008987b3          	add	a5,s3,s0
    22aa:	00078583          	lb	a1,0(a5) # 80000 <_data_lma+0x7619c>
    22ae:	8526                	mv	a0,s1
/home/randy/mounriver-studio-projects/UdpServer/obj/../Debug/debug.c:215 (discriminator 2)
    for(i = 0; i < size; i++)
    22b0:	0405                	addi	s0,s0,1
/home/randy/mounriver-studio-projects/UdpServer/obj/../Debug/debug.c:219 (discriminator 2)
        USART_SendData(USART1, *buf++);
    22b2:	05c2                	slli	a1,a1,0x10
    22b4:	81c1                	srli	a1,a1,0x10
    22b6:	8bdff0ef          	jal	ra,1b72 <USART_SendData>
    22ba:	bfd9                	j	2290 <_write+0x12>

000022bc <_sbrk>:
_sbrk():
/home/randy/mounriver-studio-projects/UdpServer/obj/../Debug/debug.c:245
{
    extern char _end[];
    extern char _heap_end[];
    static char *curbrk = _end;

    if ((curbrk + incr < _end) || (curbrk + incr > _heap_end))
    22bc:	82818713          	addi	a4,gp,-2008 # 20000248 <curbrk.5590>
    22c0:	431c                	lw	a5,0(a4)
    22c2:	200066b7          	lui	a3,0x20006
    22c6:	7ac68693          	addi	a3,a3,1964 # 200067ac <_ebss>
    22ca:	953e                	add	a0,a0,a5
    22cc:	00d56b63          	bltu	a0,a3,22e2 <_sbrk+0x26>
/home/randy/mounriver-studio-projects/UdpServer/obj/../Debug/debug.c:245 (discriminator 1)
    22d0:	200106b7          	lui	a3,0x20010
    22d4:	80068693          	addi	a3,a3,-2048 # 2000f800 <_heap_end>
    22d8:	00a6e563          	bltu	a3,a0,22e2 <_sbrk+0x26>
/home/randy/mounriver-studio-projects/UdpServer/obj/../Debug/debug.c:248
    return NULL - 1;

    curbrk += incr;
    22dc:	c308                	sw	a0,0(a4)
/home/randy/mounriver-studio-projects/UdpServer/obj/../Debug/debug.c:250
    return curbrk - incr;
}
    22de:	853e                	mv	a0,a5
    22e0:	8082                	ret
/home/randy/mounriver-studio-projects/UdpServer/obj/../Debug/debug.c:246
    return NULL - 1;
    22e2:	57fd                	li	a5,-1
    22e4:	bfed                	j	22de <_sbrk+0x22>

000022e6 <__get_MEPC>:
__get_MEPC():
/home/randy/mounriver-studio-projects/UdpServer/obj/../Core/core_riscv.c:248
 */
uint32_t __get_MEPC(void)
{
  uint32_t result;

  __ASM volatile ( "csrr %0," "mepc" : "=r" (result) );
    22e6:	34102573          	csrr	a0,mepc
/home/randy/mounriver-studio-projects/UdpServer/obj/../Core/core_riscv.c:250
  return (result);
}
    22ea:	8082                	ret

000022ec <__get_MCAUSE>:
__get_MCAUSE():
/home/randy/mounriver-studio-projects/UdpServer/obj/../Core/core_riscv.c:275
 */
uint32_t __get_MCAUSE(void)
{
  uint32_t result;

  __ASM volatile ( "csrr %0," "mcause" : "=r" (result) );
    22ec:	34202573          	csrr	a0,mcause
/home/randy/mounriver-studio-projects/UdpServer/obj/../Core/core_riscv.c:277
  return (result);
}
    22f0:	8082                	ret

000022f2 <__get_MTVAL>:
__get_MTVAL():
/home/randy/mounriver-studio-projects/UdpServer/obj/../Core/core_riscv.c:302
 */
uint32_t __get_MTVAL(void)
{
  uint32_t result;

  __ASM volatile ( "csrr %0," "mtval" : "=r" (result) );
    22f2:	34302573          	csrr	a0,mtval
/home/randy/mounriver-studio-projects/UdpServer/obj/../Core/core_riscv.c:304
  return (result);
}
    22f6:	8082                	ret

000022f8 <WCHNET_NetInput>:
WCHNET_NetInput():
    22f8:	ef9fd2ef          	jal	t0,1f0 <__riscv_save_0>
    22fc:	20006537          	lui	a0,0x20006
    2300:	73c50513          	addi	a0,a0,1852 # 2000673c <WCHNetIf>
    2304:	258010ef          	jal	ra,355c <ethernetif_input>
    2308:	f0dfd06f          	j	214 <__riscv_restore_0>

0000230c <WCHNET_PhyStatus>:
WCHNET_PhyStatus():
    230c:	ee5fd2ef          	jal	t0,1f0 <__riscv_save_0>
    2310:	200067b7          	lui	a5,0x20006
    2314:	6cc78793          	addi	a5,a5,1740 # 200066cc <NetInf>
    2318:	57d8                	lw	a4,44(a5)
    231a:	20006437          	lui	s0,0x20006
    231e:	d388                	sw	a0,32(a5)
    2320:	00476713          	ori	a4,a4,4
    2324:	d7d8                	sw	a4,44(a5)
    2326:	8911                	andi	a0,a0,4
    2328:	71040793          	addi	a5,s0,1808 # 20006710 <WCHCfg>
    232c:	4f9c                	lw	a5,24(a5)
    232e:	71040413          	addi	s0,s0,1808
    2332:	cd01                	beqz	a0,234a <WCHNET_PhyStatus+0x3e>
    2334:	c399                	beqz	a5,233a <WCHNET_PhyStatus+0x2e>
    2336:	4501                	li	a0,0
    2338:	9782                	jalr	a5
    233a:	4c5c                	lw	a5,28(s0)
    233c:	c399                	beqz	a5,2342 <WCHNET_PhyStatus+0x36>
    233e:	4501                	li	a0,0
    2340:	9782                	jalr	a5
    2342:	4505                	li	a0,1
    2344:	22a5                	jal	24ac <IPCheckParaInit>
    2346:	ecffd06f          	j	214 <__riscv_restore_0>
    234a:	c399                	beqz	a5,2350 <WCHNET_PhyStatus+0x44>
    234c:	4505                	li	a0,1
    234e:	9782                	jalr	a5
    2350:	4c5c                	lw	a5,28(s0)
    2352:	dbf5                	beqz	a5,2346 <WCHNET_PhyStatus+0x3a>
    2354:	4505                	li	a0,1
    2356:	9782                	jalr	a5
    2358:	b7fd                	j	2346 <WCHNET_PhyStatus+0x3a>

0000235a <WCHNET_Rx>:
WCHNET_Rx():
    235a:	8901a783          	lw	a5,-1904(gp) # 200002b0 <pDMARxSet>
    235e:	00052023          	sw	zero,0(a0)
    2362:	cb9d                	beqz	a5,2398 <WCHNET_Rx+0x3e>
    2364:	4394                	lw	a3,0(a5)
    2366:	0006db63          	bgez	a3,237c <WCHNET_Rx+0x22>
    236a:	47d4                	lw	a3,12(a5)
    236c:	4290                	lw	a2,0(a3)
    236e:	02064563          	bltz	a2,2398 <WCHNET_Rx+0x3e>
    2372:	439c                	lw	a5,0(a5)
    2374:	0007d463          	bgez	a5,237c <WCHNET_Rx+0x22>
    2378:	88d1a823          	sw	a3,-1904(gp) # 200002b0 <pDMARxSet>
    237c:	8901a783          	lw	a5,-1904(gp) # 200002b0 <pDMARxSet>
    2380:	6591                	lui	a1,0x4
    2382:	4601                	li	a2,0
    2384:	15fd                	addi	a1,a1,-1
    2386:	4835                	li	a6,13
    2388:	800008b7          	lui	a7,0x80000
    238c:	4394                	lw	a3,0(a5)
    238e:	0006d763          	bgez	a3,239c <WCHNET_Rx+0x42>
    2392:	c219                	beqz	a2,2398 <WCHNET_Rx+0x3e>
    2394:	88f1a823          	sw	a5,-1904(gp) # 200002b0 <pDMARxSet>
    2398:	4501                	li	a0,0
    239a:	8082                	ret
    239c:	4394                	lw	a3,0(a5)
    239e:	01069313          	slli	t1,a3,0x10
    23a2:	04034263          	bltz	t1,23e6 <WCHNET_Rx+0x8c>
    23a6:	4394                	lw	a3,0(a5)
    23a8:	1006f693          	andi	a3,a3,256
    23ac:	ce8d                	beqz	a3,23e6 <WCHNET_Rx+0x8c>
    23ae:	4394                	lw	a3,0(a5)
    23b0:	2006f693          	andi	a3,a3,512
    23b4:	ca8d                	beqz	a3,23e6 <WCHNET_Rx+0x8c>
    23b6:	4394                	lw	a3,0(a5)
    23b8:	82c1                	srli	a3,a3,0x10
    23ba:	8eed                	and	a3,a3,a1
    23bc:	16f1                	addi	a3,a3,-4
    23be:	c114                	sw	a3,0(a0)
    23c0:	02d87163          	bgeu	a6,a3,23e2 <WCHNET_Rx+0x88>
    23c4:	4394                	lw	a3,0(a5)
    23c6:	0206f693          	andi	a3,a3,32
    23ca:	ea81                	bnez	a3,23da <WCHNET_Rx+0x80>
    23cc:	c219                	beqz	a2,23d2 <WCHNET_Rx+0x78>
    23ce:	88f1a823          	sw	a5,-1904(gp) # 200002b0 <pDMARxSet>
    23d2:	479c                	lw	a5,8(a5)
    23d4:	c15c                	sw	a5,4(a0)
    23d6:	4505                	li	a0,1
    23d8:	8082                	ret
    23da:	4394                	lw	a3,0(a5)
    23dc:	0816f693          	andi	a3,a3,129
    23e0:	d6f5                	beqz	a3,23cc <WCHNET_Rx+0x72>
    23e2:	00052023          	sw	zero,0(a0)
    23e6:	0117a023          	sw	a7,0(a5)
    23ea:	4605                	li	a2,1
    23ec:	47dc                	lw	a5,12(a5)
    23ee:	bf79                	j	238c <WCHNET_Rx+0x32>

000023f0 <setRxBuffAddr>:
setRxBuffAddr():
    23f0:	8901a703          	lw	a4,-1904(gp) # 200002b0 <pDMARxSet>
    23f4:	800006b7          	lui	a3,0x80000
    23f8:	c314                	sw	a3,0(a4)
    23fa:	4758                	lw	a4,12(a4)
    23fc:	88e1a823          	sw	a4,-1904(gp) # 200002b0 <pDMARxSet>
    2400:	8082                	ret

00002402 <WCHNET_Tx>:
WCHNET_Tx():
    2402:	deffd2ef          	jal	t0,1f0 <__riscv_save_0>
    2406:	8bc1c783          	lbu	a5,-1860(gp) # 200002dc <phydata>
    240a:	0ff7f793          	andi	a5,a5,255
    240e:	e781                	bnez	a5,2416 <WCHNET_Tx+0x14>
    2410:	4785                	li	a5,1
    2412:	8af18e23          	sb	a5,-1860(gp) # 200002dc <phydata>
    2416:	8801a703          	lw	a4,-1920(gp) # 200002a0 <LocalTime>
    241a:	8ac18793          	addi	a5,gp,-1876 # 200002cc <TxTimer>
    241e:	cb09                	beqz	a4,2430 <WCHNET_Tx+0x2e>
    2420:	c398                	sw	a4,0(a5)
    2422:	200067b7          	lui	a5,0x20006
    2426:	7307a783          	lw	a5,1840(a5) # 20006730 <WCHCfg+0x20>
    242a:	9782                	jalr	a5
    242c:	de9fd06f          	j	214 <__riscv_restore_0>
    2430:	4705                	li	a4,1
    2432:	b7fd                	j	2420 <WCHNET_Tx+0x1e>

00002434 <GetChipID>:
GetChipID():
    2434:	1ffff7b7          	lui	a5,0x1ffff
    2438:	7067d503          	lhu	a0,1798(a5) # 1ffff706 <_data_lma+0x1fff58a2>
    243c:	0f057513          	andi	a0,a0,240
    2440:	8082                	ret

00002442 <getTxBuffAddr>:
getTxBuffAddr():
    2442:	daffd2ef          	jal	t0,1f0 <__riscv_save_0>
    2446:	200067b7          	lui	a5,0x20006
    244a:	7307a783          	lw	a5,1840(a5) # 20006730 <WCHCfg+0x20>
    244e:	4901                	li	s2,0
    2450:	c7b1                	beqz	a5,249c <getTxBuffAddr+0x5a>
    2452:	8741a483          	lw	s1,-1932(gp) # 20000294 <DMATxDescToSet>
    2456:	c0b9                	beqz	s1,249c <getTxBuffAddr+0x5a>
    2458:	409c                	lw	a5,0(s1)
    245a:	0084a903          	lw	s2,8(s1)
    245e:	8ac18413          	addi	s0,gp,-1876 # 200002cc <TxTimer>
    2462:	0207db63          	bgez	a5,2498 <getTxBuffAddr+0x56>
    2466:	37f9                	jal	2434 <GetChipID>
    2468:	4014                	lw	a3,0(s0)
    246a:	4781                	li	a5,0
    246c:	08000613          	li	a2,128
    2470:	06300813          	li	a6,99
    2474:	68a1                	lui	a7,0x8
    2476:	03000313          	li	t1,48
    247a:	00c50463          	beq	a0,a2,2482 <getTxBuffAddr+0x40>
    247e:	02651263          	bne	a0,t1,24a2 <getTxBuffAddr+0x60>
    2482:	8801a703          	lw	a4,-1920(gp) # 200002a0 <LocalTime>
    2486:	8f15                	sub	a4,a4,a3
    2488:	00e86463          	bltu	a6,a4,2490 <getTxBuffAddr+0x4e>
    248c:	00f8fb63          	bgeu	a7,a5,24a2 <getTxBuffAddr+0x60>
    2490:	409c                	lw	a5,0(s1)
    2492:	0786                	slli	a5,a5,0x1
    2494:	8385                	srli	a5,a5,0x1
    2496:	c09c                	sw	a5,0(s1)
    2498:	00042023          	sw	zero,0(s0)
    249c:	854a                	mv	a0,s2
    249e:	d77fd06f          	j	214 <__riscv_restore_0>
    24a2:	4098                	lw	a4,0(s1)
    24a4:	fe075ae3          	bgez	a4,2498 <getTxBuffAddr+0x56>
    24a8:	0785                	addi	a5,a5,1
    24aa:	bfc1                	j	247a <getTxBuffAddr+0x38>

000024ac <IPCheckParaInit>:
IPCheckParaInit():
    24ac:	8801a703          	lw	a4,-1920(gp) # 200002a0 <LocalTime>
    24b0:	200067b7          	lui	a5,0x20006
    24b4:	64878793          	addi	a5,a5,1608 # 20006648 <SelARP>
    24b8:	a388                	sb	a0,0(a5)
    24ba:	00079123          	sh	zero,2(a5)
    24be:	00079223          	sh	zero,4(a5)
    24c2:	c798                	sw	a4,8(a5)
    24c4:	000780a3          	sb	zero,1(a5)
    24c8:	8082                	ret

000024ca <IPConflictHandle>:
IPConflictHandle():
    24ca:	d27fd2ef          	jal	t0,1f0 <__riscv_save_0>
    24ce:	842a                	mv	s0,a0
    24d0:	4501                	li	a0,0
    24d2:	3fe9                	jal	24ac <IPCheckParaInit>
    24d4:	200067b7          	lui	a5,0x20006
    24d8:	64878793          	addi	a5,a5,1608 # 20006648 <SelARP>
    24dc:	c811                	beqz	s0,24f0 <IPConflictHandle+0x26>
    24de:	4705                	li	a4,1
    24e0:	b398                	sb	a4,1(a5)
    24e2:	200067b7          	lui	a5,0x20006
    24e6:	4709                	li	a4,2
    24e8:	6ee7ac23          	sw	a4,1784(a5) # 200066f8 <NetInf+0x2c>
    24ec:	d29fd06f          	j	214 <__riscv_restore_0>
    24f0:	000780a3          	sb	zero,1(a5)
    24f4:	bfe5                	j	24ec <IPConflictHandle+0x22>

000024f6 <NET_TCPError>:
NET_TCPError():
    24f6:	8082                	ret

000024f8 <SocketIPRAWReceive>:
SocketIPRAWReceive():
    24f8:	cd1fd2ef          	jal	t0,1c8 <__riscv_save_10>
    24fc:	425c                	lw	a5,4(a2)
    24fe:	00852a03          	lw	s4,8(a0)
    2502:	00c52903          	lw	s2,12(a0)
    2506:	4900                	lw	s0,16(a0)
    2508:	84aa                	mv	s1,a0
    250a:	2388                	lbu	a0,0(a5)
    250c:	339c                	lbu	a5,1(a5)
    250e:	89b2                	mv	s3,a2
    2510:	07a2                	slli	a5,a5,0x8
    2512:	8d5d                	or	a0,a0,a5
    2514:	13c010ef          	jal	ra,3650 <ntohs>
    2518:	00655593          	srli	a1,a0,0x6
    251c:	03c5f593          	andi	a1,a1,60
    2520:	40b005b3          	neg	a1,a1
    2524:	854e                	mv	a0,s3
    2526:	3b8020ef          	jal	ra,48de <pbuf_header>
    252a:	e559                	bnez	a0,25b8 <SocketIPRAWReceive+0xc0>
    252c:	44dc                	lw	a5,12(s1)
    252e:	4c98                	lw	a4,24(s1)
    2530:	0089db03          	lhu	s6,8(s3)
    2534:	8f99                	sub	a5,a5,a4
    2536:	0167e463          	bltu	a5,s6,253e <SocketIPRAWReceive+0x46>
    253a:	000b1863          	bnez	s6,254a <SocketIPRAWReceive+0x52>
    253e:	854e                	mv	a0,s3
    2540:	40c020ef          	jal	ra,494c <pbuf_free>
    2544:	4505                	li	a0,1
    2546:	cbbfd06f          	j	200 <__riscv_restore_10>
    254a:	9a4a                	add	s4,s4,s2
    254c:	894e                	mv	s2,s3
    254e:	00a95603          	lhu	a2,10(s2)
    2552:	408a0ab3          	sub	s5,s4,s0
    2556:	00492b83          	lw	s7,4(s2)
    255a:	04caf463          	bgeu	s5,a2,25a2 <SocketIPRAWReceive+0xaa>
    255e:	8656                	mv	a2,s5
    2560:	85de                	mv	a1,s7
    2562:	8522                	mv	a0,s0
    2564:	55d050ef          	jal	ra,82c0 <memcpy>
    2568:	00a95783          	lhu	a5,10(s2)
    256c:	4498                	lw	a4,8(s1)
    256e:	41440433          	sub	s0,s0,s4
    2572:	943e                	add	s0,s0,a5
    2574:	8622                	mv	a2,s0
    2576:	015b85b3          	add	a1,s7,s5
    257a:	853a                	mv	a0,a4
    257c:	545050ef          	jal	ra,82c0 <memcpy>
    2580:	942a                	add	s0,s0,a0
    2582:	00092903          	lw	s2,0(s2)
    2586:	fc0914e3          	bnez	s2,254e <SocketIPRAWReceive+0x56>
    258a:	854e                	mv	a0,s3
    258c:	3c0020ef          	jal	ra,494c <pbuf_free>
    2590:	4c9c                	lw	a5,24(s1)
    2592:	c880                	sw	s0,16(s1)
    2594:	97da                	add	a5,a5,s6
    2596:	cc9c                	sw	a5,24(s1)
    2598:	409c                	lw	a5,0(s1)
    259a:	0047e793          	ori	a5,a5,4
    259e:	c09c                	sw	a5,0(s1)
    25a0:	b755                	j	2544 <SocketIPRAWReceive+0x4c>
    25a2:	8522                	mv	a0,s0
    25a4:	85de                	mv	a1,s7
    25a6:	51b050ef          	jal	ra,82c0 <memcpy>
    25aa:	00a95783          	lhu	a5,10(s2)
    25ae:	943e                	add	s0,s0,a5
    25b0:	fd5799e3          	bne	a5,s5,2582 <SocketIPRAWReceive+0x8a>
    25b4:	4480                	lw	s0,8(s1)
    25b6:	b7f1                	j	2582 <SocketIPRAWReceive+0x8a>
    25b8:	4501                	li	a0,0
    25ba:	b771                	j	2546 <SocketIPRAWReceive+0x4e>

000025bc <SocketUdpReceive>:
SocketUdpReceive():
    25bc:	ce61                	beqz	a2,2694 <SocketUdpReceive+0xd8>
    25be:	c0bfd2ef          	jal	t0,1c8 <__riscv_save_10>
    25c2:	00c52b83          	lw	s7,12(a0)
    25c6:	4d1c                	lw	a5,24(a0)
    25c8:	00865b03          	lhu	s6,8(a2) # 8008 <print+0x154>
    25cc:	8aba                	mv	s5,a4
    25ce:	40fb87b3          	sub	a5,s7,a5
    25d2:	8a36                	mv	s4,a3
    25d4:	8932                	mv	s2,a2
    25d6:	842a                	mv	s0,a0
    25d8:	0167e463          	bltu	a5,s6,25e0 <SocketUdpReceive+0x24>
    25dc:	000b1763          	bnez	s6,25ea <SocketUdpReceive+0x2e>
    25e0:	854a                	mv	a0,s2
    25e2:	36a020ef          	jal	ra,494c <pbuf_free>
    25e6:	c1bfd06f          	j	200 <__riscv_restore_10>
    25ea:	451c                	lw	a5,8(a0)
    25ec:	4904                	lw	s1,16(a0)
    25ee:	89b2                	mv	s3,a2
    25f0:	9bbe                	add	s7,s7,a5
    25f2:	00a9d603          	lhu	a2,10(s3)
    25f6:	409b8c33          	sub	s8,s7,s1
    25fa:	0049ac83          	lw	s9,4(s3)
    25fe:	06cc7763          	bgeu	s8,a2,266c <SocketUdpReceive+0xb0>
    2602:	8662                	mv	a2,s8
    2604:	85e6                	mv	a1,s9
    2606:	8526                	mv	a0,s1
    2608:	4b9050ef          	jal	ra,82c0 <memcpy>
    260c:	00a9d783          	lhu	a5,10(s3)
    2610:	4418                	lw	a4,8(s0)
    2612:	417484b3          	sub	s1,s1,s7
    2616:	94be                	add	s1,s1,a5
    2618:	8626                	mv	a2,s1
    261a:	018c85b3          	add	a1,s9,s8
    261e:	853a                	mv	a0,a4
    2620:	4a1050ef          	jal	ra,82c0 <memcpy>
    2624:	94aa                	add	s1,s1,a0
    2626:	0009a983          	lw	s3,0(s3)
    262a:	fc0994e3          	bnez	s3,25f2 <SocketUdpReceive+0x36>
    262e:	854a                	mv	a0,s2
    2630:	31c020ef          	jal	ra,494c <pbuf_free>
    2634:	03842803          	lw	a6,56(s0)
    2638:	04080563          	beqz	a6,2682 <SocketUdpReceive+0xc6>
    263c:	001a4583          	lbu	a1,1(s4) # 20000001 <_data_vma+0x1>
    2640:	000a4783          	lbu	a5,0(s4)
    2644:	4814                	lw	a3,16(s0)
    2646:	05a2                	slli	a1,a1,0x8
    2648:	8ddd                	or	a1,a1,a5
    264a:	002a4783          	lbu	a5,2(s4)
    264e:	875a                	mv	a4,s6
    2650:	8656                	mv	a2,s5
    2652:	07c2                	slli	a5,a5,0x10
    2654:	8fcd                	or	a5,a5,a1
    2656:	003a4583          	lbu	a1,3(s4)
    265a:	8522                	mv	a0,s0
    265c:	05e2                	slli	a1,a1,0x18
    265e:	8ddd                	or	a1,a1,a5
    2660:	9802                	jalr	a6
    2662:	441c                	lw	a5,8(s0)
    2664:	00042c23          	sw	zero,24(s0)
    2668:	c81c                	sw	a5,16(s0)
    266a:	bfb5                	j	25e6 <SocketUdpReceive+0x2a>
    266c:	8526                	mv	a0,s1
    266e:	85e6                	mv	a1,s9
    2670:	451050ef          	jal	ra,82c0 <memcpy>
    2674:	00a9d783          	lhu	a5,10(s3)
    2678:	94be                	add	s1,s1,a5
    267a:	fb8796e3          	bne	a5,s8,2626 <SocketUdpReceive+0x6a>
    267e:	4404                	lw	s1,8(s0)
    2680:	b75d                	j	2626 <SocketUdpReceive+0x6a>
    2682:	4c18                	lw	a4,24(s0)
    2684:	401c                	lw	a5,0(s0)
    2686:	c804                	sw	s1,16(s0)
    2688:	975a                	add	a4,a4,s6
    268a:	0047e793          	ori	a5,a5,4
    268e:	cc18                	sw	a4,24(s0)
    2690:	c01c                	sw	a5,0(s0)
    2692:	bf91                	j	25e6 <SocketUdpReceive+0x2a>
    2694:	8082                	ret

00002696 <ErrorEncode>:
ErrorEncode():
    2696:	c919                	beqz	a0,26ac <ErrorEncode+0x16>
    2698:	40a00533          	neg	a0,a0
    269c:	67a9                	lui	a5,0xa
    269e:	c7878793          	addi	a5,a5,-904 # 9c78 <ErrTable>
    26a2:	0ff57513          	andi	a0,a0,255
    26a6:	953e                	add	a0,a0,a5
    26a8:	2108                	lbu	a0,0(a0)
    26aa:	8082                	ret
    26ac:	4501                	li	a0,0
    26ae:	8082                	ret

000026b0 <WCHSocketInit>:
WCHSocketInit():
    26b0:	b41fd2ef          	jal	t0,1f0 <__riscv_save_0>
    26b4:	03c00793          	li	a5,60
    26b8:	02f587b3          	mul	a5,a1,a5
    26bc:	20006437          	lui	s0,0x20006
    26c0:	60c40713          	addi	a4,s0,1548 # 2000660c <SocketInf>
    26c4:	892a                	mv	s2,a0
    26c6:	84ae                	mv	s1,a1
    26c8:	03c00613          	li	a2,60
    26cc:	4581                	li	a1,0
    26ce:	60c40413          	addi	s0,s0,1548
    26d2:	97ba                	add	a5,a5,a4
    26d4:	853e                	mv	a0,a5
    26d6:	b4bfd0ef          	jal	ra,220 <memset>
    26da:	00090763          	beqz	s2,26e8 <WCHSocketInit+0x38>
    26de:	03c00613          	li	a2,60
    26e2:	85ca                	mv	a1,s2
    26e4:	3dd050ef          	jal	ra,82c0 <memcpy>
    26e8:	03c00593          	li	a1,60
    26ec:	02b485b3          	mul	a1,s1,a1
    26f0:	95a2                	add	a1,a1,s0
    26f2:	459c                	lw	a5,8(a1)
    26f4:	c99c                	sw	a5,16(a1)
    26f6:	c9dc                	sw	a5,20(a1)
    26f8:	b1dfd06f          	j	214 <__riscv_restore_0>

000026fc <WCHNET_Init>:
WCHNET_Init():
    26fc:	adbfd2ef          	jal	t0,1d6 <__riscv_save_4>
    2700:	8a2a                	mv	s4,a0
    2702:	20006537          	lui	a0,0x20006
    2706:	1141                	addi	sp,sp,-16
    2708:	89ae                	mv	s3,a1
    270a:	84b2                	mv	s1,a2
    270c:	4581                	li	a1,0
    270e:	4661                	li	a2,24
    2710:	65450513          	addi	a0,a0,1620 # 20006654 <DHCPCtrl>
    2714:	c636                	sw	a3,12(sp)
    2716:	b0bfd0ef          	jal	ra,220 <memset>
    271a:	46b2                	lw	a3,12(sp)
    271c:	20006437          	lui	s0,0x20006
    2720:	6cc40913          	addi	s2,s0,1740 # 200066cc <NetInf>
    2724:	85b6                	mv	a1,a3
    2726:	4619                	li	a2,6
    2728:	00c90513          	addi	a0,s2,12
    272c:	395050ef          	jal	ra,82c0 <memcpy>
    2730:	4611                	li	a2,4
    2732:	85d2                	mv	a1,s4
    2734:	6cc40513          	addi	a0,s0,1740
    2738:	389050ef          	jal	ra,82c0 <memcpy>
    273c:	4611                	li	a2,4
    273e:	85ce                	mv	a1,s3
    2740:	00490513          	addi	a0,s2,4
    2744:	37d050ef          	jal	ra,82c0 <memcpy>
    2748:	6cc40413          	addi	s0,s0,1740
    274c:	e0a1                	bnez	s1,278c <WCHNET_Init+0x90>
    274e:	010007b7          	lui	a5,0x1000
    2752:	17fd                	addi	a5,a5,-1
    2754:	c41c                	sw	a5,8(s0)
    2756:	4481                	li	s1,0
    2758:	8b41c783          	lbu	a5,-1868(gp) # 200002d4 <SockNumber>
    275c:	02f4cf63          	blt	s1,a5,279a <WCHNET_Init+0x9e>
    2760:	66d000ef          	jal	ra,35cc <wch_ethernetif_init>
    2764:	4785                	li	a5,1
    2766:	d05c                	sw	a5,36(s0)
    2768:	6715                	lui	a4,0x5
    276a:	200067b7          	lui	a5,0x20006
    276e:	6c078793          	addi	a5,a5,1728 # 200066c0 <KeepLiveCfg>
    2772:	e2070713          	addi	a4,a4,-480 # 4e20 <tcp_bind+0xd0>
    2776:	c398                	sw	a4,0(a5)
    2778:	6711                	lui	a4,0x4
    277a:	a9870713          	addi	a4,a4,-1384 # 3a98 <ip_output_if+0x124>
    277e:	c3d8                	sw	a4,4(a5)
    2780:	4725                	li	a4,9
    2782:	c798                	sw	a4,8(a5)
    2784:	4501                	li	a0,0
    2786:	0141                	addi	sp,sp,16
    2788:	a83fd06f          	j	20a <__riscv_restore_4>
    278c:	4611                	li	a2,4
    278e:	85a6                	mv	a1,s1
    2790:	00840513          	addi	a0,s0,8
    2794:	32d050ef          	jal	ra,82c0 <memcpy>
    2798:	bf7d                	j	2756 <WCHNET_Init+0x5a>
    279a:	0ff4f593          	andi	a1,s1,255
    279e:	4501                	li	a0,0
    27a0:	f11ff0ef          	jal	ra,26b0 <WCHSocketInit>
    27a4:	0485                	addi	s1,s1,1
    27a6:	bf4d                	j	2758 <WCHNET_Init+0x5c>

000027a8 <WCHNET_ConfigLIB>:
WCHNET_ConfigLIB():
    27a8:	5518                	lw	a4,40(a0)
    27aa:	123457b7          	lui	a5,0x12345
    27ae:	67878793          	addi	a5,a5,1656 # 12345678 <_data_lma+0x1233b814>
    27b2:	12f71a63          	bne	a4,a5,28e6 <WCHNET_ConfigLIB+0x13e>
    27b6:	a21fd2ef          	jal	t0,1d6 <__riscv_save_4>
    27ba:	511c                	lw	a5,32(a0)
    27bc:	842a                	mv	s0,a0
    27be:	4525                	li	a0,9
    27c0:	10078b63          	beqz	a5,28d6 <WCHNET_ConfigLIB+0x12e>
    27c4:	20006937          	lui	s2,0x20006
    27c8:	04400613          	li	a2,68
    27cc:	4581                	li	a1,0
    27ce:	6cc90513          	addi	a0,s2,1740 # 200066cc <NetInf>
    27d2:	a4ffd0ef          	jal	ra,220 <memset>
    27d6:	200064b7          	lui	s1,0x20006
    27da:	02c00613          	li	a2,44
    27de:	4581                	li	a1,0
    27e0:	71048513          	addi	a0,s1,1808 # 20006710 <WCHCfg>
    27e4:	a3dfd0ef          	jal	ra,220 <memset>
    27e8:	02c00613          	li	a2,44
    27ec:	85a2                	mv	a1,s0
    27ee:	71048513          	addi	a0,s1,1808
    27f2:	2cf050ef          	jal	ra,82c0 <memcpy>
    27f6:	71048993          	addi	s3,s1,1808
    27fa:	0149a703          	lw	a4,20(s3)
    27fe:	864a                	mv	a2,s2
    2800:	71048793          	addi	a5,s1,1808
    2804:	eb25                	bnez	a4,2874 <WCHNET_ConfigLIB+0xcc>
    2806:	66a9                	lui	a3,0xa
    2808:	c586d703          	lhu	a4,-936(a3) # 9c58 <MemNum>
    280c:	c5868693          	addi	a3,a3,-936
    2810:	22ae                	lhu	a1,2(a3)
    2812:	972e                	add	a4,a4,a1
    2814:	22ce                	lhu	a1,4(a3)
    2816:	22f6                	lhu	a3,6(a3)
    2818:	972e                	add	a4,a4,a1
    281a:	9736                	add	a4,a4,a3
    281c:	01271693          	slli	a3,a4,0x12
    2820:	0a06dd63          	bgez	a3,28da <WCHNET_ConfigLIB+0x132>
    2824:	cbd8                	sw	a4,20(a5)
    2826:	4bd8                	lw	a4,20(a5)
    2828:	00e75693          	srli	a3,a4,0xe
    282c:	8afd                	andi	a3,a3,31
    282e:	ea89                	bnez	a3,2840 <WCHNET_ConfigLIB+0x98>
    2830:	fff846b7          	lui	a3,0xfff84
    2834:	16fd                	addi	a3,a3,-1
    2836:	8f75                	and	a4,a4,a3
    2838:	000506b7          	lui	a3,0x50
    283c:	8f55                	or	a4,a4,a3
    283e:	cbd8                	sw	a4,20(a5)
    2840:	4bd8                	lw	a4,20(a5)
    2842:	01375693          	srli	a3,a4,0x13
    2846:	8afd                	andi	a3,a3,31
    2848:	ea89                	bnez	a3,285a <WCHNET_ConfigLIB+0xb2>
    284a:	fff846b7          	lui	a3,0xfff84
    284e:	16fd                	addi	a3,a3,-1
    2850:	8f75                	and	a4,a4,a3
    2852:	005006b7          	lui	a3,0x500
    2856:	8f55                	or	a4,a4,a3
    2858:	cbd8                	sw	a4,20(a5)
    285a:	4bd8                	lw	a4,20(a5)
    285c:	00671693          	slli	a3,a4,0x6
    2860:	0006ca63          	bltz	a3,2874 <WCHNET_ConfigLIB+0xcc>
    2864:	fe0006b7          	lui	a3,0xfe000
    2868:	16fd                	addi	a3,a3,-1
    286a:	8f75                	and	a4,a4,a3
    286c:	140006b7          	lui	a3,0x14000
    2870:	8f55                	or	a4,a4,a3
    2872:	cbd8                	sw	a4,20(a5)
    2874:	4bd8                	lw	a4,20(a5)
    2876:	01b75693          	srli	a3,a4,0x1b
    287a:	e689                	bnez	a3,2884 <WCHNET_ConfigLIB+0xdc>
    287c:	400006b7          	lui	a3,0x40000
    2880:	8f55                	or	a4,a4,a3
    2882:	cbd8                	sw	a4,20(a5)
    2884:	46a9                	li	a3,10
    2886:	8ad188a3          	sb	a3,-1871(gp) # 200002d1 <ARP_Retry_Period>
    288a:	468d                	li	a3,3
    288c:	8ad18823          	sb	a3,-1872(gp) # 200002d0 <ARP_Retry_Cnt>
    2890:	12c00693          	li	a3,300
    2894:	8ad19923          	sh	a3,-1870(gp) # 200002d2 <Arp_Entry_timeout>
    2898:	53d8                	lw	a4,36(a5)
    289a:	e711                	bnez	a4,28a6 <WCHNET_ConfigLIB+0xfe>
    289c:	00002737          	lui	a4,0x2
    28a0:	35a70713          	addi	a4,a4,858 # 235a <WCHNET_Rx>
    28a4:	d3d8                	sw	a4,36(a5)
    28a6:	4bd4                	lw	a3,20(a5)
    28a8:	4501                	li	a0,0
    28aa:	00e6d713          	srli	a4,a3,0xe
    28ae:	8b7d                	andi	a4,a4,31
    28b0:	8ad18a23          	sb	a3,-1868(gp) # 200002d4 <SockNumber>
    28b4:	6cc60793          	addi	a5,a2,1740
    28b8:	cf98                	sw	a4,24(a5)
    28ba:	0136d713          	srli	a4,a3,0x13
    28be:	8b7d                	andi	a4,a4,31
    28c0:	03200613          	li	a2,50
    28c4:	02c70733          	mul	a4,a4,a2
    28c8:	cfd8                	sw	a4,28(a5)
    28ca:	00669713          	slli	a4,a3,0x6
    28ce:	00075463          	bgez	a4,28d6 <WCHNET_ConfigLIB+0x12e>
    28d2:	4709                	li	a4,2
    28d4:	c3b8                	sw	a4,64(a5)
    28d6:	935fd06f          	j	20a <__riscv_restore_4>
    28da:	76f9                	lui	a3,0xffffe
    28dc:	16fd                	addi	a3,a3,-1
    28de:	8f75                	and	a4,a4,a3
    28e0:	6689                	lui	a3,0x2
    28e2:	8f55                	or	a4,a4,a3
    28e4:	b781                	j	2824 <WCHNET_ConfigLIB+0x7c>
    28e6:	0ff00513          	li	a0,255
    28ea:	8082                	ret

000028ec <WCHNET_GetVer>:
WCHNET_GetVer():
    28ec:	456d                	li	a0,27
    28ee:	8082                	ret

000028f0 <WCHFindCorrectTCBPcb>:
WCHFindCorrectTCBPcb():
    28f0:	8b41c603          	lbu	a2,-1868(gp) # 200002d4 <SockNumber>
    28f4:	200067b7          	lui	a5,0x20006
    28f8:	60c78693          	addi	a3,a5,1548 # 2000660c <SocketInf>
    28fc:	4701                	li	a4,0
    28fe:	60c78793          	addi	a5,a5,1548
    2902:	00e61763          	bne	a2,a4,2910 <WCHFindCorrectTCBPcb+0x20>
    2906:	4781                	li	a5,0
    2908:	02f71363          	bne	a4,a5,292e <WCHFindCorrectTCBPcb+0x3e>
    290c:	4501                	li	a0,0
    290e:	8082                	ret
    2910:	0307a803          	lw	a6,48(a5)
    2914:	00a81763          	bne	a6,a0,2922 <WCHFindCorrectTCBPcb+0x32>
    2918:	c509                	beqz	a0,2922 <WCHFindCorrectTCBPcb+0x32>
    291a:	4505                	li	a0,1
    291c:	d9ed                	beqz	a1,290e <WCHFindCorrectTCBPcb+0x1e>
    291e:	a198                	sb	a4,0(a1)
    2920:	8082                	ret
    2922:	0705                	addi	a4,a4,1
    2924:	0ff77713          	andi	a4,a4,255
    2928:	03c78793          	addi	a5,a5,60
    292c:	bfd9                	j	2902 <WCHFindCorrectTCBPcb+0x12>
    292e:	5ad0                	lw	a2,52(a3)
    2930:	00a61963          	bne	a2,a0,2942 <WCHFindCorrectTCBPcb+0x52>
    2934:	c519                	beqz	a0,2942 <WCHFindCorrectTCBPcb+0x52>
    2936:	4505                	li	a0,1
    2938:	d9f9                	beqz	a1,290e <WCHFindCorrectTCBPcb+0x1e>
    293a:	f807e793          	ori	a5,a5,-128
    293e:	a19c                	sb	a5,0(a1)
    2940:	8082                	ret
    2942:	0785                	addi	a5,a5,1
    2944:	0ff7f793          	andi	a5,a5,255
    2948:	03c68693          	addi	a3,a3,60 # 203c <WCHNET_ETHIsr+0x34>
    294c:	bf75                	j	2908 <WCHFindCorrectTCBPcb+0x18>

0000294e <WCHNET_SocketCreat>:
WCHNET_SocketCreat():
    294e:	889fd2ef          	jal	t0,1d6 <__riscv_save_4>
    2952:	20006937          	lui	s2,0x20006
    2956:	00050023          	sb	zero,0(a0)
    295a:	8b41c703          	lbu	a4,-1868(gp) # 200002d4 <SockNumber>
    295e:	1141                	addi	sp,sp,-16
    2960:	60c90793          	addi	a5,s2,1548 # 2000660c <SocketInf>
    2964:	4481                	li	s1,0
    2966:	60c90913          	addi	s2,s2,1548
    296a:	00971763          	bne	a4,s1,2978 <WCHNET_SocketCreat+0x2a>
    296e:	02000513          	li	a0,32
    2972:	0141                	addi	sp,sp,16
    2974:	897fd06f          	j	20a <__riscv_restore_4>
    2978:	03c78793          	addi	a5,a5,60
    297c:	fe47a683          	lw	a3,-28(a5)
    2980:	18068063          	beqz	a3,2b00 <WCHNET_SocketCreat+0x1b2>
    2984:	0485                	addi	s1,s1,1
    2986:	0ff4f493          	andi	s1,s1,255
    298a:	b7c5                	j	296a <WCHNET_SocketCreat+0x1c>
    298c:	200067b7          	lui	a5,0x20006
    2990:	6cc7a783          	lw	a5,1740(a5) # 200066cc <NetInf>
    2994:	006c                	addi	a1,sp,12
    2996:	c63e                	sw	a5,12(sp)
    2998:	2ea020ef          	jal	ra,4c82 <raw_bind>
    299c:	4611                	li	a2,4
    299e:	02c40593          	addi	a1,s0,44
    29a2:	0068                	addi	a0,sp,12
    29a4:	11d050ef          	jal	ra,82c0 <memcpy>
    29a8:	006c                	addi	a1,sp,12
    29aa:	854e                	mv	a0,s3
    29ac:	2f4020ef          	jal	ra,4ca0 <raw_connect>
    29b0:	03c00613          	li	a2,60
    29b4:	02c48633          	mul	a2,s1,a2
    29b8:	000025b7          	lui	a1,0x2
    29bc:	4f858593          	addi	a1,a1,1272 # 24f8 <SocketIPRAWReceive>
    29c0:	854e                	mv	a0,s3
    29c2:	964a                	add	a2,a2,s2
    29c4:	2fa020ef          	jal	ra,4cbe <raw_recv>
    29c8:	4795                	li	a5,5
    29ca:	20006537          	lui	a0,0x20006
    29ce:	006c                	addi	a1,sp,12
    29d0:	03342823          	sw	s3,48(s0)
    29d4:	d01c                	sw	a5,32(s0)
    29d6:	73c50513          	addi	a0,a0,1852 # 2000673c <WCHNetIf>
    29da:	72c000ef          	jal	ra,3106 <etharp_request>
    29de:	85a6                	mv	a1,s1
    29e0:	8522                	mv	a0,s0
    29e2:	ccfff0ef          	jal	ra,26b0 <WCHSocketInit>
    29e6:	4501                	li	a0,0
    29e8:	b769                	j	2972 <WCHNET_SocketCreat+0x24>
    29ea:	4709                	li	a4,2
    29ec:	0ae79063          	bne	a5,a4,2a8c <WCHNET_SocketCreat+0x13e>
    29f0:	59d040ef          	jal	ra,778c <udp_new>
    29f4:	89aa                	mv	s3,a0
    29f6:	12050263          	beqz	a0,2b1a <WCHNET_SocketCreat+0x1cc>
    29fa:	02c40a93          	addi	s5,s0,44
    29fe:	4611                	li	a2,4
    2a00:	85d6                	mv	a1,s5
    2a02:	0068                	addi	a0,sp,12
    2a04:	0bd050ef          	jal	ra,82c0 <memcpy>
    2a08:	4a32                	lw	s4,12(sp)
    2a0a:	f0000537          	lui	a0,0xf0000
    2a0e:	475000ef          	jal	ra,3682 <ntohl>
    2a12:	00aa7a33          	and	s4,s4,a0
    2a16:	e0000537          	lui	a0,0xe0000
    2a1a:	469000ef          	jal	ra,3682 <ntohl>
    2a1e:	04aa0063          	beq	s4,a0,2a5e <WCHNET_SocketCreat+0x110>
    2a22:	200065b7          	lui	a1,0x20006
    2a26:	73c58593          	addi	a1,a1,1852 # 2000673c <WCHNetIf>
    2a2a:	0068                	addi	a0,sp,12
    2a2c:	0d8010ef          	jal	ra,3b04 <ip_addr_isbroadcast>
    2a30:	e51d                	bnez	a0,2a5e <WCHNET_SocketCreat+0x110>
    2a32:	200067b7          	lui	a5,0x20006
    2a36:	6cc7a783          	lw	a5,1740(a5) # 200066cc <NetInf>
    2a3a:	3412                	lhu	a2,40(s0)
    2a3c:	006c                	addi	a1,sp,12
    2a3e:	854e                	mv	a0,s3
    2a40:	c63e                	sw	a5,12(sp)
    2a42:	329040ef          	jal	ra,756a <udp_bind>
    2a46:	e11d                	bnez	a0,2a6c <WCHNET_SocketCreat+0x11e>
    2a48:	85d6                	mv	a1,s5
    2a4a:	4611                	li	a2,4
    2a4c:	0068                	addi	a0,sp,12
    2a4e:	073050ef          	jal	ra,82c0 <memcpy>
    2a52:	3052                	lhu	a2,36(s0)
    2a54:	006c                	addi	a1,sp,12
    2a56:	854e                	mv	a0,s3
    2a58:	4b1040ef          	jal	ra,7708 <udp_connect>
    2a5c:	a039                	j	2a6a <WCHNET_SocketCreat+0x11c>
    2a5e:	3412                	lhu	a2,40(s0)
    2a60:	85818593          	addi	a1,gp,-1960 # 20000278 <ip_addr_any>
    2a64:	854e                	mv	a0,s3
    2a66:	305040ef          	jal	ra,756a <udp_bind>
    2a6a:	c501                	beqz	a0,2a72 <WCHNET_SocketCreat+0x124>
    2a6c:	c2bff0ef          	jal	ra,2696 <ErrorEncode>
    2a70:	b709                	j	2972 <WCHNET_SocketCreat+0x24>
    2a72:	03c00613          	li	a2,60
    2a76:	02c48633          	mul	a2,s1,a2
    2a7a:	000025b7          	lui	a1,0x2
    2a7e:	5bc58593          	addi	a1,a1,1468 # 25bc <SocketUdpReceive>
    2a82:	854e                	mv	a0,s3
    2a84:	964a                	add	a2,a2,s2
    2a86:	501040ef          	jal	ra,7786 <udp_recv>
    2a8a:	bf3d                	j	29c8 <WCHNET_SocketCreat+0x7a>
    2a8c:	470d                	li	a4,3
    2a8e:	02100513          	li	a0,33
    2a92:	eee790e3          	bne	a5,a4,2972 <WCHNET_SocketCreat+0x24>
    2a96:	04f020ef          	jal	ra,52e4 <tcp_new>
    2a9a:	445c                	lw	a5,12(s0)
    2a9c:	3412                	lhu	a2,40(s0)
    2a9e:	006c                	addi	a1,sp,12
    2aa0:	b95e                	sh	a5,52(a0)
    2aa2:	200067b7          	lui	a5,0x20006
    2aa6:	6cc7a783          	lw	a5,1740(a5) # 200066cc <NetInf>
    2aaa:	89aa                	mv	s3,a0
    2aac:	c63e                	sw	a5,12(sp)
    2aae:	2a2020ef          	jal	ra,4d50 <tcp_bind>
    2ab2:	8a2a                	mv	s4,a0
    2ab4:	c511                	beqz	a0,2ac0 <WCHNET_SocketCreat+0x172>
    2ab6:	854e                	mv	a0,s3
    2ab8:	56c020ef          	jal	ra,5024 <tcp_close>
    2abc:	8552                	mv	a0,s4
    2abe:	b77d                	j	2a6c <WCHNET_SocketCreat+0x11e>
    2ac0:	03c00593          	li	a1,60
    2ac4:	02b485b3          	mul	a1,s1,a1
    2ac8:	854e                	mv	a0,s3
    2aca:	95ca                	add	a1,a1,s2
    2acc:	48e020ef          	jal	ra,4f5a <tcp_arg>
    2ad0:	000025b7          	lui	a1,0x2
    2ad4:	854e                	mv	a0,s3
    2ad6:	4f658593          	addi	a1,a1,1270 # 24f6 <NET_TCPError>
    2ada:	484020ef          	jal	ra,4f5e <tcp_err>
    2ade:	4795                	li	a5,5
    2ae0:	85a6                	mv	a1,s1
    2ae2:	8522                	mv	a0,s0
    2ae4:	03342823          	sw	s3,48(s0)
    2ae8:	03342a23          	sw	s3,52(s0)
    2aec:	d01c                	sw	a5,32(s0)
    2aee:	bc3ff0ef          	jal	ra,26b0 <WCHSocketInit>
    2af2:	20006537          	lui	a0,0x20006
    2af6:	006c                	addi	a1,sp,12
    2af8:	73c50513          	addi	a0,a0,1852 # 2000673c <WCHNetIf>
    2afc:	2529                	jal	3106 <etharp_request>
    2afe:	b5e5                	j	29e6 <WCHNET_SocketCreat+0x98>
    2b00:	a104                	sb	s1,0(a0)
    2b02:	4ddc                	lw	a5,28(a1)
    2b04:	c1c4                	sw	s1,4(a1)
    2b06:	842e                	mv	s0,a1
    2b08:	ee0791e3          	bnez	a5,29ea <WCHNET_SocketCreat+0x9c>
    2b0c:	02844503          	lbu	a0,40(s0)
    2b10:	1b4020ef          	jal	ra,4cc4 <raw_new>
    2b14:	89aa                	mv	s3,a0
    2b16:	e6051be3          	bnez	a0,298c <WCHNET_SocketCreat+0x3e>
    2b1a:	4545                	li	a0,17
    2b1c:	bd99                	j	2972 <WCHNET_SocketCreat+0x24>

00002b1e <WCHNET_SocketUdpSendTo>:
WCHNET_SocketUdpSendTo():
    2b1e:	ea2fd2ef          	jal	t0,1c0 <__riscv_save_12>
    2b22:	4200                	lw	s0,0(a2)
    2b24:	00062023          	sw	zero,0(a2)
    2b28:	c855                	beqz	s0,2bdc <WCHNET_SocketUdpSendTo+0xbe>
    2b2a:	87aa                	mv	a5,a0
    2b2c:	4569                	li	a0,26
    2b2e:	c9d9                	beqz	a1,2bc4 <WCHNET_SocketUdpSendTo+0xa6>
    2b30:	03c00513          	li	a0,60
    2b34:	02a787b3          	mul	a5,a5,a0
    2b38:	20006537          	lui	a0,0x20006
    2b3c:	60c50513          	addi	a0,a0,1548 # 2000660c <SocketInf>
    2b40:	20006a37          	lui	s4,0x20006
    2b44:	4481                	li	s1,0
    2b46:	97aa                	add	a5,a5,a0
    2b48:	0307ab03          	lw	s6,48(a5)
    2b4c:	6cca0793          	addi	a5,s4,1740 # 200066cc <NetInf>
    2b50:	43bc                	lw	a5,64(a5)
    2b52:	6cca0a13          	addi	s4,s4,1740
    2b56:	8b89                	andi	a5,a5,2
    2b58:	e399                	bnez	a5,2b5e <WCHNET_SocketUdpSendTo+0x40>
    2b5a:	0c700493          	li	s1,199
    2b5e:	5c000793          	li	a5,1472
    2b62:	0087f463          	bgeu	a5,s0,2b6a <WCHNET_SocketUdpSendTo+0x4c>
    2b66:	5c000413          	li	s0,1472
    2b6a:	01041d93          	slli	s11,s0,0x10
    2b6e:	8cba                	mv	s9,a4
    2b70:	8c36                	mv	s8,a3
    2b72:	89b2                	mv	s3,a2
    2b74:	8bae                	mv	s7,a1
    2b76:	010ddd93          	srli	s11,s11,0x10
    2b7a:	0c800d13          	li	s10,200
    2b7e:	4601                	li	a2,0
    2b80:	85ee                	mv	a1,s11
    2b82:	4501                	li	a0,0
    2b84:	617010ef          	jal	ra,499a <pbuf_alloc>
    2b88:	892a                	mv	s2,a0
    2b8a:	c939                	beqz	a0,2be0 <WCHNET_SocketUdpSendTo+0xc2>
    2b8c:	4148                	lw	a0,4(a0)
    2b8e:	8622                	mv	a2,s0
    2b90:	85de                	mv	a1,s7
    2b92:	020a2e23          	sw	zero,60(s4)
    2b96:	72a050ef          	jal	ra,82c0 <memcpy>
    2b9a:	86e6                	mv	a3,s9
    2b9c:	8662                	mv	a2,s8
    2b9e:	85ca                	mv	a1,s2
    2ba0:	855a                	mv	a0,s6
    2ba2:	339040ef          	jal	ra,76da <udp_sendto>
    2ba6:	8aaa                	mv	s5,a0
    2ba8:	854a                	mv	a0,s2
    2baa:	5a3010ef          	jal	ra,494c <pbuf_free>
    2bae:	03ca2783          	lw	a5,60(s4)
    2bb2:	cb99                	beqz	a5,2bc8 <WCHNET_SocketUdpSendTo+0xaa>
    2bb4:	0485                	addi	s1,s1,1
    2bb6:	04c2                	slli	s1,s1,0x10
    2bb8:	80c1                	srli	s1,s1,0x10
    2bba:	f3eff0ef          	jal	ra,22f8 <WCHNET_NetInput>
    2bbe:	fda490e3          	bne	s1,s10,2b7e <WCHNET_SocketUdpSendTo+0x60>
    2bc2:	454d                	li	a0,19
    2bc4:	e38fd06f          	j	1fc <__riscv_restore_12>
    2bc8:	000ad663          	bgez	s5,2bd4 <WCHNET_SocketUdpSendTo+0xb6>
    2bcc:	8556                	mv	a0,s5
    2bce:	ac9ff0ef          	jal	ra,2696 <ErrorEncode>
    2bd2:	bfcd                	j	2bc4 <WCHNET_SocketUdpSendTo+0xa6>
    2bd4:	0089a023          	sw	s0,0(s3)
    2bd8:	4501                	li	a0,0
    2bda:	b7ed                	j	2bc4 <WCHNET_SocketUdpSendTo+0xa6>
    2bdc:	4569                	li	a0,26
    2bde:	b7dd                	j	2bc4 <WCHNET_SocketUdpSendTo+0xa6>
    2be0:	4545                	li	a0,17
    2be2:	b7cd                	j	2bc4 <WCHNET_SocketUdpSendTo+0xa6>

00002be4 <WCHScokedIntHandle>:
WCHScokedIntHandle():
    2be4:	e0cfd2ef          	jal	t0,1f0 <__riscv_save_0>
    2be8:	47a1                	li	a5,8
    2bea:	84aa                	mv	s1,a0
    2bec:	2100                	lbu	s0,0(a0)
    2bee:	02f58a63          	beq	a1,a5,2c22 <WCHScokedIntHandle+0x3e>
    2bf2:	00b7ec63          	bltu	a5,a1,2c0a <WCHScokedIntHandle+0x26>
    2bf6:	4785                	li	a5,1
    2bf8:	02f58163          	beq	a1,a5,2c1a <WCHScokedIntHandle+0x36>
    2bfc:	4789                	li	a5,2
    2bfe:	00246413          	ori	s0,s0,2
    2c02:	00f58e63          	beq	a1,a5,2c1e <WCHScokedIntHandle+0x3a>
    2c06:	e0efd06f          	j	214 <__riscv_restore_0>
    2c0a:	47c1                	li	a5,16
    2c0c:	00f58e63          	beq	a1,a5,2c28 <WCHScokedIntHandle+0x44>
    2c10:	04000793          	li	a5,64
    2c14:	04046413          	ori	s0,s0,64
    2c18:	b7ed                	j	2c02 <WCHScokedIntHandle+0x1e>
    2c1a:	00146413          	ori	s0,s0,1
    2c1e:	c080                	sw	s0,0(s1)
    2c20:	b7dd                	j	2c06 <WCHScokedIntHandle+0x22>
    2c22:	00846413          	ori	s0,s0,8
    2c26:	bfe5                	j	2c1e <WCHScokedIntHandle+0x3a>
    2c28:	5948                	lw	a0,52(a0)
    2c2a:	01046413          	ori	s0,s0,16
    2c2e:	d965                	beqz	a0,2c1e <WCHScokedIntHandle+0x3a>
    2c30:	3f4020ef          	jal	ra,5024 <tcp_close>
    2c34:	b7ed                	j	2c1e <WCHScokedIntHandle+0x3a>

00002c36 <LwipRemoveTcpPcb>:
LwipRemoveTcpPcb():
    2c36:	da0fd2ef          	jal	t0,1d6 <__riscv_save_4>
    2c3a:	1141                	addi	sp,sp,-16
    2c3c:	00f10593          	addi	a1,sp,15
    2c40:	89aa                	mv	s3,a0
    2c42:	000107a3          	sb	zero,15(sp)
    2c46:	cabff0ef          	jal	ra,28f0 <WCHFindCorrectTCBPcb>
    2c4a:	c515                	beqz	a0,2c76 <LwipRemoveTcpPcb+0x40>
    2c4c:	8784                	lbu	s1,15(sp)
    2c4e:	01849793          	slli	a5,s1,0x18
    2c52:	87e1                	srai	a5,a5,0x18
    2c54:	0207d463          	bgez	a5,2c7c <LwipRemoveTcpPcb+0x46>
    2c58:	03c00413          	li	s0,60
    2c5c:	07f4f493          	andi	s1,s1,127
    2c60:	028484b3          	mul	s1,s1,s0
    2c64:	20006437          	lui	s0,0x20006
    2c68:	60c40413          	addi	s0,s0,1548 # 2000660c <SocketInf>
    2c6c:	9426                	add	s0,s0,s1
    2c6e:	02042a23          	sw	zero,52(s0)
    2c72:	02042023          	sw	zero,32(s0)
    2c76:	0141                	addi	sp,sp,16
    2c78:	d92fd06f          	j	20a <__riscv_restore_4>
    2c7c:	8b41c783          	lbu	a5,-1868(gp) # 200002d4 <SockNumber>
    2c80:	fef4fbe3          	bgeu	s1,a5,2c76 <LwipRemoveTcpPcb+0x40>
    2c84:	03c00713          	li	a4,60
    2c88:	02e48733          	mul	a4,s1,a4
    2c8c:	200067b7          	lui	a5,0x20006
    2c90:	60c78413          	addi	s0,a5,1548 # 2000660c <SocketInf>
    2c94:	60c78913          	addi	s2,a5,1548
    2c98:	943a                	add	s0,s0,a4
    2c9a:	4c54                	lw	a3,28(s0)
    2c9c:	470d                	li	a4,3
    2c9e:	fce69ce3          	bne	a3,a4,2c76 <LwipRemoveTcpPcb+0x40>
    2ca2:	0109a783          	lw	a5,16(s3)
    2ca6:	4705                	li	a4,1
    2ca8:	17dd                	addi	a5,a5,-9
    2caa:	0ff7f793          	andi	a5,a5,255
    2cae:	00f76e63          	bltu	a4,a5,2cca <LwipRemoveTcpPcb+0x94>
    2cb2:	45c1                	li	a1,16
    2cb4:	8522                	mv	a0,s0
    2cb6:	f2fff0ef          	jal	ra,2be4 <WCHScokedIntHandle>
    2cba:	03c00793          	li	a5,60
    2cbe:	02f484b3          	mul	s1,s1,a5
    2cc2:	94ca                	add	s1,s1,s2
    2cc4:	0204a823          	sw	zero,48(s1)
    2cc8:	b76d                	j	2c72 <LwipRemoveTcpPcb+0x3c>
    2cca:	201c                	lbu	a5,0(s0)
    2ccc:	0407e793          	ori	a5,a5,64
    2cd0:	c01c                	sw	a5,0(s0)
    2cd2:	b7e5                	j	2cba <LwipRemoveTcpPcb+0x84>

00002cd4 <WCHNET_GetPHYStatus>:
WCHNET_GetPHYStatus():
    2cd4:	200067b7          	lui	a5,0x20006
    2cd8:	6ec7c503          	lbu	a0,1772(a5) # 200066ec <NetInf+0x20>
    2cdc:	8082                	ret

00002cde <QueryPingEnable>:
QueryPingEnable():
    2cde:	200067b7          	lui	a5,0x20006
    2ce2:	7247a503          	lw	a0,1828(a5) # 20006724 <WCHCfg+0x14>
    2ce6:	8135                	srli	a0,a0,0xd
    2ce8:	8905                	andi	a0,a0,1
    2cea:	8082                	ret

00002cec <LwipUnreachPort>:
LwipUnreachPort():
    2cec:	200067b7          	lui	a5,0x20006
    2cf0:	6cc78793          	addi	a5,a5,1740 # 200066cc <NetInf>
    2cf4:	4705                	li	a4,1
    2cf6:	1141                	addi	sp,sp,-16
    2cf8:	cbc8                	sw	a0,20(a5)
    2cfa:	db94                	sw	a3,48(a5)
    2cfc:	dbd0                	sw	a2,52(a5)
    2cfe:	df8c                	sw	a1,56(a5)
    2d00:	d7d8                	sw	a4,44(a5)
    2d02:	0141                	addi	sp,sp,16
    2d04:	8082                	ret

00002d06 <LwipArpCheck>:
LwipArpCheck():
    2d06:	200067b7          	lui	a5,0x20006
    2d0a:	4705                	li	a4,1
    2d0c:	70e7a423          	sw	a4,1800(a5) # 20006708 <NetInf+0x3c>
    2d10:	8082                	ret

00002d12 <find_entry>:
find_entry():
    2d12:	cdefd2ef          	jal	t0,1f0 <__riscv_save_0>
    2d16:	200067b7          	lui	a5,0x20006
    2d1a:	71c7a603          	lw	a2,1820(a5) # 2000671c <WCHCfg+0xc>
    2d1e:	8301a683          	lw	a3,-2000(gp) # 20000250 <arp_table>
    2d22:	01861713          	slli	a4,a2,0x18
    2d26:	8761                	srai	a4,a4,0x18
    2d28:	14050c63          	beqz	a0,2e80 <find_entry+0x16e>
    2d2c:	8bd1c783          	lbu	a5,-1859(gp) # 200002dd <etharp_cached_entry>
    2d30:	4861                	li	a6,24
    2d32:	4889                	li	a7,2
    2d34:	03078833          	mul	a6,a5,a6
    2d38:	9836                	add	a6,a6,a3
    2d3a:	00c82303          	lw	t1,12(a6)
    2d3e:	15131163          	bne	t1,a7,2e80 <find_entry+0x16e>
    2d42:	00154303          	lbu	t1,1(a0)
    2d46:	00054883          	lbu	a7,0(a0)
    2d4a:	00082803          	lw	a6,0(a6)
    2d4e:	0322                	slli	t1,t1,0x8
    2d50:	01136333          	or	t1,t1,a7
    2d54:	00254883          	lbu	a7,2(a0)
    2d58:	08c2                	slli	a7,a7,0x10
    2d5a:	0068e333          	or	t1,a7,t1
    2d5e:	00354883          	lbu	a7,3(a0)
    2d62:	08e2                	slli	a7,a7,0x18
    2d64:	0068e8b3          	or	a7,a7,t1
    2d68:	11089c63          	bne	a7,a6,2e80 <find_entry+0x16e>
    2d6c:	07e2                	slli	a5,a5,0x18
    2d6e:	87e1                	srai	a5,a5,0x18
    2d70:	853e                	mv	a0,a5
    2d72:	ca2fd06f          	j	214 <__riscv_restore_0>
    2d76:	025788b3          	mul	a7,a5,t0
    2d7a:	98b6                	add	a7,a7,a3
    2d7c:	00c8ae03          	lw	t3,12(a7) # 800c <print+0x158>
    2d80:	07061a63          	bne	a2,a6,2df4 <find_entry+0xe2>
    2d84:	060e1863          	bnez	t3,2df4 <find_entry+0xe2>
    2d88:	01879813          	slli	a6,a5,0x18
    2d8c:	41885813          	srai	a6,a6,0x18
    2d90:	0785                	addi	a5,a5,1
    2d92:	07c2                	slli	a5,a5,0x10
    2d94:	83c1                	srli	a5,a5,0x10
    2d96:	fec7e0e3          	bltu	a5,a2,2d76 <find_entry+0x64>
    2d9a:	01061763          	bne	a2,a6,2da8 <find_entry+0x96>
    2d9e:	0015f893          	andi	a7,a1,1
    2da2:	57fd                	li	a5,-1
    2da4:	fc0886e3          	beqz	a7,2d70 <find_entry+0x5e>
    2da8:	8989                	andi	a1,a1,2
    2daa:	57fd                	li	a5,-1
    2dac:	f1f1                	bnez	a1,2d70 <find_entry+0x5e>
    2dae:	01081793          	slli	a5,a6,0x10
    2db2:	00c86b63          	bltu	a6,a2,2dc8 <find_entry+0xb6>
    2db6:	01031793          	slli	a5,t1,0x10
    2dba:	00c36763          	bltu	t1,a2,2dc8 <find_entry+0xb6>
    2dbe:	57fd                	li	a5,-1
    2dc0:	fac778e3          	bgeu	a4,a2,2d70 <find_entry+0x5e>
    2dc4:	01071793          	slli	a5,a4,0x10
    2dc8:	83c1                	srli	a5,a5,0x10
    2dca:	4761                	li	a4,24
    2dcc:	02e78733          	mul	a4,a5,a4
    2dd0:	96ba                	add	a3,a3,a4
    2dd2:	0006a623          	sw	zero,12(a3)
    2dd6:	cd01                	beqz	a0,2dee <find_entry+0xdc>
    2dd8:	3110                	lbu	a2,1(a0)
    2dda:	2118                	lbu	a4,0(a0)
    2ddc:	0622                	slli	a2,a2,0x8
    2dde:	8e59                	or	a2,a2,a4
    2de0:	2138                	lbu	a4,2(a0)
    2de2:	0742                	slli	a4,a4,0x10
    2de4:	8e59                	or	a2,a2,a4
    2de6:	3138                	lbu	a4,3(a0)
    2de8:	0762                	slli	a4,a4,0x18
    2dea:	8f51                	or	a4,a4,a2
    2dec:	c298                	sw	a4,0(a3)
    2dee:	00069823          	sh	zero,16(a3)
    2df2:	a80d                	j	2e24 <find_entry+0x112>
    2df4:	047e1463          	bne	t3,t2,2e3c <find_entry+0x12a>
    2df8:	c90d                	beqz	a0,2e2a <find_entry+0x118>
    2dfa:	00154e83          	lbu	t4,1(a0)
    2dfe:	00054e03          	lbu	t3,0(a0)
    2e02:	0ea2                	slli	t4,t4,0x8
    2e04:	01ceeeb3          	or	t4,t4,t3
    2e08:	00254e03          	lbu	t3,2(a0)
    2e0c:	0e42                	slli	t3,t3,0x10
    2e0e:	01de6eb3          	or	t4,t3,t4
    2e12:	00354e03          	lbu	t3,3(a0)
    2e16:	0e62                	slli	t3,t3,0x18
    2e18:	01de6e33          	or	t3,t3,t4
    2e1c:	0008ae83          	lw	t4,0(a7)
    2e20:	01de1563          	bne	t3,t4,2e2a <find_entry+0x118>
    2e24:	8af18ea3          	sb	a5,-1859(gp) # 200002dd <etharp_cached_entry>
    2e28:	b791                	j	2d6c <find_entry+0x5a>
    2e2a:	0108d883          	lhu	a7,16(a7)
    2e2e:	f7e8e1e3          	bltu	a7,t5,2d90 <find_entry+0x7e>
    2e32:	01879713          	slli	a4,a5,0x18
    2e36:	8761                	srai	a4,a4,0x18
    2e38:	8f46                	mv	t5,a7
    2e3a:	bf99                	j	2d90 <find_entry+0x7e>
    2e3c:	f48e1ae3          	bne	t3,s0,2d90 <find_entry+0x7e>
    2e40:	c515                	beqz	a0,2e6c <find_entry+0x15a>
    2e42:	00154e83          	lbu	t4,1(a0)
    2e46:	00054e03          	lbu	t3,0(a0)
    2e4a:	0ea2                	slli	t4,t4,0x8
    2e4c:	01ceeeb3          	or	t4,t4,t3
    2e50:	00254e03          	lbu	t3,2(a0)
    2e54:	0e42                	slli	t3,t3,0x10
    2e56:	01de6eb3          	or	t4,t3,t4
    2e5a:	00354e03          	lbu	t3,3(a0)
    2e5e:	0e62                	slli	t3,t3,0x18
    2e60:	01de6e33          	or	t3,t3,t4
    2e64:	0008ae83          	lw	t4,0(a7)
    2e68:	fbde0ee3          	beq	t3,t4,2e24 <find_entry+0x112>
    2e6c:	0108d883          	lhu	a7,16(a7)
    2e70:	f3f8e0e3          	bltu	a7,t6,2d90 <find_entry+0x7e>
    2e74:	01879313          	slli	t1,a5,0x18
    2e78:	41835313          	srai	t1,t1,0x18
    2e7c:	8fc6                	mv	t6,a7
    2e7e:	bf09                	j	2d90 <find_entry+0x7e>
    2e80:	883a                	mv	a6,a4
    2e82:	833a                	mv	t1,a4
    2e84:	4f81                	li	t6,0
    2e86:	4f01                	li	t5,0
    2e88:	4781                	li	a5,0
    2e8a:	42e1                	li	t0,24
    2e8c:	4385                	li	t2,1
    2e8e:	4409                	li	s0,2
    2e90:	b719                	j	2d96 <find_entry+0x84>

00002e92 <update_arp_entry>:
update_arp_entry():
    2e92:	b44fd2ef          	jal	t0,1d6 <__riscv_save_4>
    2e96:	3198                	lbu	a4,1(a1)
    2e98:	219c                	lbu	a5,0(a1)
    2e9a:	8a36                	mv	s4,a3
    2e9c:	0722                	slli	a4,a4,0x8
    2e9e:	8f5d                	or	a4,a4,a5
    2ea0:	21bc                	lbu	a5,2(a1)
    2ea2:	4154                	lw	a3,4(a0)
    2ea4:	07c2                	slli	a5,a5,0x10
    2ea6:	8f5d                	or	a4,a4,a5
    2ea8:	31bc                	lbu	a5,3(a1)
    2eaa:	07e2                	slli	a5,a5,0x18
    2eac:	8fd9                	or	a5,a5,a4
    2eae:	00f69b63          	bne	a3,a5,2ec4 <update_arp_entry+0x32>
    2eb2:	e689                	bnez	a3,2ebc <update_arp_entry+0x2a>
    2eb4:	57d9                	li	a5,-10
    2eb6:	853e                	mv	a0,a5
    2eb8:	b52fd06f          	j	20a <__riscv_restore_4>
    2ebc:	4505                	li	a0,1
    2ebe:	e0cff0ef          	jal	ra,24ca <IPConflictHandle>
    2ec2:	bfcd                	j	2eb4 <update_arp_entry+0x22>
    2ec4:	dbe5                	beqz	a5,2eb4 <update_arp_entry+0x22>
    2ec6:	842e                	mv	s0,a1
    2ec8:	892a                	mv	s2,a0
    2eca:	85aa                	mv	a1,a0
    2ecc:	8522                	mv	a0,s0
    2ece:	89b2                	mv	s3,a2
    2ed0:	435000ef          	jal	ra,3b04 <ip_addr_isbroadcast>
    2ed4:	f165                	bnez	a0,2eb4 <update_arp_entry+0x22>
    2ed6:	301c                	lbu	a5,1(s0)
    2ed8:	2004                	lbu	s1,0(s0)
    2eda:	f0000537          	lui	a0,0xf0000
    2ede:	07a2                	slli	a5,a5,0x8
    2ee0:	8fc5                	or	a5,a5,s1
    2ee2:	2024                	lbu	s1,2(s0)
    2ee4:	04c2                	slli	s1,s1,0x10
    2ee6:	8fc5                	or	a5,a5,s1
    2ee8:	3024                	lbu	s1,3(s0)
    2eea:	04e2                	slli	s1,s1,0x18
    2eec:	8cdd                	or	s1,s1,a5
    2eee:	794000ef          	jal	ra,3682 <ntohl>
    2ef2:	8ce9                	and	s1,s1,a0
    2ef4:	e0000537          	lui	a0,0xe0000
    2ef8:	78a000ef          	jal	ra,3682 <ntohl>
    2efc:	faa48ce3          	beq	s1,a0,2eb4 <update_arp_entry+0x22>
    2f00:	85d2                	mv	a1,s4
    2f02:	8522                	mv	a0,s0
    2f04:	e0fff0ef          	jal	ra,2d12 <find_entry>
    2f08:	87aa                	mv	a5,a0
    2f0a:	fa0546e3          	bltz	a0,2eb6 <update_arp_entry+0x24>
    2f0e:	47e1                	li	a5,24
    2f10:	02f507b3          	mul	a5,a0,a5
    2f14:	8301a503          	lw	a0,-2000(gp) # 20000250 <arp_table>
    2f18:	953e                	add	a0,a0,a5
    2f1a:	4789                	li	a5,2
    2f1c:	c55c                	sw	a5,12(a0)
    2f1e:	01252a23          	sw	s2,20(a0) # e0000014 <_eusrstack+0xbfff0014>
    2f22:	00598793          	addi	a5,s3,5
    2f26:	00950713          	addi	a4,a0,9
    2f2a:	2394                	lbu	a3,0(a5)
    2f2c:	177d                	addi	a4,a4,-1
    2f2e:	b314                	sb	a3,1(a4)
    2f30:	fff78693          	addi	a3,a5,-1
    2f34:	00f99663          	bne	s3,a5,2f40 <update_arp_entry+0xae>
    2f38:	00051823          	sh	zero,16(a0)
    2f3c:	4781                	li	a5,0
    2f3e:	bfa5                	j	2eb6 <update_arp_entry+0x24>
    2f40:	87b6                	mv	a5,a3
    2f42:	b7e5                	j	2f2a <update_arp_entry+0x98>

00002f44 <etharp_ip_input>:
etharp_ip_input():
    2f44:	cd21                	beqz	a0,2f9c <etharp_ip_input+0x58>
    2f46:	aaafd2ef          	jal	t0,1f0 <__riscv_save_0>
    2f4a:	41c4                	lw	s1,4(a1)
    2f4c:	842a                	mv	s0,a0
    2f4e:	34dc                	lbu	a5,13(s1)
    2f50:	24c8                	lbu	a0,12(s1)
    2f52:	07a2                	slli	a5,a5,0x8
    2f54:	8d5d                	or	a0,a0,a5
    2f56:	6ec000ef          	jal	ra,3642 <htons>
    2f5a:	67a1                	lui	a5,0x8
    2f5c:	10078793          	addi	a5,a5,256 # 8100 <print+0x24c>
    2f60:	01248593          	addi	a1,s1,18
    2f64:	00f50463          	beq	a0,a5,2f6c <etharp_ip_input+0x28>
    2f68:	00e48593          	addi	a1,s1,14
    2f6c:	35d8                	lbu	a4,13(a1)
    2f6e:	25dc                	lbu	a5,12(a1)
    2f70:	0722                	slli	a4,a4,0x8
    2f72:	8f5d                	or	a4,a4,a5
    2f74:	25fc                	lbu	a5,14(a1)
    2f76:	07c2                	slli	a5,a5,0x10
    2f78:	8f5d                	or	a4,a4,a5
    2f7a:	35fc                	lbu	a5,15(a1)
    2f7c:	07e2                	slli	a5,a5,0x18
    2f7e:	8fd9                	or	a5,a5,a4
    2f80:	4058                	lw	a4,4(s0)
    2f82:	8fb9                	xor	a5,a5,a4
    2f84:	4418                	lw	a4,8(s0)
    2f86:	8ff9                	and	a5,a5,a4
    2f88:	eb81                	bnez	a5,2f98 <etharp_ip_input+0x54>
    2f8a:	4681                	li	a3,0
    2f8c:	00648613          	addi	a2,s1,6
    2f90:	05b1                	addi	a1,a1,12
    2f92:	8522                	mv	a0,s0
    2f94:	effff0ef          	jal	ra,2e92 <update_arp_entry>
    2f98:	a7cfd06f          	j	214 <__riscv_restore_0>
    2f9c:	8082                	ret

00002f9e <etharp_arp_input>:
etharp_arp_input():
    2f9e:	16050363          	beqz	a0,3104 <etharp_arp_input+0x166>
    2fa2:	a34fd2ef          	jal	t0,1d6 <__riscv_save_4>
    2fa6:	263a                	lhu	a4,10(a2)
    2fa8:	02900793          	li	a5,41
    2fac:	1141                	addi	sp,sp,-16
    2fae:	89b2                	mv	s3,a2
    2fb0:	8a2e                	mv	s4,a1
    2fb2:	84aa                	mv	s1,a0
    2fb4:	00e7e863          	bltu	a5,a4,2fc4 <etharp_arp_input+0x26>
    2fb8:	854e                	mv	a0,s3
    2fba:	193010ef          	jal	ra,494c <pbuf_free>
    2fbe:	0141                	addi	sp,sp,16
    2fc0:	a4afd06f          	j	20a <__riscv_restore_4>
    2fc4:	00462903          	lw	s2,4(a2)
    2fc8:	00d94783          	lbu	a5,13(s2)
    2fcc:	00c94503          	lbu	a0,12(s2)
    2fd0:	01290413          	addi	s0,s2,18
    2fd4:	07a2                	slli	a5,a5,0x8
    2fd6:	8d5d                	or	a0,a0,a5
    2fd8:	25ad                	jal	3642 <htons>
    2fda:	67a1                	lui	a5,0x8
    2fdc:	10078793          	addi	a5,a5,256 # 8100 <print+0x24c>
    2fe0:	00f50463          	beq	a0,a5,2fe8 <etharp_arp_input+0x4a>
    2fe4:	00e90413          	addi	s0,s2,14
    2fe8:	00144a83          	lbu	s5,1(s0)
    2fec:	201c                	lbu	a5,0(s0)
    2fee:	4505                	li	a0,1
    2ff0:	0aa2                	slli	s5,s5,0x8
    2ff2:	00faeab3          	or	s5,s5,a5
    2ff6:	25b1                	jal	3642 <htons>
    2ff8:	fcaa90e3          	bne	s5,a0,2fb8 <etharp_arp_input+0x1a>
    2ffc:	00544a83          	lbu	s5,5(s0)
    3000:	205c                	lbu	a5,4(s0)
    3002:	60400513          	li	a0,1540
    3006:	0aa2                	slli	s5,s5,0x8
    3008:	00faeab3          	or	s5,s5,a5
    300c:	2d1d                	jal	3642 <htons>
    300e:	faaa95e3          	bne	s5,a0,2fb8 <etharp_arp_input+0x1a>
    3012:	00344a83          	lbu	s5,3(s0)
    3016:	203c                	lbu	a5,2(s0)
    3018:	6505                	lui	a0,0x1
    301a:	0aa2                	slli	s5,s5,0x8
    301c:	80050513          	addi	a0,a0,-2048 # 800 <__stack_size>
    3020:	00faeab3          	or	s5,s5,a5
    3024:	2d39                	jal	3642 <htons>
    3026:	f8aa99e3          	bne	s5,a0,2fb8 <etharp_arp_input+0x1a>
    302a:	00e40a93          	addi	s5,s0,14
    302e:	4611                	li	a2,4
    3030:	85d6                	mv	a1,s5
    3032:	0068                	addi	a0,sp,12
    3034:	28c050ef          	jal	ra,82c0 <memcpy>
    3038:	40d4                	lw	a3,4(s1)
    303a:	00840613          	addi	a2,s0,8
    303e:	c2ad                	beqz	a3,30a0 <etharp_arp_input+0x102>
    3040:	3c18                	lbu	a4,25(s0)
    3042:	2c1c                	lbu	a5,24(s0)
    3044:	0722                	slli	a4,a4,0x8
    3046:	8f5d                	or	a4,a4,a5
    3048:	2c3c                	lbu	a5,26(s0)
    304a:	07c2                	slli	a5,a5,0x10
    304c:	8f5d                	or	a4,a4,a5
    304e:	3c3c                	lbu	a5,27(s0)
    3050:	07e2                	slli	a5,a5,0x18
    3052:	8fd9                	or	a5,a5,a4
    3054:	04f69663          	bne	a3,a5,30a0 <etharp_arp_input+0x102>
    3058:	4685                	li	a3,1
    305a:	006c                	addi	a1,sp,12
    305c:	8526                	mv	a0,s1
    305e:	e35ff0ef          	jal	ra,2e92 <update_arp_entry>
    3062:	4b05                	li	s6,1
    3064:	307c                	lbu	a5,7(s0)
    3066:	2068                	lbu	a0,6(s0)
    3068:	07a2                	slli	a5,a5,0x8
    306a:	8d5d                	or	a0,a0,a5
    306c:	2bd9                	jal	3642 <htons>
    306e:	4785                	li	a5,1
    3070:	02f50f63          	beq	a0,a5,30ae <etharp_arp_input+0x110>
    3074:	4789                	li	a5,2
    3076:	f4f511e3          	bne	a0,a5,2fb8 <etharp_arp_input+0x1a>
    307a:	006c                	addi	a1,sp,12
    307c:	8526                	mv	a0,s1
    307e:	296010ef          	jal	ra,4314 <dhcp_arp_reply>
    3082:	200067b7          	lui	a5,0x20006
    3086:	6547a703          	lw	a4,1620(a5) # 20006654 <DHCPCtrl>
    308a:	f20707e3          	beqz	a4,2fb8 <etharp_arp_input+0x1a>
    308e:	65478793          	addi	a5,a5,1620
    3092:	47dc                	lw	a5,12(a5)
    3094:	f20782e3          	beqz	a5,2fb8 <etharp_arp_input+0x1a>
    3098:	006c                	addi	a1,sp,12
    309a:	8526                	mv	a0,s1
    309c:	9782                	jalr	a5
    309e:	bf29                	j	2fb8 <etharp_arp_input+0x1a>
    30a0:	4681                	li	a3,0
    30a2:	006c                	addi	a1,sp,12
    30a4:	8526                	mv	a0,s1
    30a6:	dedff0ef          	jal	ra,2e92 <update_arp_entry>
    30aa:	4b01                	li	s6,0
    30ac:	bf65                	j	3064 <etharp_arp_input+0xc6>
    30ae:	f00b05e3          	beqz	s6,2fb8 <etharp_arp_input+0x1a>
    30b2:	4509                	li	a0,2
    30b4:	2379                	jal	3642 <htons>
    30b6:	a068                	sb	a0,6(s0)
    30b8:	8121                	srli	a0,a0,0x8
    30ba:	b068                	sb	a0,7(s0)
    30bc:	4611                	li	a2,4
    30be:	85d6                	mv	a1,s5
    30c0:	01840513          	addi	a0,s0,24
    30c4:	1fc050ef          	jal	ra,82c0 <memcpy>
    30c8:	4611                	li	a2,4
    30ca:	00448593          	addi	a1,s1,4
    30ce:	8556                	mv	a0,s5
    30d0:	1f0050ef          	jal	ra,82c0 <memcpy>
    30d4:	0435                	addi	s0,s0,13
    30d6:	0915                	addi	s2,s2,5
    30d8:	4795                	li	a5,5
    30da:	56fd                	li	a3,-1
    30dc:	2018                	lbu	a4,0(s0)
    30de:	197d                	addi	s2,s2,-1
    30e0:	147d                	addi	s0,s0,-1
    30e2:	b438                	sb	a4,11(s0)
    30e4:	00e900a3          	sb	a4,1(s2)
    30e8:	00fa0733          	add	a4,s4,a5
    30ec:	2318                	lbu	a4,0(a4)
    30ee:	17fd                	addi	a5,a5,-1
    30f0:	b018                	sb	a4,1(s0)
    30f2:	00e903a3          	sb	a4,7(s2)
    30f6:	fed793e3          	bne	a5,a3,30dc <etharp_arp_input+0x13e>
    30fa:	4c9c                	lw	a5,24(s1)
    30fc:	85ce                	mv	a1,s3
    30fe:	8526                	mv	a0,s1
    3100:	9782                	jalr	a5
    3102:	bd5d                	j	2fb8 <etharp_arp_input+0x1a>
    3104:	8082                	ret

00003106 <etharp_request>:
etharp_request():
    3106:	8d0fd2ef          	jal	t0,1d6 <__riscv_save_4>
    310a:	892a                	mv	s2,a0
    310c:	89ae                	mv	s3,a1
    310e:	4601                	li	a2,0
    3110:	02a00593          	li	a1,42
    3114:	450d                	li	a0,3
    3116:	085010ef          	jal	ra,499a <pbuf_alloc>
    311a:	547d                	li	s0,-1
    311c:	c94d                	beqz	a0,31ce <etharp_request+0xc8>
    311e:	4140                	lw	s0,4(a0)
    3120:	84aa                	mv	s1,a0
    3122:	4505                	li	a0,1
    3124:	2b39                	jal	3642 <htons>
    3126:	a848                	sb	a0,20(s0)
    3128:	8121                	srli	a0,a0,0x8
    312a:	b848                	sb	a0,21(s0)
    312c:	02e90693          	addi	a3,s2,46
    3130:	00540793          	addi	a5,s0,5
    3134:	4715                	li	a4,5
    3136:	85018593          	addi	a1,gp,-1968 # 20000270 <ethzero>
    313a:	84818613          	addi	a2,gp,-1976 # 20000268 <ethbroadcast>
    313e:	557d                	li	a0,-1
    3140:	0006c803          	lbu	a6,0(a3)
    3144:	17fd                	addi	a5,a5,-1
    3146:	16fd                	addi	a3,a3,-1
    3148:	01078ba3          	sb	a6,23(a5)
    314c:	00e58833          	add	a6,a1,a4
    3150:	00084803          	lbu	a6,0(a6)
    3154:	030780a3          	sb	a6,33(a5)
    3158:	00e60833          	add	a6,a2,a4
    315c:	00084803          	lbu	a6,0(a6)
    3160:	177d                	addi	a4,a4,-1
    3162:	010780a3          	sb	a6,1(a5)
    3166:	0016c803          	lbu	a6,1(a3)
    316a:	010783a3          	sb	a6,7(a5)
    316e:	fca719e3          	bne	a4,a0,3140 <etharp_request+0x3a>
    3172:	4611                	li	a2,4
    3174:	00490593          	addi	a1,s2,4
    3178:	01c40513          	addi	a0,s0,28
    317c:	144050ef          	jal	ra,82c0 <memcpy>
    3180:	85ce                	mv	a1,s3
    3182:	4611                	li	a2,4
    3184:	02640513          	addi	a0,s0,38
    3188:	138050ef          	jal	ra,82c0 <memcpy>
    318c:	4505                	li	a0,1
    318e:	2955                	jal	3642 <htons>
    3190:	a468                	sb	a0,14(s0)
    3192:	6985                	lui	s3,0x1
    3194:	8121                	srli	a0,a0,0x8
    3196:	b468                	sb	a0,15(s0)
    3198:	80098513          	addi	a0,s3,-2048 # 800 <__stack_size>
    319c:	215d                	jal	3642 <htons>
    319e:	a808                	sb	a0,16(s0)
    31a0:	8121                	srli	a0,a0,0x8
    31a2:	b808                	sb	a0,17(s0)
    31a4:	60400513          	li	a0,1540
    31a8:	2969                	jal	3642 <htons>
    31aa:	a828                	sb	a0,18(s0)
    31ac:	8121                	srli	a0,a0,0x8
    31ae:	b828                	sb	a0,19(s0)
    31b0:	80698513          	addi	a0,s3,-2042
    31b4:	2179                	jal	3642 <htons>
    31b6:	01892783          	lw	a5,24(s2)
    31ba:	a448                	sb	a0,12(s0)
    31bc:	8121                	srli	a0,a0,0x8
    31be:	b448                	sb	a0,13(s0)
    31c0:	85a6                	mv	a1,s1
    31c2:	854a                	mv	a0,s2
    31c4:	9782                	jalr	a5
    31c6:	842a                	mv	s0,a0
    31c8:	8526                	mv	a0,s1
    31ca:	782010ef          	jal	ra,494c <pbuf_free>
    31ce:	8522                	mv	a0,s0
    31d0:	83afd06f          	j	20a <__riscv_restore_4>

000031d4 <etharp_query>:
etharp_query():
    31d4:	802fd2ef          	jal	t0,1d6 <__riscv_save_4>
    31d8:	842e                	mv	s0,a1
    31da:	1141                	addi	sp,sp,-16
    31dc:	892a                	mv	s2,a0
    31de:	85aa                	mv	a1,a0
    31e0:	8522                	mv	a0,s0
    31e2:	89b2                	mv	s3,a2
    31e4:	121000ef          	jal	ra,3b04 <ip_addr_isbroadcast>
    31e8:	c509                	beqz	a0,31f2 <etharp_query+0x1e>
    31ea:	5559                	li	a0,-10
    31ec:	0141                	addi	sp,sp,16
    31ee:	81cfd06f          	j	20a <__riscv_restore_4>
    31f2:	301c                	lbu	a5,1(s0)
    31f4:	2004                	lbu	s1,0(s0)
    31f6:	f0000537          	lui	a0,0xf0000
    31fa:	07a2                	slli	a5,a5,0x8
    31fc:	8fc5                	or	a5,a5,s1
    31fe:	2024                	lbu	s1,2(s0)
    3200:	04c2                	slli	s1,s1,0x10
    3202:	8fc5                	or	a5,a5,s1
    3204:	3024                	lbu	s1,3(s0)
    3206:	04e2                	slli	s1,s1,0x18
    3208:	8cdd                	or	s1,s1,a5
    320a:	29a5                	jal	3682 <ntohl>
    320c:	8ce9                	and	s1,s1,a0
    320e:	e0000537          	lui	a0,0xe0000
    3212:	2985                	jal	3682 <ntohl>
    3214:	fca48be3          	beq	s1,a0,31ea <etharp_query+0x16>
    3218:	3018                	lbu	a4,1(s0)
    321a:	201c                	lbu	a5,0(s0)
    321c:	0722                	slli	a4,a4,0x8
    321e:	8f5d                	or	a4,a4,a5
    3220:	203c                	lbu	a5,2(s0)
    3222:	07c2                	slli	a5,a5,0x10
    3224:	8f5d                	or	a4,a4,a5
    3226:	303c                	lbu	a5,3(s0)
    3228:	07e2                	slli	a5,a5,0x18
    322a:	8fd9                	or	a5,a5,a4
    322c:	dfdd                	beqz	a5,31ea <etharp_query+0x16>
    322e:	4585                	li	a1,1
    3230:	8522                	mv	a0,s0
    3232:	ae1ff0ef          	jal	ra,2d12 <find_entry>
    3236:	fa054be3          	bltz	a0,31ec <etharp_query+0x18>
    323a:	47e1                	li	a5,24
    323c:	02f504b3          	mul	s1,a0,a5
    3240:	8301a783          	lw	a5,-2000(gp) # 20000250 <arp_table>
    3244:	83018a13          	addi	s4,gp,-2000 # 20000250 <arp_table>
    3248:	97a6                	add	a5,a5,s1
    324a:	47d8                	lw	a4,12(a5)
    324c:	c711                	beqz	a4,3258 <etharp_query+0x84>
    324e:	557d                	li	a0,-1
    3250:	02099b63          	bnez	s3,3286 <etharp_query+0xb2>
    3254:	4a81                	li	s5,0
    3256:	a031                	j	3262 <etharp_query+0x8e>
    3258:	4705                	li	a4,1
    325a:	c7d8                	sw	a4,12(a5)
    325c:	0127aa23          	sw	s2,20(a5)
    3260:	4a85                	li	s5,1
    3262:	aa5ff0ef          	jal	ra,2d06 <LwipArpCheck>
    3266:	85a2                	mv	a1,s0
    3268:	854a                	mv	a0,s2
    326a:	e9dff0ef          	jal	ra,3106 <etharp_request>
    326e:	ed01                	bnez	a0,3286 <etharp_query+0xb2>
    3270:	000a2783          	lw	a5,0(s4)
    3274:	4705                	li	a4,1
    3276:	97a6                	add	a5,a5,s1
    3278:	47d4                	lw	a3,12(a5)
    327a:	00e69663          	bne	a3,a4,3286 <etharp_query+0xb2>
    327e:	000a9463          	bnez	s5,3286 <etharp_query+0xb2>
    3282:	00079823          	sh	zero,16(a5)
    3286:	000a2783          	lw	a5,0(s4)
    328a:	97a6                	add	a5,a5,s1
    328c:	47d8                	lw	a4,12(a5)
    328e:	4785                	li	a5,1
    3290:	00f71663          	bne	a4,a5,329c <etharp_query+0xc8>
    3294:	c62a                	sw	a0,12(sp)
    3296:	a71ff0ef          	jal	ra,2d06 <LwipArpCheck>
    329a:	4532                	lw	a0,12(sp)
    329c:	f40988e3          	beqz	s3,31ec <etharp_query+0x18>
    32a0:	000a2783          	lw	a5,0(s4)
    32a4:	4709                	li	a4,2
    32a6:	97a6                	add	a5,a5,s1
    32a8:	47d4                	lw	a3,12(a5)
    32aa:	f4e691e3          	bne	a3,a4,31ec <etharp_query+0x18>
    32ae:	0049a403          	lw	s0,4(s3)
    32b2:	00978713          	addi	a4,a5,9
    32b6:	02e90613          	addi	a2,s2,46
    32ba:	00540693          	addi	a3,s0,5
    32be:	078d                	addi	a5,a5,3
    32c0:	230c                	lbu	a1,0(a4)
    32c2:	177d                	addi	a4,a4,-1
    32c4:	16fd                	addi	a3,a3,-1
    32c6:	b28c                	sb	a1,1(a3)
    32c8:	220c                	lbu	a1,0(a2)
    32ca:	167d                	addi	a2,a2,-1
    32cc:	b2ec                	sb	a1,7(a3)
    32ce:	fef719e3          	bne	a4,a5,32c0 <etharp_query+0xec>
    32d2:	6505                	lui	a0,0x1
    32d4:	80050513          	addi	a0,a0,-2048 # 800 <__stack_size>
    32d8:	26ad                	jal	3642 <htons>
    32da:	01892783          	lw	a5,24(s2)
    32de:	a448                	sb	a0,12(s0)
    32e0:	8121                	srli	a0,a0,0x8
    32e2:	b448                	sb	a0,13(s0)
    32e4:	85ce                	mv	a1,s3
    32e6:	854a                	mv	a0,s2
    32e8:	9782                	jalr	a5
    32ea:	b709                	j	31ec <etharp_query+0x18>

000032ec <etharp_output>:
etharp_output():
    32ec:	eebfc2ef          	jal	t0,1d6 <__riscv_save_4>
    32f0:	84ae                	mv	s1,a1
    32f2:	1141                	addi	sp,sp,-16
    32f4:	892a                	mv	s2,a0
    32f6:	45b9                	li	a1,14
    32f8:	8526                	mv	a0,s1
    32fa:	8432                	mv	s0,a2
    32fc:	5e2010ef          	jal	ra,48de <pbuf_header>
    3300:	10051e63          	bnez	a0,341c <etharp_output+0x130>
    3304:	85ca                	mv	a1,s2
    3306:	8522                	mv	a0,s0
    3308:	7fc000ef          	jal	ra,3b04 <ip_addr_isbroadcast>
    330c:	10051563          	bnez	a0,3416 <etharp_output+0x12a>
    3310:	301c                	lbu	a5,1(s0)
    3312:	00044983          	lbu	s3,0(s0)
    3316:	f0000537          	lui	a0,0xf0000
    331a:	07a2                	slli	a5,a5,0x8
    331c:	0137e7b3          	or	a5,a5,s3
    3320:	00244983          	lbu	s3,2(s0)
    3324:	09c2                	slli	s3,s3,0x10
    3326:	00f9e7b3          	or	a5,s3,a5
    332a:	00344983          	lbu	s3,3(s0)
    332e:	09e2                	slli	s3,s3,0x18
    3330:	00f9e9b3          	or	s3,s3,a5
    3334:	26b9                	jal	3682 <ntohl>
    3336:	00a9f9b3          	and	s3,s3,a0
    333a:	e0000537          	lui	a0,0xe0000
    333e:	2691                	jal	3682 <ntohl>
    3340:	2010                	lbu	a2,0(s0)
    3342:	3014                	lbu	a3,1(s0)
    3344:	2038                	lbu	a4,2(s0)
    3346:	303c                	lbu	a5,3(s0)
    3348:	08a99c63          	bne	s3,a0,33e0 <etharp_output+0xf4>
    334c:	00869513          	slli	a0,a3,0x8
    3350:	8d51                	or	a0,a0,a2
    3352:	0742                	slli	a4,a4,0x10
    3354:	8d59                	or	a0,a0,a4
    3356:	07e2                	slli	a5,a5,0x18
    3358:	4585                	li	a1,1
    335a:	846c                	sh	a1,8(sp)
    335c:	8d5d                	or	a0,a0,a5
    335e:	05e00593          	li	a1,94
    3362:	854c                	sb	a1,10(sp)
    3364:	2e39                	jal	3682 <ntohl>
    3366:	8141                	srli	a0,a0,0x10
    3368:	07f57513          	andi	a0,a0,127
    336c:	85c8                	sb	a0,11(sp)
    336e:	3008                	lbu	a0,1(s0)
    3370:	201c                	lbu	a5,0(s0)
    3372:	0522                	slli	a0,a0,0x8
    3374:	8d5d                	or	a0,a0,a5
    3376:	203c                	lbu	a5,2(s0)
    3378:	07c2                	slli	a5,a5,0x10
    337a:	8fc9                	or	a5,a5,a0
    337c:	3028                	lbu	a0,3(s0)
    337e:	0562                	slli	a0,a0,0x18
    3380:	8d5d                	or	a0,a0,a5
    3382:	2601                	jal	3682 <ntohl>
    3384:	8121                	srli	a0,a0,0x8
    3386:	8648                	sb	a0,12(sp)
    3388:	3008                	lbu	a0,1(s0)
    338a:	201c                	lbu	a5,0(s0)
    338c:	0522                	slli	a0,a0,0x8
    338e:	8d5d                	or	a0,a0,a5
    3390:	203c                	lbu	a5,2(s0)
    3392:	07c2                	slli	a5,a5,0x10
    3394:	8fc9                	or	a5,a5,a0
    3396:	3028                	lbu	a0,3(s0)
    3398:	0562                	slli	a0,a0,0x18
    339a:	8d5d                	or	a0,a0,a5
    339c:	24dd                	jal	3682 <ntohl>
    339e:	86c8                	sb	a0,13(sp)
    33a0:	0034                	addi	a3,sp,8
    33a2:	40c0                	lw	s0,4(s1)
    33a4:	4795                	li	a5,5
    33a6:	567d                	li	a2,-1
    33a8:	00540713          	addi	a4,s0,5
    33ac:	00f685b3          	add	a1,a3,a5
    33b0:	218c                	lbu	a1,0(a1)
    33b2:	177d                	addi	a4,a4,-1
    33b4:	b30c                	sb	a1,1(a4)
    33b6:	00f905b3          	add	a1,s2,a5
    33ba:	0295c583          	lbu	a1,41(a1)
    33be:	17fd                	addi	a5,a5,-1
    33c0:	b36c                	sb	a1,7(a4)
    33c2:	fec795e3          	bne	a5,a2,33ac <etharp_output+0xc0>
    33c6:	6505                	lui	a0,0x1
    33c8:	80050513          	addi	a0,a0,-2048 # 800 <__stack_size>
    33cc:	2c9d                	jal	3642 <htons>
    33ce:	01892783          	lw	a5,24(s2)
    33d2:	a448                	sb	a0,12(s0)
    33d4:	8121                	srli	a0,a0,0x8
    33d6:	b448                	sb	a0,13(s0)
    33d8:	85a6                	mv	a1,s1
    33da:	854a                	mv	a0,s2
    33dc:	9782                	jalr	a5
    33de:	a80d                	j	3410 <etharp_output+0x124>
    33e0:	06a2                	slli	a3,a3,0x8
    33e2:	8ed1                	or	a3,a3,a2
    33e4:	0742                	slli	a4,a4,0x10
    33e6:	8f55                	or	a4,a4,a3
    33e8:	07e2                	slli	a5,a5,0x18
    33ea:	8fd9                	or	a5,a5,a4
    33ec:	00492703          	lw	a4,4(s2)
    33f0:	8fb9                	xor	a5,a5,a4
    33f2:	00892703          	lw	a4,8(s2)
    33f6:	8ff9                	and	a5,a5,a4
    33f8:	c799                	beqz	a5,3406 <etharp_output+0x11a>
    33fa:	00c92783          	lw	a5,12(s2)
    33fe:	5571                	li	a0,-4
    3400:	cb81                	beqz	a5,3410 <etharp_output+0x124>
    3402:	00c90413          	addi	s0,s2,12
    3406:	8626                	mv	a2,s1
    3408:	85a2                	mv	a1,s0
    340a:	854a                	mv	a0,s2
    340c:	dc9ff0ef          	jal	ra,31d4 <etharp_query>
    3410:	0141                	addi	sp,sp,16
    3412:	df9fc06f          	j	20a <__riscv_restore_4>
    3416:	84818693          	addi	a3,gp,-1976 # 20000268 <ethbroadcast>
    341a:	b761                	j	33a2 <etharp_output+0xb6>
    341c:	5579                	li	a0,-2
    341e:	bfcd                	j	3410 <etharp_output+0x124>

00003420 <ethernet_input>:
ethernet_input():
    3420:	dd1fc2ef          	jal	t0,1f0 <__riscv_save_0>
    3424:	4144                	lw	s1,4(a0)
    3426:	842a                	mv	s0,a0
    3428:	892e                	mv	s2,a1
    342a:	34dc                	lbu	a5,13(s1)
    342c:	24c8                	lbu	a0,12(s1)
    342e:	07a2                	slli	a5,a5,0x8
    3430:	8d5d                	or	a0,a0,a5
    3432:	2c01                	jal	3642 <htons>
    3434:	67a1                	lui	a5,0x8
    3436:	10078793          	addi	a5,a5,256 # 8100 <print+0x24c>
    343a:	00f51763          	bne	a0,a5,3448 <ethernet_input+0x28>
    343e:	389c                	lbu	a5,17(s1)
    3440:	2888                	lbu	a0,16(s1)
    3442:	07a2                	slli	a5,a5,0x8
    3444:	8d5d                	or	a0,a0,a5
    3446:	2af5                	jal	3642 <htons>
    3448:	80050793          	addi	a5,a0,-2048
    344c:	cb91                	beqz	a5,3460 <ethernet_input+0x40>
    344e:	6785                	lui	a5,0x1
    3450:	80678793          	addi	a5,a5,-2042 # 806 <__stack_size+0x6>
    3454:	04f50263          	beq	a0,a5,3498 <ethernet_input+0x78>
    3458:	8522                	mv	a0,s0
    345a:	4f2010ef          	jal	ra,494c <pbuf_free>
    345e:	a815                	j	3492 <ethernet_input+0x72>
    3460:	85a2                	mv	a1,s0
    3462:	854a                	mv	a0,s2
    3464:	ae1ff0ef          	jal	ra,2f44 <etharp_ip_input>
    3468:	34dc                	lbu	a5,13(s1)
    346a:	24c8                	lbu	a0,12(s1)
    346c:	07a2                	slli	a5,a5,0x8
    346e:	8d5d                	or	a0,a0,a5
    3470:	2ac9                	jal	3642 <htons>
    3472:	67a1                	lui	a5,0x8
    3474:	10078793          	addi	a5,a5,256 # 8100 <print+0x24c>
    3478:	45b9                	li	a1,14
    347a:	00f51363          	bne	a0,a5,3480 <ethernet_input+0x60>
    347e:	45c9                	li	a1,18
    3480:	40b005b3          	neg	a1,a1
    3484:	8522                	mv	a0,s0
    3486:	458010ef          	jal	ra,48de <pbuf_header>
    348a:	f579                	bnez	a0,3458 <ethernet_input+0x38>
    348c:	85ca                	mv	a1,s2
    348e:	8522                	mv	a0,s0
    3490:	24a9                	jal	36da <ip_input>
    3492:	4501                	li	a0,0
    3494:	d81fc06f          	j	214 <__riscv_restore_0>
    3498:	8622                	mv	a2,s0
    349a:	02990593          	addi	a1,s2,41
    349e:	854a                	mv	a0,s2
    34a0:	affff0ef          	jal	ra,2f9e <etharp_arp_input>
    34a4:	b7fd                	j	3492 <ethernet_input+0x72>

000034a6 <ethernetif_init>:
ethernetif_init():
    34a6:	d4bfc2ef          	jal	t0,1f0 <__riscv_save_0>
    34aa:	200067b7          	lui	a5,0x20006
    34ae:	66c78793          	addi	a5,a5,1644 # 2000666c <dhcp_host_name>
    34b2:	d15c                	sw	a5,36(a0)
    34b4:	06500793          	li	a5,101
    34b8:	02f509a3          	sb	a5,51(a0)
    34bc:	06e00793          	li	a5,110
    34c0:	02f50a23          	sb	a5,52(a0)
    34c4:	000037b7          	lui	a5,0x3
    34c8:	2ec78793          	addi	a5,a5,748 # 32ec <etharp_output>
    34cc:	c95c                	sw	a5,20(a0)
    34ce:	000037b7          	lui	a5,0x3
    34d2:	50a78793          	addi	a5,a5,1290 # 350a <low_level_output>
    34d6:	cd1c                	sw	a5,24(a0)
    34d8:	200065b7          	lui	a1,0x20006
    34dc:	4799                	li	a5,6
    34de:	842a                	mv	s0,a0
    34e0:	02f50423          	sb	a5,40(a0)
    34e4:	00052e23          	sw	zero,28(a0)
    34e8:	4619                	li	a2,6
    34ea:	76558593          	addi	a1,a1,1893 # 20006765 <WCHNetIf+0x29>
    34ee:	02950513          	addi	a0,a0,41
    34f2:	5cf040ef          	jal	ra,82c0 <memcpy>
    34f6:	5dc00793          	li	a5,1500
    34fa:	b81e                	sh	a5,48(s0)
    34fc:	03300793          	li	a5,51
    3500:	02f40923          	sb	a5,50(s0)
    3504:	4501                	li	a0,0
    3506:	d0ffc06f          	j	214 <__riscv_restore_0>

0000350a <low_level_output>:
low_level_output():
    350a:	ce7fc2ef          	jal	t0,1f0 <__riscv_save_0>
    350e:	64b1                	lui	s1,0xc
    3510:	842e                	mv	s0,a1
    3512:	35148493          	addi	s1,s1,849 # c351 <_data_lma+0x24ed>
    3516:	fbeff0ef          	jal	ra,2cd4 <WCHNET_GetPHYStatus>
    351a:	8911                	andi	a0,a0,4
    351c:	cd15                	beqz	a0,3558 <low_level_output+0x4e>
    351e:	14fd                	addi	s1,s1,-1
    3520:	cc85                	beqz	s1,3558 <low_level_output+0x4e>
    3522:	f21fe0ef          	jal	ra,2442 <getTxBuffAddr>
    3526:	892a                	mv	s2,a0
    3528:	d57d                	beqz	a0,3516 <low_level_output+0xc>
    352a:	87aa                	mv	a5,a0
    352c:	4481                	li	s1,0
    352e:	e801                	bnez	s0,353e <low_level_output+0x34>
    3530:	85ca                	mv	a1,s2
    3532:	8526                	mv	a0,s1
    3534:	ecffe0ef          	jal	ra,2402 <WCHNET_Tx>
    3538:	4501                	li	a0,0
    353a:	cdbfc06f          	j	214 <__riscv_restore_0>
    353e:	2432                	lhu	a2,10(s0)
    3540:	404c                	lw	a1,4(s0)
    3542:	853e                	mv	a0,a5
    3544:	57d040ef          	jal	ra,82c0 <memcpy>
    3548:	243a                	lhu	a4,10(s0)
    354a:	4000                	lw	s0,0(s0)
    354c:	94ba                	add	s1,s1,a4
    354e:	04c2                	slli	s1,s1,0x10
    3550:	00e507b3          	add	a5,a0,a4
    3554:	80c1                	srli	s1,s1,0x10
    3556:	bfe1                	j	352e <low_level_output+0x24>
    3558:	5551                	li	a0,-12
    355a:	b7c5                	j	353a <low_level_output+0x30>

0000355c <ethernetif_input>:
ethernetif_input():
    355c:	c7bfc2ef          	jal	t0,1d6 <__riscv_save_4>
    3560:	200067b7          	lui	a5,0x20006
    3564:	7347a783          	lw	a5,1844(a5) # 20006734 <WCHCfg+0x24>
    3568:	89aa                	mv	s3,a0
    356a:	8c018513          	addi	a0,gp,-1856 # 200002e0 <frame>
    356e:	8c018493          	addi	s1,gp,-1856 # 200002e0 <frame>
    3572:	9782                	jalr	a5
    3574:	408c                	lw	a1,0(s1)
    3576:	c9a9                	beqz	a1,35c8 <ethernetif_input+0x6c>
    3578:	8bc1c783          	lbu	a5,-1860(gp) # 200002dc <phydata>
    357c:	8c018413          	addi	s0,gp,-1856 # 200002e0 <frame>
    3580:	0ff7f793          	andi	a5,a5,255
    3584:	e781                	bnez	a5,358c <ethernetif_input+0x30>
    3586:	4785                	li	a5,1
    3588:	8af18e23          	sb	a5,-1860(gp) # 200002dc <phydata>
    358c:	05c2                	slli	a1,a1,0x10
    358e:	460d                	li	a2,3
    3590:	81c1                	srli	a1,a1,0x10
    3592:	450d                	li	a0,3
    3594:	4044                	lw	s1,4(s0)
    3596:	404010ef          	jal	ra,499a <pbuf_alloc>
    359a:	892a                	mv	s2,a0
    359c:	c515                	beqz	a0,35c8 <ethernetif_input+0x6c>
    359e:	842a                	mv	s0,a0
    35a0:	2432                	lhu	a2,10(s0)
    35a2:	4048                	lw	a0,4(s0)
    35a4:	85a6                	mv	a1,s1
    35a6:	51b040ef          	jal	ra,82c0 <memcpy>
    35aa:	243e                	lhu	a5,10(s0)
    35ac:	4000                	lw	s0,0(s0)
    35ae:	94be                	add	s1,s1,a5
    35b0:	f865                	bnez	s0,35a0 <ethernetif_input+0x44>
    35b2:	e3ffe0ef          	jal	ra,23f0 <setRxBuffAddr>
    35b6:	0109a783          	lw	a5,16(s3)
    35ba:	85ce                	mv	a1,s3
    35bc:	854a                	mv	a0,s2
    35be:	9782                	jalr	a5
    35c0:	c501                	beqz	a0,35c8 <ethernetif_input+0x6c>
    35c2:	854a                	mv	a0,s2
    35c4:	388010ef          	jal	ra,494c <pbuf_free>
    35c8:	c43fc06f          	j	20a <__riscv_restore_4>

000035cc <wch_ethernetif_init>:
wch_ethernetif_init():
    35cc:	c25fc2ef          	jal	t0,1f0 <__riscv_save_0>
    35d0:	1141                	addi	sp,sp,-16
    35d2:	20006437          	lui	s0,0x20006
    35d6:	c202                	sw	zero,4(sp)
    35d8:	c402                	sw	zero,8(sp)
    35da:	c602                	sw	zero,12(sp)
    35dc:	6bb000ef          	jal	ra,4496 <lwip_init>
    35e0:	73c40513          	addi	a0,s0,1852 # 2000673c <WCHNetIf>
    35e4:	200065b7          	lui	a1,0x20006
    35e8:	4619                	li	a2,6
    35ea:	6d858593          	addi	a1,a1,1752 # 200066d8 <NetInf+0xc>
    35ee:	02950513          	addi	a0,a0,41
    35f2:	4cf040ef          	jal	ra,82c0 <memcpy>
    35f6:	200067b7          	lui	a5,0x20006
    35fa:	6cc7a703          	lw	a4,1740(a5) # 200066cc <NetInf>
    35fe:	6cc78793          	addi	a5,a5,1740
    3602:	73c40513          	addi	a0,s0,1852
    3606:	c23a                	sw	a4,4(sp)
    3608:	4798                	lw	a4,8(a5)
    360a:	43dc                	lw	a5,4(a5)
    360c:	c43a                	sw	a4,8(sp)
    360e:	c63e                	sw	a5,12(sp)
    3610:	8e01a023          	sw	zero,-1824(gp) # 20000300 <netif_list>
    3614:	8c01ae23          	sw	zero,-1828(gp) # 200002fc <netif_default>
    3618:	2b8010ef          	jal	ra,48d0 <netif_set_default>
    361c:	00003837          	lui	a6,0x3
    3620:	000037b7          	lui	a5,0x3
    3624:	0074                	addi	a3,sp,12
    3626:	0030                	addi	a2,sp,8
    3628:	004c                	addi	a1,sp,4
    362a:	42080813          	addi	a6,a6,1056 # 3420 <ethernet_input>
    362e:	4a678793          	addi	a5,a5,1190 # 34a6 <ethernetif_init>
    3632:	4701                	li	a4,0
    3634:	73c40513          	addi	a0,s0,1852
    3638:	23e010ef          	jal	ra,4876 <netif_add>
    363c:	0141                	addi	sp,sp,16
    363e:	bd7fc06f          	j	214 <__riscv_restore_0>

00003642 <htons>:
htons():
    3642:	00851793          	slli	a5,a0,0x8
    3646:	8121                	srli	a0,a0,0x8
    3648:	8d5d                	or	a0,a0,a5
    364a:	0542                	slli	a0,a0,0x10
    364c:	8141                	srli	a0,a0,0x10
    364e:	8082                	ret

00003650 <ntohs>:
ntohs():
    3650:	00851793          	slli	a5,a0,0x8
    3654:	8121                	srli	a0,a0,0x8
    3656:	8d5d                	or	a0,a0,a5
    3658:	0542                	slli	a0,a0,0x10
    365a:	8141                	srli	a0,a0,0x10
    365c:	8082                	ret

0000365e <htonl>:
htonl():
    365e:	01855713          	srli	a4,a0,0x18
    3662:	01851793          	slli	a5,a0,0x18
    3666:	8fd9                	or	a5,a5,a4
    3668:	00ff06b7          	lui	a3,0xff0
    366c:	00851713          	slli	a4,a0,0x8
    3670:	8f75                	and	a4,a4,a3
    3672:	8fd9                	or	a5,a5,a4
    3674:	6741                	lui	a4,0x10
    3676:	f0070713          	addi	a4,a4,-256 # ff00 <_data_lma+0x609c>
    367a:	8121                	srli	a0,a0,0x8
    367c:	8d79                	and	a0,a0,a4
    367e:	8d5d                	or	a0,a0,a5
    3680:	8082                	ret

00003682 <ntohl>:
ntohl():
    3682:	b6ffc2ef          	jal	t0,1f0 <__riscv_save_0>
    3686:	fd9ff0ef          	jal	ra,365e <htonl>
    368a:	b8bfc06f          	j	214 <__riscv_restore_0>

0000368e <ip_route>:
ip_route():
    368e:	b63fc2ef          	jal	t0,1f0 <__riscv_save_0>
    3692:	8e01a403          	lw	s0,-1824(gp) # 20000300 <netif_list>
    3696:	84aa                	mv	s1,a0
    3698:	ec01                	bnez	s0,36b0 <ip_route+0x22>
    369a:	8dc1a503          	lw	a0,-1828(gp) # 200002fc <netif_default>
    369e:	c511                	beqz	a0,36aa <ip_route+0x1c>
    36a0:	236010ef          	jal	ra,48d6 <netif_is_up>
    36a4:	c119                	beqz	a0,36aa <ip_route+0x1c>
    36a6:	8dc1a403          	lw	s0,-1828(gp) # 200002fc <netif_default>
    36aa:	8522                	mv	a0,s0
    36ac:	b69fc06f          	j	214 <__riscv_restore_0>
    36b0:	8522                	mv	a0,s0
    36b2:	224010ef          	jal	ra,48d6 <netif_is_up>
    36b6:	c105                	beqz	a0,36d6 <ip_route+0x48>
    36b8:	3098                	lbu	a4,1(s1)
    36ba:	209c                	lbu	a5,0(s1)
    36bc:	0722                	slli	a4,a4,0x8
    36be:	8f5d                	or	a4,a4,a5
    36c0:	20bc                	lbu	a5,2(s1)
    36c2:	07c2                	slli	a5,a5,0x10
    36c4:	8f5d                	or	a4,a4,a5
    36c6:	30bc                	lbu	a5,3(s1)
    36c8:	07e2                	slli	a5,a5,0x18
    36ca:	8fd9                	or	a5,a5,a4
    36cc:	4058                	lw	a4,4(s0)
    36ce:	8fb9                	xor	a5,a5,a4
    36d0:	4418                	lw	a4,8(s0)
    36d2:	8ff9                	and	a5,a5,a4
    36d4:	dbf9                	beqz	a5,36aa <ip_route+0x1c>
    36d6:	4000                	lw	s0,0(s0)
    36d8:	b7c1                	j	3698 <ip_route+0xa>

000036da <ip_input>:
ip_input():
    36da:	aeffc2ef          	jal	t0,1c8 <__riscv_save_10>
    36de:	4140                	lw	s0,4(a0)
    36e0:	84aa                	mv	s1,a0
    36e2:	89ae                	mv	s3,a1
    36e4:	301c                	lbu	a5,1(s0)
    36e6:	2008                	lbu	a0,0(s0)
    36e8:	07a2                	slli	a5,a5,0x8
    36ea:	8d5d                	or	a0,a0,a5
    36ec:	f65ff0ef          	jal	ra,3650 <ntohs>
    36f0:	8131                	srli	a0,a0,0xc
    36f2:	0542                	slli	a0,a0,0x10
    36f4:	8141                	srli	a0,a0,0x10
    36f6:	4791                	li	a5,4
    36f8:	00f50663          	beq	a0,a5,3704 <ip_input+0x2a>
    36fc:	8526                	mv	a0,s1
    36fe:	24e010ef          	jal	ra,494c <pbuf_free>
    3702:	a431                	j	390e <ip_input+0x234>
    3704:	301c                	lbu	a5,1(s0)
    3706:	2008                	lbu	a0,0(s0)
    3708:	07a2                	slli	a5,a5,0x8
    370a:	8d5d                	or	a0,a0,a5
    370c:	f45ff0ef          	jal	ra,3650 <ntohs>
    3710:	8119                	srli	a0,a0,0x6
    3712:	303c                	lbu	a5,3(s0)
    3714:	03c57a13          	andi	s4,a0,60
    3718:	2028                	lbu	a0,2(s0)
    371a:	07a2                	slli	a5,a5,0x8
    371c:	8d5d                	or	a0,a0,a5
    371e:	f33ff0ef          	jal	ra,3650 <ntohs>
    3722:	24be                	lhu	a5,10(s1)
    3724:	892a                	mv	s2,a0
    3726:	fd47ebe3          	bltu	a5,s4,36fc <ip_input+0x22>
    372a:	249e                	lhu	a5,8(s1)
    372c:	fca7e8e3          	bltu	a5,a0,36fc <ip_input+0x22>
    3730:	85d2                	mv	a1,s4
    3732:	8522                	mv	a0,s0
    3734:	4de040ef          	jal	ra,7c12 <inet_chksum>
    3738:	f171                	bnez	a0,36fc <ip_input+0x22>
    373a:	85ca                	mv	a1,s2
    373c:	8526                	mv	a0,s1
    373e:	39c010ef          	jal	ra,4ada <pbuf_realloc>
    3742:	f0000537          	lui	a0,0xf0000
    3746:	f3dff0ef          	jal	ra,3682 <ntohl>
    374a:	e0000537          	lui	a0,0xe0000
    374e:	f35ff0ef          	jal	ra,3682 <ntohl>
    3752:	894e                	mv	s2,s3
    3754:	4b05                	li	s6,1
    3756:	01040b93          	addi	s7,s0,16
    375a:	854a                	mv	a0,s2
    375c:	17a010ef          	jal	ra,48d6 <netif_is_up>
    3760:	e511                	bnez	a0,376c <ip_input+0x92>
    3762:	120b1363          	bnez	s6,3888 <ip_input+0x1ae>
    3766:	00092903          	lw	s2,0(s2)
    376a:	a20d                	j	388c <ip_input+0x1b2>
    376c:	00490793          	addi	a5,s2,4
    3770:	dbed                	beqz	a5,3762 <ip_input+0x88>
    3772:	00492683          	lw	a3,4(s2)
    3776:	d6f5                	beqz	a3,3762 <ip_input+0x88>
    3778:	3818                	lbu	a4,17(s0)
    377a:	281c                	lbu	a5,16(s0)
    377c:	0722                	slli	a4,a4,0x8
    377e:	8f5d                	or	a4,a4,a5
    3780:	283c                	lbu	a5,18(s0)
    3782:	07c2                	slli	a5,a5,0x10
    3784:	8f5d                	or	a4,a4,a5
    3786:	383c                	lbu	a5,19(s0)
    3788:	07e2                	slli	a5,a5,0x18
    378a:	8fd9                	or	a5,a5,a4
    378c:	04f68263          	beq	a3,a5,37d0 <ip_input+0xf6>
    3790:	85ca                	mv	a1,s2
    3792:	855e                	mv	a0,s7
    3794:	2e85                	jal	3b04 <ip_addr_isbroadcast>
    3796:	ed0d                	bnez	a0,37d0 <ip_input+0xf6>
    3798:	381c                	lbu	a5,17(s0)
    379a:	01044a83          	lbu	s5,16(s0)
    379e:	f0000537          	lui	a0,0xf0000
    37a2:	07a2                	slli	a5,a5,0x8
    37a4:	0157e7b3          	or	a5,a5,s5
    37a8:	01244a83          	lbu	s5,18(s0)
    37ac:	0ac2                	slli	s5,s5,0x10
    37ae:	00fae7b3          	or	a5,s5,a5
    37b2:	01344a83          	lbu	s5,19(s0)
    37b6:	0ae2                	slli	s5,s5,0x18
    37b8:	00faeab3          	or	s5,s5,a5
    37bc:	ec7ff0ef          	jal	ra,3682 <ntohl>
    37c0:	00aafab3          	and	s5,s5,a0
    37c4:	e0000537          	lui	a0,0xe0000
    37c8:	ebbff0ef          	jal	ra,3682 <ntohl>
    37cc:	f8aa9be3          	bne	s5,a0,3762 <ip_input+0x88>
    37d0:	3458                	lbu	a4,13(s0)
    37d2:	245c                	lbu	a5,12(s0)
    37d4:	0722                	slli	a4,a4,0x8
    37d6:	8f5d                	or	a4,a4,a5
    37d8:	247c                	lbu	a5,14(s0)
    37da:	07c2                	slli	a5,a5,0x10
    37dc:	8f5d                	or	a4,a4,a5
    37de:	347c                	lbu	a5,15(s0)
    37e0:	07e2                	slli	a5,a5,0x18
    37e2:	8fd9                	or	a5,a5,a4
    37e4:	c3b9                	beqz	a5,382a <ip_input+0x150>
    37e6:	85ce                	mv	a1,s3
    37e8:	00c40513          	addi	a0,s0,12
    37ec:	2e21                	jal	3b04 <ip_addr_isbroadcast>
    37ee:	f00517e3          	bnez	a0,36fc <ip_input+0x22>
    37f2:	345c                	lbu	a5,13(s0)
    37f4:	00c44a03          	lbu	s4,12(s0)
    37f8:	f0000537          	lui	a0,0xf0000
    37fc:	07a2                	slli	a5,a5,0x8
    37fe:	0147e7b3          	or	a5,a5,s4
    3802:	00e44a03          	lbu	s4,14(s0)
    3806:	0a42                	slli	s4,s4,0x10
    3808:	00fa67b3          	or	a5,s4,a5
    380c:	00f44a03          	lbu	s4,15(s0)
    3810:	0a62                	slli	s4,s4,0x18
    3812:	00fa6a33          	or	s4,s4,a5
    3816:	e6dff0ef          	jal	ra,3682 <ntohl>
    381a:	00aa7a33          	and	s4,s4,a0
    381e:	e0000537          	lui	a0,0xe0000
    3822:	e61ff0ef          	jal	ra,3682 <ntohl>
    3826:	ecaa0be3          	beq	s4,a0,36fc <ip_input+0x22>
    382a:	ec0909e3          	beqz	s2,36fc <ip_input+0x22>
    382e:	00744903          	lbu	s2,7(s0)
    3832:	2068                	lbu	a0,6(s0)
    3834:	0922                	slli	s2,s2,0x8
    3836:	00a96933          	or	s2,s2,a0
    383a:	6511                	lui	a0,0x4
    383c:	157d                	addi	a0,a0,-1
    383e:	e05ff0ef          	jal	ra,3642 <htons>
    3842:	00a97533          	and	a0,s2,a0
    3846:	c511                	beqz	a0,3852 <ip_input+0x178>
    3848:	8526                	mv	a0,s1
    384a:	2611                	jal	3b4e <ip_reass>
    384c:	84aa                	mv	s1,a0
    384e:	c161                	beqz	a0,390e <ip_input+0x234>
    3850:	4140                	lw	s0,4(a0)
    3852:	85ce                	mv	a1,s3
    3854:	8526                	mv	a0,s1
    3856:	3c4010ef          	jal	ra,4c1a <raw_input>
    385a:	e955                	bnez	a0,390e <ip_input+0x234>
    385c:	341c                	lbu	a5,9(s0)
    385e:	2408                	lbu	a0,8(s0)
    3860:	07a2                	slli	a5,a5,0x8
    3862:	8d5d                	or	a0,a0,a5
    3864:	dedff0ef          	jal	ra,3650 <ntohs>
    3868:	0ff57513          	andi	a0,a0,255
    386c:	4799                	li	a5,6
    386e:	0af50363          	beq	a0,a5,3914 <ip_input+0x23a>
    3872:	47c5                	li	a5,17
    3874:	08f50963          	beq	a0,a5,3906 <ip_input+0x22c>
    3878:	4785                	li	a5,1
    387a:	0af51263          	bne	a0,a5,391e <ip_input+0x244>
    387e:	85ce                	mv	a1,s3
    3880:	8526                	mv	a0,s1
    3882:	7a5030ef          	jal	ra,7826 <icmp_input>
    3886:	a061                	j	390e <ip_input+0x234>
    3888:	8e01a903          	lw	s2,-1824(gp) # 20000300 <netif_list>
    388c:	01391463          	bne	s2,s3,3894 <ip_input+0x1ba>
    3890:	00092903          	lw	s2,0(s2)
    3894:	4b01                	li	s6,0
    3896:	ec0912e3          	bnez	s2,375a <ip_input+0x80>
    389a:	341c                	lbu	a5,9(s0)
    389c:	2408                	lbu	a0,8(s0)
    389e:	07a2                	slli	a5,a5,0x8
    38a0:	8d5d                	or	a0,a0,a5
    38a2:	dafff0ef          	jal	ra,3650 <ntohs>
    38a6:	0ff57513          	andi	a0,a0,255
    38aa:	47c5                	li	a5,17
    38ac:	00f51e63          	bne	a0,a5,38c8 <ip_input+0x1ee>
    38b0:	014407b3          	add	a5,s0,s4
    38b4:	23a8                	lbu	a0,2(a5)
    38b6:	33bc                	lbu	a5,3(a5)
    38b8:	07a2                	slli	a5,a5,0x8
    38ba:	8d5d                	or	a0,a0,a5
    38bc:	d95ff0ef          	jal	ra,3650 <ntohs>
    38c0:	04400793          	li	a5,68
    38c4:	02f50d63          	beq	a0,a5,38fe <ip_input+0x224>
    38c8:	4a85                	li	s5,1
    38ca:	341c                	lbu	a5,9(s0)
    38cc:	2408                	lbu	a0,8(s0)
    38ce:	07a2                	slli	a5,a5,0x8
    38d0:	8d5d                	or	a0,a0,a5
    38d2:	d7fff0ef          	jal	ra,3650 <ntohs>
    38d6:	0ff57513          	andi	a0,a0,255
    38da:	47c5                	li	a5,17
    38dc:	08f51963          	bne	a0,a5,396e <ip_input+0x294>
    38e0:	9a22                	add	s4,s4,s0
    38e2:	003a4783          	lbu	a5,3(s4)
    38e6:	002a4503          	lbu	a0,2(s4)
    38ea:	07a2                	slli	a5,a5,0x8
    38ec:	8d5d                	or	a0,a0,a5
    38ee:	d63ff0ef          	jal	ra,3650 <ntohs>
    38f2:	76c00793          	li	a5,1900
    38f6:	06f51c63          	bne	a0,a5,396e <ip_input+0x294>
    38fa:	894e                	mv	s2,s3
    38fc:	b73d                	j	382a <ip_input+0x150>
    38fe:	f20998e3          	bnez	s3,382e <ip_input+0x154>
    3902:	4a81                	li	s5,0
    3904:	b7d9                	j	38ca <ip_input+0x1f0>
    3906:	85ce                	mv	a1,s3
    3908:	8526                	mv	a0,s1
    390a:	229030ef          	jal	ra,7332 <udp_input>
    390e:	4501                	li	a0,0
    3910:	8f1fc06f          	j	200 <__riscv_restore_10>
    3914:	85ce                	mv	a1,s3
    3916:	8526                	mv	a0,s1
    3918:	4c2020ef          	jal	ra,5dda <tcp_input>
    391c:	bfcd                	j	390e <ip_input+0x234>
    391e:	85ce                	mv	a1,s3
    3920:	01040513          	addi	a0,s0,16
    3924:	22c5                	jal	3b04 <ip_addr_isbroadcast>
    3926:	dc051be3          	bnez	a0,36fc <ip_input+0x22>
    392a:	381c                	lbu	a5,17(s0)
    392c:	01044903          	lbu	s2,16(s0)
    3930:	f0000537          	lui	a0,0xf0000
    3934:	07a2                	slli	a5,a5,0x8
    3936:	0127e7b3          	or	a5,a5,s2
    393a:	01244903          	lbu	s2,18(s0)
    393e:	0942                	slli	s2,s2,0x10
    3940:	00f967b3          	or	a5,s2,a5
    3944:	01344903          	lbu	s2,19(s0)
    3948:	0962                	slli	s2,s2,0x18
    394a:	00f96933          	or	s2,s2,a5
    394e:	d35ff0ef          	jal	ra,3682 <ntohl>
    3952:	00a97933          	and	s2,s2,a0
    3956:	e0000537          	lui	a0,0xe0000
    395a:	d29ff0ef          	jal	ra,3682 <ntohl>
    395e:	d8a90fe3          	beq	s2,a0,36fc <ip_input+0x22>
    3962:	c0c0                	sw	s0,4(s1)
    3964:	4589                	li	a1,2
    3966:	8526                	mv	a0,s1
    3968:	10e040ef          	jal	ra,7a76 <icmp_dest_unreach>
    396c:	bb41                	j	36fc <ip_input+0x22>
    396e:	e60a91e3          	bnez	s5,37d0 <ip_input+0xf6>
    3972:	b369                	j	36fc <ip_input+0x22>

00003974 <ip_output_if>:
ip_output_if():
    3974:	855fc2ef          	jal	t0,1c8 <__riscv_save_10>
    3978:	89aa                	mv	s3,a0
    397a:	8942                	mv	s2,a6
    397c:	12060f63          	beqz	a2,3aba <ip_output_if+0x146>
    3980:	8aae                	mv	s5,a1
    3982:	45d1                	li	a1,20
    3984:	8a3a                	mv	s4,a4
    3986:	84b2                	mv	s1,a2
    3988:	8bb6                	mv	s7,a3
    398a:	8b3e                	mv	s6,a5
    398c:	753000ef          	jal	ra,48de <pbuf_header>
    3990:	5779                	li	a4,-2
    3992:	12051163          	bnez	a0,3ab4 <ip_output_if+0x140>
    3996:	0049a403          	lw	s0,4(s3)
    399a:	0ba2                	slli	s7,s7,0x8
    399c:	341c                	lbu	a5,9(s0)
    399e:	2408                	lbu	a0,8(s0)
    39a0:	07a2                	slli	a5,a5,0x8
    39a2:	8d5d                	or	a0,a0,a5
    39a4:	cadff0ef          	jal	ra,3650 <ntohs>
    39a8:	0ff57513          	andi	a0,a0,255
    39ac:	01756533          	or	a0,a0,s7
    39b0:	c93ff0ef          	jal	ra,3642 <htons>
    39b4:	00855713          	srli	a4,a0,0x8
    39b8:	b418                	sb	a4,9(s0)
    39ba:	a408                	sb	a0,8(s0)
    39bc:	c95ff0ef          	jal	ra,3650 <ntohs>
    39c0:	8121                	srli	a0,a0,0x8
    39c2:	0542                	slli	a0,a0,0x10
    39c4:	8141                	srli	a0,a0,0x10
    39c6:	0522                	slli	a0,a0,0x8
    39c8:	01656533          	or	a0,a0,s6
    39cc:	0542                	slli	a0,a0,0x10
    39ce:	8141                	srli	a0,a0,0x10
    39d0:	c73ff0ef          	jal	ra,3642 <htons>
    39d4:	3098                	lbu	a4,1(s1)
    39d6:	209c                	lbu	a5,0(s1)
    39d8:	a408                	sb	a0,8(s0)
    39da:	0722                	slli	a4,a4,0x8
    39dc:	8f5d                	or	a4,a4,a5
    39de:	20bc                	lbu	a5,2(s1)
    39e0:	8121                	srli	a0,a0,0x8
    39e2:	b408                	sb	a0,9(s0)
    39e4:	07c2                	slli	a5,a5,0x10
    39e6:	8f5d                	or	a4,a4,a5
    39e8:	30bc                	lbu	a5,3(s1)
    39ea:	6511                	lui	a0,0x4
    39ec:	50050513          	addi	a0,a0,1280 # 4500 <mem_free+0x14>
    39f0:	07e2                	slli	a5,a5,0x18
    39f2:	8fd9                	or	a5,a5,a4
    39f4:	0087d713          	srli	a4,a5,0x8
    39f8:	a81c                	sb	a5,16(s0)
    39fa:	b818                	sb	a4,17(s0)
    39fc:	0107d713          	srli	a4,a5,0x10
    3a00:	83e1                	srli	a5,a5,0x18
    3a02:	b83c                	sb	a5,19(s0)
    3a04:	a838                	sb	a4,18(s0)
    3a06:	00aa6533          	or	a0,s4,a0
    3a0a:	c39ff0ef          	jal	ra,3642 <htons>
    3a0e:	a008                	sb	a0,0(s0)
    3a10:	8121                	srli	a0,a0,0x8
    3a12:	b008                	sb	a0,1(s0)
    3a14:	0089d503          	lhu	a0,8(s3)
    3a18:	8c818a13          	addi	s4,gp,-1848 # 200002e8 <ip_id.2947>
    3a1c:	c27ff0ef          	jal	ra,3642 <htons>
    3a20:	a028                	sb	a0,2(s0)
    3a22:	8121                	srli	a0,a0,0x8
    3a24:	b028                	sb	a0,3(s0)
    3a26:	000a5503          	lhu	a0,0(s4)
    3a2a:	00040323          	sb	zero,6(s0)
    3a2e:	000403a3          	sb	zero,7(s0)
    3a32:	c11ff0ef          	jal	ra,3642 <htons>
    3a36:	000a5783          	lhu	a5,0(s4)
    3a3a:	a048                	sb	a0,4(s0)
    3a3c:	8121                	srli	a0,a0,0x8
    3a3e:	0785                	addi	a5,a5,1
    3a40:	b048                	sb	a0,5(s0)
    3a42:	00fa1023          	sh	a5,0(s4)
    3a46:	020a8163          	beqz	s5,3a68 <ip_output_if+0xf4>
    3a4a:	001ac703          	lbu	a4,1(s5)
    3a4e:	000ac783          	lbu	a5,0(s5)
    3a52:	0722                	slli	a4,a4,0x8
    3a54:	8f5d                	or	a4,a4,a5
    3a56:	002ac783          	lbu	a5,2(s5)
    3a5a:	07c2                	slli	a5,a5,0x10
    3a5c:	8f5d                	or	a4,a4,a5
    3a5e:	003ac783          	lbu	a5,3(s5)
    3a62:	07e2                	slli	a5,a5,0x18
    3a64:	8fd9                	or	a5,a5,a4
    3a66:	e799                	bnez	a5,3a74 <ip_output_if+0x100>
    3a68:	00490713          	addi	a4,s2,4
    3a6c:	4781                	li	a5,0
    3a6e:	c319                	beqz	a4,3a74 <ip_output_if+0x100>
    3a70:	00492783          	lw	a5,4(s2)
    3a74:	0087d713          	srli	a4,a5,0x8
    3a78:	a45c                	sb	a5,12(s0)
    3a7a:	b458                	sb	a4,13(s0)
    3a7c:	0107d713          	srli	a4,a5,0x10
    3a80:	83e1                	srli	a5,a5,0x18
    3a82:	a478                	sb	a4,14(s0)
    3a84:	b47c                	sb	a5,15(s0)
    3a86:	00040523          	sb	zero,10(s0)
    3a8a:	000405a3          	sb	zero,11(s0)
    3a8e:	45d1                	li	a1,20
    3a90:	8522                	mv	a0,s0
    3a92:	180040ef          	jal	ra,7c12 <inet_chksum>
    3a96:	a428                	sb	a0,10(s0)
    3a98:	8121                	srli	a0,a0,0x8
    3a9a:	b428                	sb	a0,11(s0)
    3a9c:	03095783          	lhu	a5,48(s2)
    3aa0:	c385                	beqz	a5,3ac0 <ip_output_if+0x14c>
    3aa2:	0089d703          	lhu	a4,8(s3)
    3aa6:	00e7fd63          	bgeu	a5,a4,3ac0 <ip_output_if+0x14c>
    3aaa:	8626                	mv	a2,s1
    3aac:	85ca                	mv	a1,s2
    3aae:	854e                	mv	a0,s3
    3ab0:	29ad                	jal	3f2a <ip_frag>
    3ab2:	872a                	mv	a4,a0
    3ab4:	853a                	mv	a0,a4
    3ab6:	f4afc06f          	j	200 <__riscv_restore_10>
    3aba:	4144                	lw	s1,4(a0)
    3abc:	04c1                	addi	s1,s1,16
    3abe:	bff9                	j	3a9c <ip_output_if+0x128>
    3ac0:	01492783          	lw	a5,20(s2)
    3ac4:	8626                	mv	a2,s1
    3ac6:	85ce                	mv	a1,s3
    3ac8:	854a                	mv	a0,s2
    3aca:	9782                	jalr	a5
    3acc:	b7dd                	j	3ab2 <ip_output_if+0x13e>

00003ace <ip_output>:
ip_output():
    3ace:	f22fc2ef          	jal	t0,1f0 <__riscv_save_0>
    3ad2:	1101                	addi	sp,sp,-32
    3ad4:	842a                	mv	s0,a0
    3ad6:	8532                	mv	a0,a2
    3ad8:	ce2e                	sw	a1,28(sp)
    3ada:	cc36                	sw	a3,24(sp)
    3adc:	ca3a                	sw	a4,20(sp)
    3ade:	c83e                	sw	a5,16(sp)
    3ae0:	c632                	sw	a2,12(sp)
    3ae2:	badff0ef          	jal	ra,368e <ip_route>
    3ae6:	cd09                	beqz	a0,3b00 <ip_output+0x32>
    3ae8:	47c2                	lw	a5,16(sp)
    3aea:	4752                	lw	a4,20(sp)
    3aec:	46e2                	lw	a3,24(sp)
    3aee:	4632                	lw	a2,12(sp)
    3af0:	45f2                	lw	a1,28(sp)
    3af2:	882a                	mv	a6,a0
    3af4:	8522                	mv	a0,s0
    3af6:	e7fff0ef          	jal	ra,3974 <ip_output_if>
    3afa:	6105                	addi	sp,sp,32
    3afc:	f18fc06f          	j	214 <__riscv_restore_0>
    3b00:	5571                	li	a0,-4
    3b02:	bfe5                	j	3afa <ip_output+0x2c>

00003b04 <ip_addr_isbroadcast>:
ip_addr_isbroadcast():
    3b04:	3118                	lbu	a4,1(a0)
    3b06:	211c                	lbu	a5,0(a0)
    3b08:	0722                	slli	a4,a4,0x8
    3b0a:	8f5d                	or	a4,a4,a5
    3b0c:	213c                	lbu	a5,2(a0)
    3b0e:	07c2                	slli	a5,a5,0x10
    3b10:	8f5d                	or	a4,a4,a5
    3b12:	313c                	lbu	a5,3(a0)
    3b14:	07e2                	slli	a5,a5,0x18
    3b16:	8fd9                	or	a5,a5,a4
    3b18:	fff78693          	addi	a3,a5,-1
    3b1c:	5775                	li	a4,-3
    3b1e:	02d76663          	bltu	a4,a3,3b4a <ip_addr_isbroadcast+0x46>
    3b22:	0325c703          	lbu	a4,50(a1)
    3b26:	4501                	li	a0,0
    3b28:	8b09                	andi	a4,a4,2
    3b2a:	c30d                	beqz	a4,3b4c <ip_addr_isbroadcast+0x48>
    3b2c:	41d8                	lw	a4,4(a1)
    3b2e:	00f70f63          	beq	a4,a5,3b4c <ip_addr_isbroadcast+0x48>
    3b32:	4594                	lw	a3,8(a1)
    3b34:	8f3d                	xor	a4,a4,a5
    3b36:	8f75                	and	a4,a4,a3
    3b38:	eb11                	bnez	a4,3b4c <ip_addr_isbroadcast+0x48>
    3b3a:	fff6c513          	not	a0,a3
    3b3e:	8fe9                	and	a5,a5,a0
    3b40:	40a78533          	sub	a0,a5,a0
    3b44:	00153513          	seqz	a0,a0
    3b48:	8082                	ret
    3b4a:	4505                	li	a0,1
    3b4c:	8082                	ret

00003b4e <ip_reass>:
ip_reass():
    3b4e:	e7afc2ef          	jal	t0,1c8 <__riscv_save_10>
    3b52:	4144                	lw	s1,4(a0)
    3b54:	892a                	mv	s2,a0
    3b56:	309c                	lbu	a5,1(s1)
    3b58:	2088                	lbu	a0,0(s1)
    3b5a:	07a2                	slli	a5,a5,0x8
    3b5c:	8d5d                	or	a0,a0,a5
    3b5e:	af3ff0ef          	jal	ra,3650 <ntohs>
    3b62:	8119                	srli	a0,a0,0x6
    3b64:	03c57513          	andi	a0,a0,60
    3b68:	47d1                	li	a5,20
    3b6a:	26f51263          	bne	a0,a5,3dce <ip_reass+0x280>
    3b6e:	30fc                	lbu	a5,7(s1)
    3b70:	20e8                	lbu	a0,6(s1)
    3b72:	07a2                	slli	a5,a5,0x8
    3b74:	8d5d                	or	a0,a0,a5
    3b76:	adbff0ef          	jal	ra,3650 <ntohs>
    3b7a:	30bc                	lbu	a5,3(s1)
    3b7c:	8b2a                	mv	s6,a0
    3b7e:	20a8                	lbu	a0,2(s1)
    3b80:	07a2                	slli	a5,a5,0x8
    3b82:	8d5d                	or	a0,a0,a5
    3b84:	acdff0ef          	jal	ra,3650 <ntohs>
    3b88:	309c                	lbu	a5,1(s1)
    3b8a:	8caa                	mv	s9,a0
    3b8c:	2088                	lbu	a0,0(s1)
    3b8e:	07a2                	slli	a5,a5,0x8
    3b90:	8d5d                	or	a0,a0,a5
    3b92:	abfff0ef          	jal	ra,3650 <ntohs>
    3b96:	8c2a                	mv	s8,a0
    3b98:	854a                	mv	a0,s2
    3b9a:	799000ef          	jal	ra,4b32 <pbuf_clen>
    3b9e:	200067b7          	lui	a5,0x20006
    3ba2:	7207a783          	lw	a5,1824(a5) # 20006720 <WCHCfg+0x10>
    3ba6:	8ca1d703          	lhu	a4,-1846(gp) # 200002ea <ip_reass_pbufcount>
    3baa:	8d2a                	mv	s10,a0
    3bac:	838d                	srli	a5,a5,0x3
    3bae:	972a                	add	a4,a4,a0
    3bb0:	8bfd                	andi	a5,a5,31
    3bb2:	8ca18993          	addi	s3,gp,-1846 # 200002ea <ip_reass_pbufcount>
    3bb6:	20e7ec63          	bltu	a5,a4,3dce <ip_reass+0x280>
    3bba:	8cc1a403          	lw	s0,-1844(gp) # 200002ec <reassdatagrams>
    3bbe:	4a81                	li	s5,0
    3bc0:	8cc18a13          	addi	s4,gp,-1844 # 200002ec <reassdatagrams>
    3bc4:	e81d                	bnez	s0,3bfa <ip_reass+0xac>
    3bc6:	4515                	li	a0,5
    3bc8:	393000ef          	jal	ra,475a <memp_malloc>
    3bcc:	842a                	mv	s0,a0
    3bce:	20050063          	beqz	a0,3dce <ip_reass+0x280>
    3bd2:	4671                	li	a2,28
    3bd4:	4581                	li	a1,0
    3bd6:	00440513          	addi	a0,s0,4
    3bda:	e46fc0ef          	jal	ra,220 <memset>
    3bde:	478d                	li	a5,3
    3be0:	bc7c                	sb	a5,31(s0)
    3be2:	000a2783          	lw	a5,0(s4)
    3be6:	008a2023          	sw	s0,0(s4)
    3bea:	c01c                	sw	a5,0(s0)
    3bec:	4651                	li	a2,20
    3bee:	85a6                	mv	a1,s1
    3bf0:	00840513          	addi	a0,s0,8
    3bf4:	6cc040ef          	jal	ra,82c0 <memcpy>
    3bf8:	ac95                	j	3e6c <ip_reass+0x31e>
    3bfa:	34d8                	lbu	a4,13(s1)
    3bfc:	24dc                	lbu	a5,12(s1)
    3bfe:	0722                	slli	a4,a4,0x8
    3c00:	8f5d                	or	a4,a4,a5
    3c02:	24fc                	lbu	a5,14(s1)
    3c04:	07c2                	slli	a5,a5,0x10
    3c06:	8f5d                	or	a4,a4,a5
    3c08:	34fc                	lbu	a5,15(s1)
    3c0a:	07e2                	slli	a5,a5,0x18
    3c0c:	8fd9                	or	a5,a5,a4
    3c0e:	4858                	lw	a4,20(s0)
    3c10:	02f71663          	bne	a4,a5,3c3c <ip_reass+0xee>
    3c14:	3898                	lbu	a4,17(s1)
    3c16:	289c                	lbu	a5,16(s1)
    3c18:	0722                	slli	a4,a4,0x8
    3c1a:	8f5d                	or	a4,a4,a5
    3c1c:	28bc                	lbu	a5,18(s1)
    3c1e:	07c2                	slli	a5,a5,0x10
    3c20:	8f5d                	or	a4,a4,a5
    3c22:	38bc                	lbu	a5,19(s1)
    3c24:	07e2                	slli	a5,a5,0x18
    3c26:	8fd9                	or	a5,a5,a4
    3c28:	4c18                	lw	a4,24(s0)
    3c2a:	00f71963          	bne	a4,a5,3c3c <ip_reass+0xee>
    3c2e:	30dc                	lbu	a5,5(s1)
    3c30:	20d4                	lbu	a3,4(s1)
    3c32:	245a                	lhu	a4,12(s0)
    3c34:	07a2                	slli	a5,a5,0x8
    3c36:	8fd5                	or	a5,a5,a3
    3c38:	20f70663          	beq	a4,a5,3e44 <ip_reass+0x2f6>
    3c3c:	8aa2                	mv	s5,s0
    3c3e:	4000                	lw	s0,0(s0)
    3c40:	b751                	j	3bc4 <ip_reass+0x76>
    3c42:	42cc                	lw	a1,4(a3)
    3c44:	0055c803          	lbu	a6,5(a1)
    3c48:	0045c303          	lbu	t1,4(a1)
    3c4c:	0822                	slli	a6,a6,0x8
    3c4e:	00686833          	or	a6,a6,t1
    3c52:	0d067c63          	bgeu	a2,a6,3d2a <ip_reass+0x1dc>
    3c56:	0086d593          	srli	a1,a3,0x8
    3c5a:	a394                	sb	a3,0(a5)
    3c5c:	b38c                	sb	a1,1(a5)
    3c5e:	0106d593          	srli	a1,a3,0x10
    3c62:	82e1                	srli	a3,a3,0x18
    3c64:	a3ac                	sb	a1,2(a5)
    3c66:	b3b4                	sb	a3,3(a5)
    3c68:	2a070e63          	beqz	a4,3f24 <ip_reass+0x3d6>
    3c6c:	3374                	lbu	a3,7(a4)
    3c6e:	236c                	lbu	a1,6(a4)
    3c70:	06a2                	slli	a3,a3,0x8
    3c72:	8ecd                	or	a3,a3,a1
    3c74:	14d66463          	bltu	a2,a3,3dbc <ip_reass+0x26e>
    3c78:	14a86263          	bltu	a6,a0,3dbc <ip_reass+0x26e>
    3c7c:	00895693          	srli	a3,s2,0x8
    3c80:	01270023          	sb	s2,0(a4)
    3c84:	b314                	sb	a3,1(a4)
    3c86:	01095693          	srli	a3,s2,0x10
    3c8a:	01895913          	srli	s2,s2,0x18
    3c8e:	a334                	sb	a3,2(a4)
    3c90:	012701a3          	sb	s2,3(a4)
    3c94:	2c78                	lbu	a4,30(s0)
    3c96:	4b01                	li	s6,0
    3c98:	8b05                	andi	a4,a4,1
    3c9a:	18070f63          	beqz	a4,3e38 <ip_reass+0x2ea>
    3c9e:	18088d63          	beqz	a7,3e38 <ip_reass+0x2ea>
    3ca2:	4058                	lw	a4,4(s0)
    3ca4:	4344                	lw	s1,4(a4)
    3ca6:	30d8                	lbu	a4,5(s1)
    3ca8:	20d4                	lbu	a3,4(s1)
    3caa:	0722                	slli	a4,a4,0x8
    3cac:	8f55                	or	a4,a4,a3
    3cae:	18071563          	bnez	a4,3e38 <ip_reass+0x2ea>
    3cb2:	3394                	lbu	a3,1(a5)
    3cb4:	2398                	lbu	a4,0(a5)
    3cb6:	06a2                	slli	a3,a3,0x8
    3cb8:	8ed9                	or	a3,a3,a4
    3cba:	23b8                	lbu	a4,2(a5)
    3cbc:	0742                	slli	a4,a4,0x10
    3cbe:	8ed9                	or	a3,a3,a4
    3cc0:	33b8                	lbu	a4,3(a5)
    3cc2:	0762                	slli	a4,a4,0x18
    3cc4:	8f55                	or	a4,a4,a3
    3cc6:	e761                	bnez	a4,3d8e <ip_reass+0x240>
    3cc8:	2c5e                	lhu	a5,28(s0)
    3cca:	0004c903          	lbu	s2,0(s1)
    3cce:	4651                	li	a2,20
    3cd0:	07d1                	addi	a5,a5,20
    3cd2:	ac5e                	sh	a5,28(s0)
    3cd4:	309c                	lbu	a5,1(s1)
    3cd6:	00840593          	addi	a1,s0,8
    3cda:	8526                	mv	a0,s1
    3cdc:	07a2                	slli	a5,a5,0x8
    3cde:	0127e7b3          	or	a5,a5,s2
    3ce2:	0024c903          	lbu	s2,2(s1)
    3ce6:	0942                	slli	s2,s2,0x10
    3ce8:	00f967b3          	or	a5,s2,a5
    3cec:	0034c903          	lbu	s2,3(s1)
    3cf0:	0962                	slli	s2,s2,0x18
    3cf2:	00f96933          	or	s2,s2,a5
    3cf6:	5ca040ef          	jal	ra,82c0 <memcpy>
    3cfa:	2c4a                	lhu	a0,28(s0)
    3cfc:	947ff0ef          	jal	ra,3642 <htons>
    3d00:	a0a8                	sb	a0,2(s1)
    3d02:	8121                	srli	a0,a0,0x8
    3d04:	b0a8                	sb	a0,3(s1)
    3d06:	00048323          	sb	zero,6(s1)
    3d0a:	000483a3          	sb	zero,7(s1)
    3d0e:	00048523          	sb	zero,10(s1)
    3d12:	000485a3          	sb	zero,11(s1)
    3d16:	45d1                	li	a1,20
    3d18:	8526                	mv	a0,s1
    3d1a:	6f9030ef          	jal	ra,7c12 <inet_chksum>
    3d1e:	a4a8                	sb	a0,10(s1)
    3d20:	8121                	srli	a0,a0,0x8
    3d22:	b4a8                	sb	a0,11(s1)
    3d24:	00442b03          	lw	s6,4(s0)
    3d28:	a0d5                	j	3e0c <ip_reass+0x2be>
    3d2a:	09060963          	beq	a2,a6,3dbc <ip_reass+0x26e>
    3d2e:	31f4                	lbu	a3,7(a1)
    3d30:	0065c303          	lbu	t1,6(a1)
    3d34:	06a2                	slli	a3,a3,0x8
    3d36:	0066e6b3          	or	a3,a3,t1
    3d3a:	08d66163          	bltu	a2,a3,3dbc <ip_reass+0x26e>
    3d3e:	cb01                	beqz	a4,3d4e <ip_reass+0x200>
    3d40:	2374                	lbu	a3,6(a4)
    3d42:	3378                	lbu	a4,7(a4)
    3d44:	0722                	slli	a4,a4,0x8
    3d46:	8f55                	or	a4,a4,a3
    3d48:	00e80363          	beq	a6,a4,3d4e <ip_reass+0x200>
    3d4c:	4881                	li	a7,0
    3d4e:	3198                	lbu	a4,1(a1)
    3d50:	2194                	lbu	a3,0(a1)
    3d52:	0722                	slli	a4,a4,0x8
    3d54:	8f55                	or	a4,a4,a3
    3d56:	21b4                	lbu	a3,2(a1)
    3d58:	06c2                	slli	a3,a3,0x10
    3d5a:	8f55                	or	a4,a4,a3
    3d5c:	31b4                	lbu	a3,3(a1)
    3d5e:	06e2                	slli	a3,a3,0x18
    3d60:	8ed9                	or	a3,a3,a4
    3d62:	872e                	mv	a4,a1
    3d64:	aa65                	j	3f1c <ip_reass+0x3ce>
    3d66:	00895693          	srli	a3,s2,0x8
    3d6a:	01270023          	sb	s2,0(a4)
    3d6e:	b314                	sb	a3,1(a4)
    3d70:	01095693          	srli	a3,s2,0x10
    3d74:	01895913          	srli	s2,s2,0x18
    3d78:	a334                	sb	a3,2(a4)
    3d7a:	012701a3          	sb	s2,3(a4)
    3d7e:	2374                	lbu	a3,6(a4)
    3d80:	3378                	lbu	a4,7(a4)
    3d82:	0722                	slli	a4,a4,0x8
    3d84:	8f55                	or	a4,a4,a3
    3d86:	f0e607e3          	beq	a2,a4,3c94 <ip_reass+0x146>
    3d8a:	4881                	li	a7,0
    3d8c:	b721                	j	3c94 <ip_reass+0x146>
    3d8e:	4354                	lw	a3,4(a4)
    3d90:	23ec                	lbu	a1,6(a5)
    3d92:	33f8                	lbu	a4,7(a5)
    3d94:	32dc                	lbu	a5,5(a3)
    3d96:	22d0                	lbu	a2,4(a3)
    3d98:	0722                	slli	a4,a4,0x8
    3d9a:	07a2                	slli	a5,a5,0x8
    3d9c:	8f4d                	or	a4,a4,a1
    3d9e:	8fd1                	or	a5,a5,a2
    3da0:	02f71a63          	bne	a4,a5,3dd4 <ip_reass+0x286>
    3da4:	329c                	lbu	a5,1(a3)
    3da6:	2298                	lbu	a4,0(a3)
    3da8:	07a2                	slli	a5,a5,0x8
    3daa:	8fd9                	or	a5,a5,a4
    3dac:	22b8                	lbu	a4,2(a3)
    3dae:	0742                	slli	a4,a4,0x10
    3db0:	8fd9                	or	a5,a5,a4
    3db2:	32b8                	lbu	a4,3(a3)
    3db4:	0762                	slli	a4,a4,0x18
    3db6:	8f5d                	or	a4,a4,a5
    3db8:	87b6                	mv	a5,a3
    3dba:	b731                	j	3cc6 <ip_reass+0x178>
    3dbc:	854a                	mv	a0,s2
    3dbe:	575000ef          	jal	ra,4b32 <pbuf_clen>
    3dc2:	0009d783          	lhu	a5,0(s3)
    3dc6:	40a78533          	sub	a0,a5,a0
    3dca:	00a99023          	sh	a0,0(s3)
    3dce:	854a                	mv	a0,s2
    3dd0:	37d000ef          	jal	ra,494c <pbuf_free>
    3dd4:	4b01                	li	s6,0
    3dd6:	a08d                	j	3e38 <ip_reass+0x2ea>
    3dd8:	55b1                	li	a1,-20
    3dda:	854a                	mv	a0,s2
    3ddc:	00492483          	lw	s1,4(s2)
    3de0:	2ff000ef          	jal	ra,48de <pbuf_header>
    3de4:	85ca                	mv	a1,s2
    3de6:	855a                	mv	a0,s6
    3de8:	567000ef          	jal	ra,4b4e <pbuf_cat>
    3dec:	309c                	lbu	a5,1(s1)
    3dee:	0004c903          	lbu	s2,0(s1)
    3df2:	07a2                	slli	a5,a5,0x8
    3df4:	0127e7b3          	or	a5,a5,s2
    3df8:	0024c903          	lbu	s2,2(s1)
    3dfc:	0942                	slli	s2,s2,0x10
    3dfe:	00f967b3          	or	a5,s2,a5
    3e02:	0034c903          	lbu	s2,3(s1)
    3e06:	0962                	slli	s2,s2,0x18
    3e08:	00f96933          	or	s2,s2,a5
    3e0c:	fc0916e3          	bnez	s2,3dd8 <ip_reass+0x28a>
    3e10:	000a2703          	lw	a4,0(s4)
    3e14:	401c                	lw	a5,0(s0)
    3e16:	02e41463          	bne	s0,a4,3e3e <ip_reass+0x2f0>
    3e1a:	00fa2023          	sw	a5,0(s4)
    3e1e:	85a2                	mv	a1,s0
    3e20:	4515                	li	a0,5
    3e22:	159000ef          	jal	ra,477a <memp_free>
    3e26:	855a                	mv	a0,s6
    3e28:	50b000ef          	jal	ra,4b32 <pbuf_clen>
    3e2c:	0009d783          	lhu	a5,0(s3)
    3e30:	40a78533          	sub	a0,a5,a0
    3e34:	00a99023          	sh	a0,0(s3)
    3e38:	855a                	mv	a0,s6
    3e3a:	bc6fc06f          	j	200 <__riscv_restore_10>
    3e3e:	00faa023          	sw	a5,0(s5)
    3e42:	bff1                	j	3e1e <ip_reass+0x2d0>
    3e44:	30fc                	lbu	a5,7(s1)
    3e46:	20e8                	lbu	a0,6(s1)
    3e48:	6b89                	lui	s7,0x2
    3e4a:	07a2                	slli	a5,a5,0x8
    3e4c:	8d5d                	or	a0,a0,a5
    3e4e:	803ff0ef          	jal	ra,3650 <ntohs>
    3e52:	1bfd                	addi	s7,s7,-1
    3e54:	01757533          	and	a0,a0,s7
    3e58:	0542                	slli	a0,a0,0x10
    3e5a:	8141                	srli	a0,a0,0x10
    3e5c:	e901                	bnez	a0,3e6c <ip_reass+0x31e>
    3e5e:	246a                	lhu	a0,14(s0)
    3e60:	ff0ff0ef          	jal	ra,3650 <ntohs>
    3e64:	01757533          	and	a0,a0,s7
    3e68:	d80512e3          	bnez	a0,3bec <ip_reass+0x9e>
    3e6c:	0009d783          	lhu	a5,0(s3)
    3e70:	9d3e                	add	s10,s10,a5
    3e72:	01a99023          	sh	s10,0(s3)
    3e76:	30fc                	lbu	a5,7(s1)
    3e78:	20e8                	lbu	a0,6(s1)
    3e7a:	07a2                	slli	a5,a5,0x8
    3e7c:	8d5d                	or	a0,a0,a5
    3e7e:	fd2ff0ef          	jal	ra,3650 <ntohs>
    3e82:	01251793          	slli	a5,a0,0x12
    3e86:	0207c263          	bltz	a5,3eaa <ip_reass+0x35c>
    3e8a:	013b1513          	slli	a0,s6,0x13
    3e8e:	2c7c                	lbu	a5,30(s0)
    3e90:	814d                	srli	a0,a0,0x13
    3e92:	050e                	slli	a0,a0,0x3
    3e94:	006c5c13          	srli	s8,s8,0x6
    3e98:	9566                	add	a0,a0,s9
    3e9a:	03cc7c13          	andi	s8,s8,60
    3e9e:	0017e793          	ori	a5,a5,1
    3ea2:	41850533          	sub	a0,a0,s8
    3ea6:	ac7c                	sb	a5,30(s0)
    3ea8:	ac4a                	sh	a0,28(s0)
    3eaa:	00492483          	lw	s1,4(s2)
    3eae:	30bc                	lbu	a5,3(s1)
    3eb0:	20a8                	lbu	a0,2(s1)
    3eb2:	07a2                	slli	a5,a5,0x8
    3eb4:	8d5d                	or	a0,a0,a5
    3eb6:	f9aff0ef          	jal	ra,3650 <ntohs>
    3eba:	309c                	lbu	a5,1(s1)
    3ebc:	8b2a                	mv	s6,a0
    3ebe:	2088                	lbu	a0,0(s1)
    3ec0:	07a2                	slli	a5,a5,0x8
    3ec2:	8d5d                	or	a0,a0,a5
    3ec4:	f8cff0ef          	jal	ra,3650 <ntohs>
    3ec8:	30fc                	lbu	a5,7(s1)
    3eca:	8baa                	mv	s7,a0
    3ecc:	20e8                	lbu	a0,6(s1)
    3ece:	07a2                	slli	a5,a5,0x8
    3ed0:	006bdb93          	srli	s7,s7,0x6
    3ed4:	8d5d                	or	a0,a0,a5
    3ed6:	f7aff0ef          	jal	ra,3650 <ntohs>
    3eda:	054e                	slli	a0,a0,0x13
    3edc:	814d                	srli	a0,a0,0x13
    3ede:	00351613          	slli	a2,a0,0x3
    3ee2:	00cb0533          	add	a0,s6,a2
    3ee6:	03cbfb13          	andi	s6,s7,60
    3eea:	00492783          	lw	a5,4(s2)
    3eee:	41650533          	sub	a0,a0,s6
    3ef2:	0542                	slli	a0,a0,0x10
    3ef4:	00865713          	srli	a4,a2,0x8
    3ef8:	8141                	srli	a0,a0,0x10
    3efa:	4054                	lw	a3,4(s0)
    3efc:	b3d8                	sb	a4,5(a5)
    3efe:	00855713          	srli	a4,a0,0x8
    3f02:	b3f8                	sb	a4,7(a5)
    3f04:	00078023          	sb	zero,0(a5)
    3f08:	000780a3          	sb	zero,1(a5)
    3f0c:	00078123          	sb	zero,2(a5)
    3f10:	000781a3          	sb	zero,3(a5)
    3f14:	a3d0                	sb	a2,4(a5)
    3f16:	a3e8                	sb	a0,6(a5)
    3f18:	4885                	li	a7,1
    3f1a:	4701                	li	a4,0
    3f1c:	d20693e3          	bnez	a3,3c42 <ip_reass+0xf4>
    3f20:	e40713e3          	bnez	a4,3d66 <ip_reass+0x218>
    3f24:	01242223          	sw	s2,4(s0)
    3f28:	b3b5                	j	3c94 <ip_reass+0x146>

00003f2a <ip_frag>:
ip_frag():
    3f2a:	a96fc2ef          	jal	t0,1c0 <__riscv_save_12>
    3f2e:	00452c03          	lw	s8,4(a0)
    3f32:	1101                	addi	sp,sp,-32
    3f34:	ca32                	sw	a2,20(sp)
    3f36:	007c4703          	lbu	a4,7(s8)
    3f3a:	8daa                	mv	s11,a0
    3f3c:	006c4503          	lbu	a0,6(s8)
    3f40:	0722                	slli	a4,a4,0x8
    3f42:	0305db83          	lhu	s7,48(a1)
    3f46:	8d59                	or	a0,a0,a4
    3f48:	8cae                	mv	s9,a1
    3f4a:	f06ff0ef          	jal	ra,3650 <ntohs>
    3f4e:	6689                	lui	a3,0x2
    3f50:	00d577b3          	and	a5,a0,a3
    3f54:	fecb8a13          	addi	s4,s7,-20 # 1fec <ETH_Configuration+0xc8>
    3f58:	46a1                	li	a3,8
    3f5a:	02da4a33          	div	s4,s4,a3
    3f5e:	008dd483          	lhu	s1,8(s11)
    3f62:	6709                	lui	a4,0x2
    3f64:	177d                	addi	a4,a4,-1
    3f66:	c63e                	sw	a5,12(sp)
    3f68:	00e57933          	and	s2,a0,a4
    3f6c:	14b1                	addi	s1,s1,-20
    3f6e:	0942                	slli	s2,s2,0x10
    3f70:	04c2                	slli	s1,s1,0x10
    3f72:	01095913          	srli	s2,s2,0x10
    3f76:	80c1                	srli	s1,s1,0x10
    3f78:	4401                	li	s0,0
    3f7a:	4d51                	li	s10,20
    3f7c:	cc3a                	sw	a4,24(sp)
    3f7e:	0a42                	slli	s4,s4,0x10
    3f80:	010a5a13          	srli	s4,s4,0x10
    3f84:	003a1693          	slli	a3,s4,0x3
    3f88:	01069793          	slli	a5,a3,0x10
    3f8c:	83c1                	srli	a5,a5,0x10
    3f8e:	c83e                	sw	a5,16(sp)
    3f90:	fedb8793          	addi	a5,s7,-19
    3f94:	ce3e                	sw	a5,28(sp)
    3f96:	e489                	bnez	s1,3fa0 <ip_frag+0x76>
    3f98:	4501                	li	a0,0
    3f9a:	6105                	addi	sp,sp,32
    3f9c:	a60fc06f          	j	1fc <__riscv_restore_12>
    3fa0:	47e2                	lw	a5,24(sp)
    3fa2:	8aa6                	mv	s5,s1
    3fa4:	00f97b33          	and	s6,s2,a5
    3fa8:	47b2                	lw	a5,12(sp)
    3faa:	0167eb33          	or	s6,a5,s6
    3fae:	47f2                	lw	a5,28(sp)
    3fb0:	00f4c663          	blt	s1,a5,3fbc <ip_frag+0x92>
    3fb4:	4ac2                	lw	s5,16(sp)
    3fb6:	6789                	lui	a5,0x2
    3fb8:	00fb6b33          	or	s6,s6,a5
    3fbc:	4601                	li	a2,0
    3fbe:	45d1                	li	a1,20
    3fc0:	4509                	li	a0,2
    3fc2:	1d9000ef          	jal	ra,499a <pbuf_alloc>
    3fc6:	89aa                	mv	s3,a0
    3fc8:	c939                	beqz	a0,401e <ip_frag+0xf4>
    3fca:	4148                	lw	a0,4(a0)
    3fcc:	4651                	li	a2,20
    3fce:	85e2                	mv	a1,s8
    3fd0:	2f0040ef          	jal	ra,82c0 <memcpy>
    3fd4:	004da603          	lw	a2,4(s11)
    3fd8:	0049ab83          	lw	s7,4(s3)
    3fdc:	966a                	add	a2,a2,s10
    3fde:	00cda223          	sw	a2,4(s11)
    3fe2:	00add603          	lhu	a2,10(s11)
    3fe6:	41a606b3          	sub	a3,a2,s10
    3fea:	00dd9523          	sh	a3,10(s11)
    3fee:	8d56                	mv	s10,s5
    3ff0:	040d0963          	beqz	s10,4042 <ip_frag+0x118>
    3ff4:	00add403          	lhu	s0,10(s11)
    3ff8:	008d7363          	bgeu	s10,s0,3ffe <ip_frag+0xd4>
    3ffc:	846a                	mv	s0,s10
    3ffe:	0442                	slli	s0,s0,0x10
    4000:	8041                	srli	s0,s0,0x10
    4002:	e401                	bnez	s0,400a <ip_frag+0xe0>
    4004:	000dad83          	lw	s11,0(s11)
    4008:	b7e5                	j	3ff0 <ip_frag+0xc6>
    400a:	4581                	li	a1,0
    400c:	4609                	li	a2,2
    400e:	450d                	li	a0,3
    4010:	18b000ef          	jal	ra,499a <pbuf_alloc>
    4014:	85aa                	mv	a1,a0
    4016:	e511                	bnez	a0,4022 <ip_frag+0xf8>
    4018:	854e                	mv	a0,s3
    401a:	133000ef          	jal	ra,494c <pbuf_free>
    401e:	557d                	li	a0,-1
    4020:	bfad                	j	3f9a <ip_frag+0x70>
    4022:	004da603          	lw	a2,4(s11)
    4026:	a502                	sh	s0,8(a0)
    4028:	a522                	sh	s0,10(a0)
    402a:	c150                	sw	a2,4(a0)
    402c:	854e                	mv	a0,s3
    402e:	321000ef          	jal	ra,4b4e <pbuf_cat>
    4032:	408d06b3          	sub	a3,s10,s0
    4036:	01069d13          	slli	s10,a3,0x10
    403a:	010d5d13          	srli	s10,s10,0x10
    403e:	fc0d13e3          	bnez	s10,4004 <ip_frag+0xda>
    4042:	855a                	mv	a0,s6
    4044:	dfeff0ef          	jal	ra,3642 <htons>
    4048:	00ab8323          	sb	a0,6(s7)
    404c:	8121                	srli	a0,a0,0x8
    404e:	00ab83a3          	sb	a0,7(s7)
    4052:	014a8513          	addi	a0,s5,20
    4056:	0542                	slli	a0,a0,0x10
    4058:	8141                	srli	a0,a0,0x10
    405a:	de8ff0ef          	jal	ra,3642 <htons>
    405e:	00ab8123          	sb	a0,2(s7)
    4062:	8121                	srli	a0,a0,0x8
    4064:	00ab81a3          	sb	a0,3(s7)
    4068:	45d1                	li	a1,20
    406a:	000b8523          	sb	zero,10(s7)
    406e:	000b85a3          	sb	zero,11(s7)
    4072:	855e                	mv	a0,s7
    4074:	39f030ef          	jal	ra,7c12 <inet_chksum>
    4078:	014ca703          	lw	a4,20(s9)
    407c:	4652                	lw	a2,20(sp)
    407e:	00ab8523          	sb	a0,10(s7)
    4082:	8121                	srli	a0,a0,0x8
    4084:	00ab85a3          	sb	a0,11(s7)
    4088:	85ce                	mv	a1,s3
    408a:	8566                	mv	a0,s9
    408c:	9702                	jalr	a4
    408e:	415484b3          	sub	s1,s1,s5
    4092:	9952                	add	s2,s2,s4
    4094:	854e                	mv	a0,s3
    4096:	04c2                	slli	s1,s1,0x10
    4098:	0942                	slli	s2,s2,0x10
    409a:	0b3000ef          	jal	ra,494c <pbuf_free>
    409e:	80c1                	srli	s1,s1,0x10
    40a0:	01095913          	srli	s2,s2,0x10
    40a4:	8d22                	mv	s10,s0
    40a6:	bdc5                	j	3f96 <ip_frag+0x6c>

000040a8 <dhcp_set_state>:
dhcp_set_state():
    40a8:	293c                	lbu	a5,18(a0)
    40aa:	00b78963          	beq	a5,a1,40bc <dhcp_set_state+0x14>
    40ae:	200067b7          	lui	a5,0x20006
    40b2:	a92c                	sb	a1,18(a0)
    40b4:	000509a3          	sb	zero,19(a0)
    40b8:	6407ac23          	sw	zero,1624(a5) # 20006658 <DHCPCtrl+0x4>
    40bc:	8082                	ret

000040be <dhcp_option>:
dhcp_option():
    40be:	2d5e                	lhu	a5,28(a0)
    40c0:	4d18                	lw	a4,24(a0)
    40c2:	00f706b3          	add	a3,a4,a5
    40c6:	0eb68823          	sb	a1,240(a3) # 20f0 <ETH_Init+0x6a>
    40ca:	00278693          	addi	a3,a5,2
    40ce:	0785                	addi	a5,a5,1
    40d0:	07c2                	slli	a5,a5,0x10
    40d2:	83c1                	srli	a5,a5,0x10
    40d4:	ad56                	sh	a3,28(a0)
    40d6:	97ba                	add	a5,a5,a4
    40d8:	0ec78823          	sb	a2,240(a5)
    40dc:	8082                	ret

000040de <dhcp_option_byte>:
dhcp_option_byte():
    40de:	2d5a                	lhu	a4,28(a0)
    40e0:	4d1c                	lw	a5,24(a0)
    40e2:	00170693          	addi	a3,a4,1 # 2001 <ETH_Configuration+0xdd>
    40e6:	ad56                	sh	a3,28(a0)
    40e8:	97ba                	add	a5,a5,a4
    40ea:	0eb78823          	sb	a1,240(a5)
    40ee:	8082                	ret

000040f0 <dhcp_option_long>:
dhcp_option_long():
    40f0:	2d5e                	lhu	a5,28(a0)
    40f2:	4d18                	lw	a4,24(a0)
    40f4:	0185d613          	srli	a2,a1,0x18
    40f8:	00f706b3          	add	a3,a4,a5
    40fc:	0ec68823          	sb	a2,240(a3)
    4100:	00178693          	addi	a3,a5,1
    4104:	06c2                	slli	a3,a3,0x10
    4106:	82c1                	srli	a3,a3,0x10
    4108:	96ba                	add	a3,a3,a4
    410a:	0105d613          	srli	a2,a1,0x10
    410e:	0ec68823          	sb	a2,240(a3)
    4112:	00278693          	addi	a3,a5,2
    4116:	06c2                	slli	a3,a3,0x10
    4118:	82c1                	srli	a3,a3,0x10
    411a:	96ba                	add	a3,a3,a4
    411c:	0085d613          	srli	a2,a1,0x8
    4120:	0ec68823          	sb	a2,240(a3)
    4124:	00478693          	addi	a3,a5,4
    4128:	078d                	addi	a5,a5,3
    412a:	07c2                	slli	a5,a5,0x10
    412c:	83c1                	srli	a5,a5,0x10
    412e:	ad56                	sh	a3,28(a0)
    4130:	97ba                	add	a5,a5,a4
    4132:	0eb78823          	sb	a1,240(a5)
    4136:	8082                	ret

00004138 <dhcp_option_trailer>:
dhcp_option_trailer():
    4138:	c115                	beqz	a0,415c <dhcp_option_trailer+0x24>
    413a:	2d5e                	lhu	a5,28(a0)
    413c:	4d18                	lw	a4,24(a0)
    413e:	04300613          	li	a2,67
    4142:	00178693          	addi	a3,a5,1
    4146:	ad56                	sh	a3,28(a0)
    4148:	97ba                	add	a5,a5,a4
    414a:	56fd                	li	a3,-1
    414c:	0ed78823          	sb	a3,240(a5)
    4150:	2d5e                	lhu	a5,28(a0)
    4152:	00f67663          	bgeu	a2,a5,415e <dhcp_option_trailer+0x26>
    4156:	0037f693          	andi	a3,a5,3
    415a:	e291                	bnez	a3,415e <dhcp_option_trailer+0x26>
    415c:	8082                	ret
    415e:	00178693          	addi	a3,a5,1
    4162:	ad56                	sh	a3,28(a0)
    4164:	97ba                	add	a5,a5,a4
    4166:	0e078823          	sb	zero,240(a5)
    416a:	b7dd                	j	4150 <dhcp_option_trailer+0x18>

0000416c <dhcp_create_request>:
dhcp_create_request():
    416c:	18050263          	beqz	a0,42f0 <dhcp_create_request+0x184>
    4170:	880fc2ef          	jal	t0,1f0 <__riscv_save_0>
    4174:	5104                	lw	s1,32(a0)
    4176:	57dd                	li	a5,-9
    4178:	16048963          	beqz	s1,42ea <dhcp_create_request+0x17e>
    417c:	892a                	mv	s2,a0
    417e:	4601                	li	a2,0
    4180:	13400593          	li	a1,308
    4184:	4501                	li	a0,0
    4186:	015000ef          	jal	ra,499a <pbuf_alloc>
    418a:	c8c8                	sw	a0,20(s1)
    418c:	872a                	mv	a4,a0
    418e:	57fd                	li	a5,-1
    4190:	14050d63          	beqz	a0,42ea <dhcp_create_request+0x17e>
    4194:	38bc                	lbu	a5,19(s1)
    4196:	ef99                	bnez	a5,41b4 <dhcp_create_request+0x48>
    4198:	28bc                	lbu	a5,18(s1)
    419a:	4605                	li	a2,1
    419c:	00c78c63          	beq	a5,a2,41b4 <dhcp_create_request+0x48>
    41a0:	17f1                	addi	a5,a5,-4
    41a2:	0ff7f793          	andi	a5,a5,255
    41a6:	00f67763          	bgeu	a2,a5,41b4 <dhcp_create_request+0x48>
    41aa:	82c1a783          	lw	a5,-2004(gp) # 2000024c <DHCPXid>
    41ae:	0785                	addi	a5,a5,1
    41b0:	82f1a623          	sw	a5,-2004(gp) # 2000024c <DHCPXid>
    41b4:	4340                	lw	s0,4(a4)
    41b6:	82c1a503          	lw	a0,-2004(gp) # 2000024c <DHCPXid>
    41ba:	4785                	li	a5,1
    41bc:	cc80                	sw	s0,24(s1)
    41be:	c088                	sw	a0,0(s1)
    41c0:	a01c                	sb	a5,0(s0)
    41c2:	b01c                	sb	a5,1(s0)
    41c4:	4799                	li	a5,6
    41c6:	a03c                	sb	a5,2(s0)
    41c8:	000401a3          	sb	zero,3(s0)
    41cc:	c92ff0ef          	jal	ra,365e <htonl>
    41d0:	00855793          	srli	a5,a0,0x8
    41d4:	a048                	sb	a0,4(s0)
    41d6:	b05c                	sb	a5,5(s0)
    41d8:	01055793          	srli	a5,a0,0x10
    41dc:	8161                	srli	a0,a0,0x18
    41de:	a07c                	sb	a5,6(s0)
    41e0:	b068                	sb	a0,7(s0)
    41e2:	4c80                	lw	s0,24(s1)
    41e4:	4729                	li	a4,10
    41e6:	00040423          	sb	zero,8(s0)
    41ea:	000404a3          	sb	zero,9(s0)
    41ee:	00040523          	sb	zero,10(s0)
    41f2:	000405a3          	sb	zero,11(s0)
    41f6:	00040623          	sb	zero,12(s0)
    41fa:	000406a3          	sb	zero,13(s0)
    41fe:	00040723          	sb	zero,14(s0)
    4202:	000407a3          	sb	zero,15(s0)
    4206:	28bc                	lbu	a5,18(s1)
    4208:	00e78863          	beq	a5,a4,4218 <dhcp_create_request+0xac>
    420c:	17f1                	addi	a5,a5,-4
    420e:	0ff7f793          	andi	a5,a5,255
    4212:	4705                	li	a4,1
    4214:	00f76e63          	bltu	a4,a5,4230 <dhcp_create_request+0xc4>
    4218:	00494783          	lbu	a5,4(s2)
    421c:	a45c                	sb	a5,12(s0)
    421e:	00594783          	lbu	a5,5(s2)
    4222:	b45c                	sb	a5,13(s0)
    4224:	00694783          	lbu	a5,6(s2)
    4228:	a47c                	sb	a5,14(s0)
    422a:	00794783          	lbu	a5,7(s2)
    422e:	b47c                	sb	a5,15(s0)
    4230:	00040823          	sb	zero,16(s0)
    4234:	000408a3          	sb	zero,17(s0)
    4238:	00040923          	sb	zero,18(s0)
    423c:	000409a3          	sb	zero,19(s0)
    4240:	00040a23          	sb	zero,20(s0)
    4244:	00040aa3          	sb	zero,21(s0)
    4248:	00040b23          	sb	zero,22(s0)
    424c:	00040ba3          	sb	zero,23(s0)
    4250:	00040c23          	sb	zero,24(s0)
    4254:	00040ca3          	sb	zero,25(s0)
    4258:	00040d23          	sb	zero,26(s0)
    425c:	00040da3          	sb	zero,27(s0)
    4260:	02894583          	lbu	a1,40(s2)
    4264:	4781                	li	a5,0
    4266:	4641                	li	a2,16
    4268:	01079713          	slli	a4,a5,0x10
    426c:	8341                	srli	a4,a4,0x10
    426e:	4681                	li	a3,0
    4270:	00b77663          	bgeu	a4,a1,427c <dhcp_create_request+0x110>
    4274:	00f90733          	add	a4,s2,a5
    4278:	02974683          	lbu	a3,41(a4)
    427c:	00f40733          	add	a4,s0,a5
    4280:	af54                	sb	a3,28(a4)
    4282:	0785                	addi	a5,a5,1
    4284:	fec792e3          	bne	a5,a2,4268 <dhcp_create_request+0xfc>
    4288:	02c40713          	addi	a4,s0,44
    428c:	06c40793          	addi	a5,s0,108
    4290:	00070023          	sb	zero,0(a4)
    4294:	0705                	addi	a4,a4,1
    4296:	fee79de3          	bne	a5,a4,4290 <dhcp_create_request+0x124>
    429a:	0ec40713          	addi	a4,s0,236
    429e:	00078023          	sb	zero,0(a5)
    42a2:	0785                	addi	a5,a5,1
    42a4:	fee79de3          	bne	a5,a4,429e <dhcp_create_request+0x132>
    42a8:	63825537          	lui	a0,0x63825
    42ac:	36350513          	addi	a0,a0,867 # 63825363 <_eusrstack+0x43815363>
    42b0:	baeff0ef          	jal	ra,365e <htonl>
    42b4:	00855793          	srli	a5,a0,0x8
    42b8:	0ea40623          	sb	a0,236(s0)
    42bc:	0ef406a3          	sb	a5,237(s0)
    42c0:	4c90                	lw	a2,24(s1)
    42c2:	01055793          	srli	a5,a0,0x10
    42c6:	8161                	srli	a0,a0,0x18
    42c8:	0ef40723          	sb	a5,238(s0)
    42cc:	0ea407a3          	sb	a0,239(s0)
    42d0:	00049e23          	sh	zero,28(s1)
    42d4:	4781                	li	a5,0
    42d6:	04400713          	li	a4,68
    42da:	00f606b3          	add	a3,a2,a5
    42de:	0ef68823          	sb	a5,240(a3)
    42e2:	0785                	addi	a5,a5,1
    42e4:	fee79be3          	bne	a5,a4,42da <dhcp_create_request+0x16e>
    42e8:	4781                	li	a5,0
    42ea:	853e                	mv	a0,a5
    42ec:	f29fb06f          	j	214 <__riscv_restore_0>
    42f0:	57d9                	li	a5,-10
    42f2:	853e                	mv	a0,a5
    42f4:	8082                	ret

000042f6 <dhcp_delete_request>:
dhcp_delete_request():
    42f6:	cd11                	beqz	a0,4312 <dhcp_delete_request+0x1c>
    42f8:	ef9fb2ef          	jal	t0,1f0 <__riscv_save_0>
    42fc:	5100                	lw	s0,32(a0)
    42fe:	c801                	beqz	s0,430e <dhcp_delete_request+0x18>
    4300:	4848                	lw	a0,20(s0)
    4302:	c111                	beqz	a0,4306 <dhcp_delete_request+0x10>
    4304:	25a1                	jal	494c <pbuf_free>
    4306:	00042a23          	sw	zero,20(s0)
    430a:	00042c23          	sw	zero,24(s0)
    430e:	f07fb06f          	j	214 <__riscv_restore_0>
    4312:	8082                	ret

00004314 <dhcp_arp_reply>:
dhcp_arp_reply():
    4314:	18050063          	beqz	a0,4494 <dhcp_arp_reply+0x180>
    4318:	ed9fb2ef          	jal	t0,1f0 <__riscv_save_0>
    431c:	5100                	lw	s0,32(a0)
    431e:	16040963          	beqz	s0,4490 <dhcp_arp_reply+0x17c>
    4322:	2838                	lbu	a4,18(s0)
    4324:	47a1                	li	a5,8
    4326:	16f71563          	bne	a4,a5,4490 <dhcp_arp_reply+0x17c>
    432a:	3198                	lbu	a4,1(a1)
    432c:	219c                	lbu	a5,0(a1)
    432e:	0722                	slli	a4,a4,0x8
    4330:	8f5d                	or	a4,a4,a5
    4332:	21bc                	lbu	a5,2(a1)
    4334:	07c2                	slli	a5,a5,0x10
    4336:	8f5d                	or	a4,a4,a5
    4338:	31bc                	lbu	a5,3(a1)
    433a:	07e2                	slli	a5,a5,0x18
    433c:	8fd9                	or	a5,a5,a4
    433e:	5418                	lw	a4,40(s0)
    4340:	14e79863          	bne	a5,a4,4490 <dhcp_arp_reply+0x17c>
    4344:	84aa                	mv	s1,a0
    4346:	45b1                	li	a1,12
    4348:	8522                	mv	a0,s0
    434a:	d5fff0ef          	jal	ra,40a8 <dhcp_set_state>
    434e:	8526                	mv	a0,s1
    4350:	e1dff0ef          	jal	ra,416c <dhcp_create_request>
    4354:	12051963          	bnez	a0,4486 <dhcp_arp_reply+0x172>
    4358:	4605                	li	a2,1
    435a:	03500593          	li	a1,53
    435e:	8522                	mv	a0,s0
    4360:	d5fff0ef          	jal	ra,40be <dhcp_option>
    4364:	4591                	li	a1,4
    4366:	8522                	mv	a0,s0
    4368:	d77ff0ef          	jal	ra,40de <dhcp_option_byte>
    436c:	4611                	li	a2,4
    436e:	03200593          	li	a1,50
    4372:	8522                	mv	a0,s0
    4374:	d4bff0ef          	jal	ra,40be <dhcp_option>
    4378:	5408                	lw	a0,40(s0)
    437a:	b08ff0ef          	jal	ra,3682 <ntohl>
    437e:	85aa                	mv	a1,a0
    4380:	8522                	mv	a0,s0
    4382:	d6fff0ef          	jal	ra,40f0 <dhcp_option_long>
    4386:	4611                	li	a2,4
    4388:	03600593          	li	a1,54
    438c:	8522                	mv	a0,s0
    438e:	d31ff0ef          	jal	ra,40be <dhcp_option>
    4392:	5048                	lw	a0,36(s0)
    4394:	aeeff0ef          	jal	ra,3682 <ntohl>
    4398:	85aa                	mv	a1,a0
    439a:	8522                	mv	a0,s0
    439c:	d55ff0ef          	jal	ra,40f0 <dhcp_option_long>
    43a0:	461d                	li	a2,7
    43a2:	03d00593          	li	a1,61
    43a6:	8522                	mv	a0,s0
    43a8:	d17ff0ef          	jal	ra,40be <dhcp_option>
    43ac:	2c5e                	lhu	a5,28(s0)
    43ae:	4c18                	lw	a4,24(s0)
    43b0:	4605                	li	a2,1
    43b2:	8522                	mv	a0,s0
    43b4:	00f706b3          	add	a3,a4,a5
    43b8:	0ec68823          	sb	a2,240(a3)
    43bc:	00278613          	addi	a2,a5,2
    43c0:	0642                	slli	a2,a2,0x10
    43c2:	8241                	srli	a2,a2,0x10
    43c4:	ac52                	sh	a2,28(s0)
    43c6:	00178693          	addi	a3,a5,1
    43ca:	0294c583          	lbu	a1,41(s1)
    43ce:	06c2                	slli	a3,a3,0x10
    43d0:	82c1                	srli	a3,a3,0x10
    43d2:	96ba                	add	a3,a3,a4
    43d4:	0eb68823          	sb	a1,240(a3)
    43d8:	00378693          	addi	a3,a5,3
    43dc:	06c2                	slli	a3,a3,0x10
    43de:	82c1                	srli	a3,a3,0x10
    43e0:	ac56                	sh	a3,28(s0)
    43e2:	02a4c583          	lbu	a1,42(s1)
    43e6:	963a                	add	a2,a2,a4
    43e8:	96ba                	add	a3,a3,a4
    43ea:	0eb60823          	sb	a1,240(a2)
    43ee:	00478613          	addi	a2,a5,4
    43f2:	0642                	slli	a2,a2,0x10
    43f4:	8241                	srli	a2,a2,0x10
    43f6:	ac52                	sh	a2,28(s0)
    43f8:	02b4c583          	lbu	a1,43(s1)
    43fc:	963a                	add	a2,a2,a4
    43fe:	0eb68823          	sb	a1,240(a3)
    4402:	00578693          	addi	a3,a5,5
    4406:	06c2                	slli	a3,a3,0x10
    4408:	82c1                	srli	a3,a3,0x10
    440a:	ac56                	sh	a3,28(s0)
    440c:	02c4c583          	lbu	a1,44(s1)
    4410:	96ba                	add	a3,a3,a4
    4412:	0eb60823          	sb	a1,240(a2)
    4416:	00678613          	addi	a2,a5,6
    441a:	0642                	slli	a2,a2,0x10
    441c:	8241                	srli	a2,a2,0x10
    441e:	ac52                	sh	a2,28(s0)
    4420:	02d4c583          	lbu	a1,45(s1)
    4424:	079d                	addi	a5,a5,7
    4426:	9732                	add	a4,a4,a2
    4428:	0eb68823          	sb	a1,240(a3)
    442c:	ac5e                	sh	a5,28(s0)
    442e:	02e4c783          	lbu	a5,46(s1)
    4432:	0ef70823          	sb	a5,240(a4)
    4436:	d03ff0ef          	jal	ra,4138 <dhcp_option_trailer>
    443a:	2c4e                	lhu	a1,28(s0)
    443c:	4848                	lw	a0,20(s0)
    443e:	0f058593          	addi	a1,a1,240
    4442:	05c2                	slli	a1,a1,0x10
    4444:	81c1                	srli	a1,a1,0x10
    4446:	2d51                	jal	4ada <pbuf_realloc>
    4448:	02844703          	lbu	a4,40(s0)
    444c:	4c1c                	lw	a5,24(s0)
    444e:	484c                	lw	a1,20(s0)
    4450:	4048                	lw	a0,4(s0)
    4452:	a7d8                	sb	a4,12(a5)
    4454:	02944703          	lbu	a4,41(s0)
    4458:	0044a903          	lw	s2,4(s1)
    445c:	b7d8                	sb	a4,13(a5)
    445e:	02a44703          	lbu	a4,42(s0)
    4462:	04300693          	li	a3,67
    4466:	85c18613          	addi	a2,gp,-1956 # 2000027c <ip_addr_broadcast>
    446a:	a7f8                	sb	a4,14(a5)
    446c:	02b44703          	lbu	a4,43(s0)
    4470:	b7f8                	sb	a4,15(a5)
    4472:	0004a223          	sw	zero,4(s1)
    4476:	8726                	mv	a4,s1
    4478:	18c030ef          	jal	ra,7604 <udp_sendto_if>
    447c:	8526                	mv	a0,s1
    447e:	0124a223          	sw	s2,4(s1)
    4482:	e75ff0ef          	jal	ra,42f6 <dhcp_delete_request>
    4486:	383c                	lbu	a5,19(s0)
    4488:	0785                	addi	a5,a5,1
    448a:	b83c                	sb	a5,19(s0)
    448c:	4785                	li	a5,1
    448e:	ac7e                	sh	a5,30(s0)
    4490:	d85fb06f          	j	214 <__riscv_restore_0>
    4494:	8082                	ret

00004496 <lwip_init>:
lwip_init():
    4496:	d5bfb2ef          	jal	t0,1f0 <__riscv_save_0>
    449a:	2811                	jal	44ae <mem_init>
    449c:	24bd                	jal	470a <memp_init>
    449e:	200067b7          	lui	a5,0x20006
    44a2:	6b47a783          	lw	a5,1716(a5) # 200066b4 <DNSInf+0x8>
    44a6:	c391                	beqz	a5,44aa <lwip_init+0x14>
    44a8:	9782                	jalr	a5
    44aa:	d6bfb06f          	j	214 <__riscv_restore_0>

000044ae <mem_init>:
mem_init():
    44ae:	20005737          	lui	a4,0x20005
    44b2:	35f70713          	addi	a4,a4,863 # 2000535f <Mem_Heap_Memory+0x3>
    44b6:	9b71                	andi	a4,a4,-4
    44b8:	8ce1aa23          	sw	a4,-1836(gp) # 200002f4 <ram>
    44bc:	200067b7          	lui	a5,0x20006
    44c0:	7187a783          	lw	a5,1816(a5) # 20006718 <WCHCfg+0x8>
    44c4:	00071123          	sh	zero,2(a4)
    44c8:	078d                	addi	a5,a5,3
    44ca:	9bf1                	andi	a5,a5,-4
    44cc:	01079693          	slli	a3,a5,0x10
    44d0:	82c1                	srli	a3,a3,0x10
    44d2:	97ba                	add	a5,a5,a4
    44d4:	a316                	sh	a3,0(a4)
    44d6:	00070223          	sb	zero,4(a4)
    44da:	8cf1ac23          	sw	a5,-1832(gp) # 200002f8 <ram_end>
    44de:	4605                	li	a2,1
    44e0:	a3d0                	sb	a2,4(a5)
    44e2:	a396                	sh	a3,0(a5)
    44e4:	a3b6                	sh	a3,2(a5)
    44e6:	8ce1a823          	sw	a4,-1840(gp) # 200002f0 <lfree>
    44ea:	8082                	ret

000044ec <mem_free>:
mem_free():
    44ec:	c149                	beqz	a0,456e <mem_free+0x82>
    44ee:	8d41a783          	lw	a5,-1836(gp) # 200002f4 <ram>
    44f2:	06f56e63          	bltu	a0,a5,456e <mem_free+0x82>
    44f6:	8d81a583          	lw	a1,-1832(gp) # 200002f8 <ram_end>
    44fa:	06b57a63          	bgeu	a0,a1,456e <mem_free+0x82>
    44fe:	8d01a683          	lw	a3,-1840(gp) # 200002f0 <lfree>
    4502:	ff850613          	addi	a2,a0,-8
    4506:	fe050e23          	sb	zero,-4(a0)
    450a:	8d018713          	addi	a4,gp,-1840 # 200002f0 <lfree>
    450e:	00d67363          	bgeu	a2,a3,4514 <mem_free+0x28>
    4512:	c310                	sw	a2,0(a4)
    4514:	ff855683          	lhu	a3,-8(a0)
    4518:	96be                	add	a3,a3,a5
    451a:	02d60463          	beq	a2,a3,4542 <mem_free+0x56>
    451e:	0046c803          	lbu	a6,4(a3)
    4522:	02081063          	bnez	a6,4542 <mem_free+0x56>
    4526:	00d58e63          	beq	a1,a3,4542 <mem_free+0x56>
    452a:	430c                	lw	a1,0(a4)
    452c:	00b69363          	bne	a3,a1,4532 <mem_free+0x46>
    4530:	c310                	sw	a2,0(a4)
    4532:	228e                	lhu	a1,0(a3)
    4534:	feb51c23          	sh	a1,-8(a0)
    4538:	2296                	lhu	a3,0(a3)
    453a:	40f605b3          	sub	a1,a2,a5
    453e:	96be                	add	a3,a3,a5
    4540:	a2ae                	sh	a1,2(a3)
    4542:	ffa55583          	lhu	a1,-6(a0)
    4546:	00b786b3          	add	a3,a5,a1
    454a:	02d60263          	beq	a2,a3,456e <mem_free+0x82>
    454e:	0046c803          	lbu	a6,4(a3)
    4552:	00081e63          	bnez	a6,456e <mem_free+0x82>
    4556:	00072803          	lw	a6,0(a4)
    455a:	01061363          	bne	a2,a6,4560 <mem_free+0x74>
    455e:	c314                	sw	a3,0(a4)
    4560:	ff855703          	lhu	a4,-8(a0)
    4564:	a29a                	sh	a4,0(a3)
    4566:	ff855703          	lhu	a4,-8(a0)
    456a:	97ba                	add	a5,a5,a4
    456c:	a3ae                	sh	a1,2(a5)
    456e:	8082                	ret

00004570 <mem_realloc>:
mem_realloc():
    4570:	058d                	addi	a1,a1,3
    4572:	05c2                	slli	a1,a1,0x10
    4574:	81c1                	srli	a1,a1,0x10
    4576:	99f1                	andi	a1,a1,-4
    4578:	05c2                	slli	a1,a1,0x10
    457a:	81c1                	srli	a1,a1,0x10
    457c:	4731                	li	a4,12
    457e:	87ae                	mv	a5,a1
    4580:	00e5f363          	bgeu	a1,a4,4586 <mem_realloc+0x16>
    4584:	47b1                	li	a5,12
    4586:	20006737          	lui	a4,0x20006
    458a:	71872603          	lw	a2,1816(a4) # 20006718 <WCHCfg+0x8>
    458e:	07c2                	slli	a5,a5,0x10
    4590:	83c1                	srli	a5,a5,0x10
    4592:	060d                	addi	a2,a2,3
    4594:	9a71                	andi	a2,a2,-4
    4596:	0af66063          	bltu	a2,a5,4636 <mem_realloc+0xc6>
    459a:	8d41a703          	lw	a4,-1836(gp) # 200002f4 <ram>
    459e:	08e56d63          	bltu	a0,a4,4638 <mem_realloc+0xc8>
    45a2:	8d81a683          	lw	a3,-1832(gp) # 200002f8 <ram_end>
    45a6:	08d57963          	bgeu	a0,a3,4638 <mem_realloc+0xc8>
    45aa:	ff850693          	addi	a3,a0,-8
    45ae:	ff855883          	lhu	a7,-8(a0)
    45b2:	8e99                	sub	a3,a3,a4
    45b4:	06c2                	slli	a3,a3,0x10
    45b6:	82c1                	srli	a3,a3,0x10
    45b8:	ff888593          	addi	a1,a7,-8
    45bc:	8d95                	sub	a1,a1,a3
    45be:	05c2                	slli	a1,a1,0x10
    45c0:	81c1                	srli	a1,a1,0x10
    45c2:	06f5ea63          	bltu	a1,a5,4636 <mem_realloc+0xc6>
    45c6:	06f58963          	beq	a1,a5,4638 <mem_realloc+0xc8>
    45ca:	01170333          	add	t1,a4,a7
    45ce:	00434803          	lbu	a6,4(t1) # 80000004 <_eusrstack+0x5fff0004>
    45d2:	02081463          	bnez	a6,45fa <mem_realloc+0x8a>
    45d6:	00868593          	addi	a1,a3,8
    45da:	8d018813          	addi	a6,gp,-1840 # 200002f0 <lfree>
    45de:	97ae                	add	a5,a5,a1
    45e0:	00082e03          	lw	t3,0(a6)
    45e4:	07c2                	slli	a5,a5,0x10
    45e6:	83c1                	srli	a5,a5,0x10
    45e8:	00035883          	lhu	a7,0(t1)
    45ec:	00f705b3          	add	a1,a4,a5
    45f0:	026e1663          	bne	t3,t1,461c <mem_realloc+0xac>
    45f4:	00b82023          	sw	a1,0(a6)
    45f8:	a015                	j	461c <mem_realloc+0xac>
    45fa:	01478813          	addi	a6,a5,20
    45fe:	0305ed63          	bltu	a1,a6,4638 <mem_realloc+0xc8>
    4602:	00868593          	addi	a1,a3,8
    4606:	97ae                	add	a5,a5,a1
    4608:	8d018813          	addi	a6,gp,-1840 # 200002f0 <lfree>
    460c:	07c2                	slli	a5,a5,0x10
    460e:	00082303          	lw	t1,0(a6)
    4612:	83c1                	srli	a5,a5,0x10
    4614:	00f705b3          	add	a1,a4,a5
    4618:	fc65eee3          	bltu	a1,t1,45f4 <mem_realloc+0x84>
    461c:	01159023          	sh	a7,0(a1)
    4620:	a1b6                	sh	a3,2(a1)
    4622:	00058223          	sb	zero,4(a1)
    4626:	fef51c23          	sh	a5,-8(a0)
    462a:	2196                	lhu	a3,0(a1)
    462c:	00d60663          	beq	a2,a3,4638 <mem_realloc+0xc8>
    4630:	9736                	add	a4,a4,a3
    4632:	a33e                	sh	a5,2(a4)
    4634:	8082                	ret
    4636:	4501                	li	a0,0
    4638:	8082                	ret

0000463a <mem_malloc>:
mem_malloc():
    463a:	c539                	beqz	a0,4688 <mem_malloc+0x4e>
    463c:	00350713          	addi	a4,a0,3
    4640:	0742                	slli	a4,a4,0x10
    4642:	8341                	srli	a4,a4,0x10
    4644:	9b71                	andi	a4,a4,-4
    4646:	0742                	slli	a4,a4,0x10
    4648:	8341                	srli	a4,a4,0x10
    464a:	46b1                	li	a3,12
    464c:	87ba                	mv	a5,a4
    464e:	00d77363          	bgeu	a4,a3,4654 <mem_malloc+0x1a>
    4652:	47b1                	li	a5,12
    4654:	20006737          	lui	a4,0x20006
    4658:	71872603          	lw	a2,1816(a4) # 20006718 <WCHCfg+0x8>
    465c:	07c2                	slli	a5,a5,0x10
    465e:	83c1                	srli	a5,a5,0x10
    4660:	060d                	addi	a2,a2,3
    4662:	9a71                	andi	a2,a2,-4
    4664:	4501                	li	a0,0
    4666:	02f66263          	bltu	a2,a5,468a <mem_malloc+0x50>
    466a:	8d01a703          	lw	a4,-1840(gp) # 200002f0 <lfree>
    466e:	8d41ae83          	lw	t4,-1836(gp) # 200002f4 <ram>
    4672:	8d018593          	addi	a1,gp,-1840 # 200002f0 <lfree>
    4676:	40f60333          	sub	t1,a2,a5
    467a:	41d706b3          	sub	a3,a4,t4
    467e:	06c2                	slli	a3,a3,0x10
    4680:	82c1                	srli	a3,a3,0x10
    4682:	5e61                	li	t3,-8
    4684:	0066e463          	bltu	a3,t1,468c <mem_malloc+0x52>
    4688:	4501                	li	a0,0
    468a:	8082                	ret
    468c:	00de8533          	add	a0,t4,a3
    4690:	00454803          	lbu	a6,4(a0)
    4694:	00055883          	lhu	a7,0(a0)
    4698:	06081763          	bnez	a6,4706 <mem_malloc+0xcc>
    469c:	40de0833          	sub	a6,t3,a3
    46a0:	9846                	add	a6,a6,a7
    46a2:	06f86263          	bltu	a6,a5,4706 <mem_malloc+0xcc>
    46a6:	01478313          	addi	t1,a5,20
    46aa:	04686263          	bltu	a6,t1,46ee <mem_malloc+0xb4>
    46ae:	07a1                	addi	a5,a5,8
    46b0:	97b6                	add	a5,a5,a3
    46b2:	07c2                	slli	a5,a5,0x10
    46b4:	83c1                	srli	a5,a5,0x10
    46b6:	00fe8833          	add	a6,t4,a5
    46ba:	01181023          	sh	a7,0(a6)
    46be:	00d81123          	sh	a3,2(a6)
    46c2:	00080223          	sb	zero,4(a6)
    46c6:	4685                	li	a3,1
    46c8:	a11e                	sh	a5,0(a0)
    46ca:	a154                	sb	a3,4(a0)
    46cc:	00085683          	lhu	a3,0(a6)
    46d0:	00d60463          	beq	a2,a3,46d8 <mem_malloc+0x9e>
    46d4:	96f6                	add	a3,a3,t4
    46d6:	a2be                	sh	a5,2(a3)
    46d8:	00a71963          	bne	a4,a0,46ea <mem_malloc+0xb0>
    46dc:	8d81a683          	lw	a3,-1832(gp) # 200002f8 <ram_end>
    46e0:	4781                	li	a5,0
    46e2:	2350                	lbu	a2,4(a4)
    46e4:	ee01                	bnez	a2,46fc <mem_malloc+0xc2>
    46e6:	c391                	beqz	a5,46ea <mem_malloc+0xb0>
    46e8:	c198                	sw	a4,0(a1)
    46ea:	0521                	addi	a0,a0,8
    46ec:	8082                	ret
    46ee:	4785                	li	a5,1
    46f0:	a15c                	sb	a5,4(a0)
    46f2:	b7dd                	j	46d8 <mem_malloc+0x9e>
    46f4:	231a                	lhu	a4,0(a4)
    46f6:	4785                	li	a5,1
    46f8:	9776                	add	a4,a4,t4
    46fa:	b7e5                	j	46e2 <mem_malloc+0xa8>
    46fc:	fee69ce3          	bne	a3,a4,46f4 <mem_malloc+0xba>
    4700:	d7ed                	beqz	a5,46ea <mem_malloc+0xb0>
    4702:	c194                	sw	a3,0(a1)
    4704:	b7dd                	j	46ea <mem_malloc+0xb0>
    4706:	86c6                	mv	a3,a7
    4708:	bfb5                	j	4684 <mem_malloc+0x4a>

0000470a <memp_init>:
memp_init():
    470a:	8341a583          	lw	a1,-1996(gp) # 20000254 <memp_num>
    470e:	8381a683          	lw	a3,-1992(gp) # 20000258 <memp_sizes>
    4712:	200067b7          	lui	a5,0x20006
    4716:	9cb78793          	addi	a5,a5,-1589 # 200059cb <Memp_Memory+0x3>
    471a:	20006737          	lui	a4,0x20006
    471e:	9bf1                	andi	a5,a5,-4
    4720:	77470713          	addi	a4,a4,1908 # 20006774 <memp_tab>
    4724:	01068513          	addi	a0,a3,16
    4728:	0005d803          	lhu	a6,0(a1)
    472c:	00072023          	sw	zero,0(a4)
    4730:	4601                	li	a2,0
    4732:	00c81863          	bne	a6,a2,4742 <memp_init+0x38>
    4736:	0689                	addi	a3,a3,2
    4738:	0711                	addi	a4,a4,4
    473a:	0589                	addi	a1,a1,2
    473c:	fea696e3          	bne	a3,a0,4728 <memp_init+0x1e>
    4740:	8082                	ret
    4742:	00072883          	lw	a7,0(a4)
    4746:	0605                	addi	a2,a2,1
    4748:	0642                	slli	a2,a2,0x10
    474a:	0117a023          	sw	a7,0(a5)
    474e:	0006d883          	lhu	a7,0(a3)
    4752:	c31c                	sw	a5,0(a4)
    4754:	8241                	srli	a2,a2,0x10
    4756:	97c6                	add	a5,a5,a7
    4758:	bfe9                	j	4732 <memp_init+0x28>

0000475a <memp_malloc>:
memp_malloc():
    475a:	479d                	li	a5,7
    475c:	00a7ed63          	bltu	a5,a0,4776 <memp_malloc+0x1c>
    4760:	200067b7          	lui	a5,0x20006
    4764:	050a                	slli	a0,a0,0x2
    4766:	77478793          	addi	a5,a5,1908 # 20006774 <memp_tab>
    476a:	97aa                	add	a5,a5,a0
    476c:	4388                	lw	a0,0(a5)
    476e:	c509                	beqz	a0,4778 <memp_malloc+0x1e>
    4770:	4118                	lw	a4,0(a0)
    4772:	c398                	sw	a4,0(a5)
    4774:	8082                	ret
    4776:	4501                	li	a0,0
    4778:	8082                	ret

0000477a <memp_free>:
memp_free():
    477a:	c999                	beqz	a1,4790 <memp_free+0x16>
    477c:	00251793          	slli	a5,a0,0x2
    4780:	20006537          	lui	a0,0x20006
    4784:	77450513          	addi	a0,a0,1908 # 20006774 <memp_tab>
    4788:	953e                	add	a0,a0,a5
    478a:	411c                	lw	a5,0(a0)
    478c:	c19c                	sw	a5,0(a1)
    478e:	c10c                	sw	a1,0(a0)
    4790:	8082                	ret

00004792 <netif_set_ipaddr>:
netif_set_ipaddr():
    4792:	a45fb2ef          	jal	t0,1d6 <__riscv_save_4>
    4796:	3198                	lbu	a4,1(a1)
    4798:	219c                	lbu	a5,0(a1)
    479a:	84aa                	mv	s1,a0
    479c:	0722                	slli	a4,a4,0x8
    479e:	8f5d                	or	a4,a4,a5
    47a0:	21bc                	lbu	a5,2(a1)
    47a2:	842e                	mv	s0,a1
    47a4:	07c2                	slli	a5,a5,0x10
    47a6:	8f5d                	or	a4,a4,a5
    47a8:	31bc                	lbu	a5,3(a1)
    47aa:	07e2                	slli	a5,a5,0x18
    47ac:	8fd9                	or	a5,a5,a4
    47ae:	4158                	lw	a4,4(a0)
    47b0:	00e79f63          	bne	a5,a4,47ce <netif_set_ipaddr+0x3c>
    47b4:	3018                	lbu	a4,1(s0)
    47b6:	201c                	lbu	a5,0(s0)
    47b8:	0722                	slli	a4,a4,0x8
    47ba:	8f5d                	or	a4,a4,a5
    47bc:	203c                	lbu	a5,2(s0)
    47be:	07c2                	slli	a5,a5,0x10
    47c0:	8f5d                	or	a4,a4,a5
    47c2:	303c                	lbu	a5,3(s0)
    47c4:	07e2                	slli	a5,a5,0x18
    47c6:	8fd9                	or	a5,a5,a4
    47c8:	c0dc                	sw	a5,4(s1)
    47ca:	a41fb06f          	j	20a <__riscv_restore_4>
    47ce:	8ec1a503          	lw	a0,-1812(gp) # 2000030c <tcp_active_pcbs>
    47d2:	4901                	li	s2,0
    47d4:	06400993          	li	s3,100
    47d8:	c105                	beqz	a0,47f8 <netif_set_ipaddr+0x66>
    47da:	4118                	lw	a4,0(a0)
    47dc:	40dc                	lw	a5,4(s1)
    47de:	00c52a03          	lw	s4,12(a0)
    47e2:	04f71163          	bne	a4,a5,4824 <netif_set_ipaddr+0x92>
    47e6:	4585                	li	a1,1
    47e8:	11f000ef          	jal	ra,5106 <tcp_abandon>
    47ec:	00190793          	addi	a5,s2,1
    47f0:	0ff7f793          	andi	a5,a5,255
    47f4:	0329f763          	bgeu	s3,s2,4822 <netif_set_ipaddr+0x90>
    47f8:	8f41a783          	lw	a5,-1804(gp) # 20000314 <tcp_listen_pcbs>
    47fc:	dfc5                	beqz	a5,47b4 <netif_set_ipaddr+0x22>
    47fe:	4398                	lw	a4,0(a5)
    4800:	cf19                	beqz	a4,481e <netif_set_ipaddr+0x8c>
    4802:	40d4                	lw	a3,4(s1)
    4804:	00d71d63          	bne	a4,a3,481e <netif_set_ipaddr+0x8c>
    4808:	3014                	lbu	a3,1(s0)
    480a:	2018                	lbu	a4,0(s0)
    480c:	06a2                	slli	a3,a3,0x8
    480e:	8ed9                	or	a3,a3,a4
    4810:	2038                	lbu	a4,2(s0)
    4812:	0742                	slli	a4,a4,0x10
    4814:	8ed9                	or	a3,a3,a4
    4816:	3038                	lbu	a4,3(s0)
    4818:	0762                	slli	a4,a4,0x18
    481a:	8f55                	or	a4,a4,a3
    481c:	c398                	sw	a4,0(a5)
    481e:	47dc                	lw	a5,12(a5)
    4820:	bff1                	j	47fc <netif_set_ipaddr+0x6a>
    4822:	893e                	mv	s2,a5
    4824:	8552                	mv	a0,s4
    4826:	bf4d                	j	47d8 <netif_set_ipaddr+0x46>

00004828 <netif_set_addr>:
netif_set_addr():
    4828:	9c9fb2ef          	jal	t0,1f0 <__riscv_save_0>
    482c:	1141                	addi	sp,sp,-16
    482e:	c632                	sw	a2,12(sp)
    4830:	c436                	sw	a3,8(sp)
    4832:	842a                	mv	s0,a0
    4834:	f5fff0ef          	jal	ra,4792 <netif_set_ipaddr>
    4838:	4632                	lw	a2,12(sp)
    483a:	46a2                	lw	a3,8(sp)
    483c:	4781                	li	a5,0
    483e:	ca19                	beqz	a2,4854 <netif_set_addr+0x2c>
    4840:	3218                	lbu	a4,1(a2)
    4842:	221c                	lbu	a5,0(a2)
    4844:	0722                	slli	a4,a4,0x8
    4846:	8f5d                	or	a4,a4,a5
    4848:	223c                	lbu	a5,2(a2)
    484a:	07c2                	slli	a5,a5,0x10
    484c:	8f5d                	or	a4,a4,a5
    484e:	323c                	lbu	a5,3(a2)
    4850:	07e2                	slli	a5,a5,0x18
    4852:	8fd9                	or	a5,a5,a4
    4854:	c41c                	sw	a5,8(s0)
    4856:	4781                	li	a5,0
    4858:	ca99                	beqz	a3,486e <netif_set_addr+0x46>
    485a:	3298                	lbu	a4,1(a3)
    485c:	229c                	lbu	a5,0(a3)
    485e:	0722                	slli	a4,a4,0x8
    4860:	8f5d                	or	a4,a4,a5
    4862:	22bc                	lbu	a5,2(a3)
    4864:	07c2                	slli	a5,a5,0x10
    4866:	8f5d                	or	a4,a4,a5
    4868:	32bc                	lbu	a5,3(a3)
    486a:	07e2                	slli	a5,a5,0x18
    486c:	8fd9                	or	a5,a5,a4
    486e:	c45c                	sw	a5,12(s0)
    4870:	0141                	addi	sp,sp,16
    4872:	9a3fb06f          	j	214 <__riscv_restore_0>

00004876 <netif_add>:
netif_add():
    4876:	97bfb2ef          	jal	t0,1f0 <__riscv_save_0>
    487a:	cd58                	sw	a4,28(a0)
    487c:	8e418713          	addi	a4,gp,-1820 # 20000304 <netifnum.2482>
    4880:	00074883          	lbu	a7,0(a4)
    4884:	1141                	addi	sp,sp,-16
    4886:	00052223          	sw	zero,4(a0)
    488a:	00052423          	sw	zero,8(a0)
    488e:	00052623          	sw	zero,12(a0)
    4892:	02050923          	sb	zero,50(a0)
    4896:	02052023          	sw	zero,32(a0)
    489a:	00188313          	addi	t1,a7,1
    489e:	03150aa3          	sb	a7,53(a0)
    48a2:	01052823          	sw	a6,16(a0)
    48a6:	842a                	mv	s0,a0
    48a8:	c63e                	sw	a5,12(sp)
    48aa:	00670023          	sb	t1,0(a4)
    48ae:	f7bff0ef          	jal	ra,4828 <netif_set_addr>
    48b2:	47b2                	lw	a5,12(sp)
    48b4:	8522                	mv	a0,s0
    48b6:	9782                	jalr	a5
    48b8:	e911                	bnez	a0,48cc <netif_add+0x56>
    48ba:	8e018793          	addi	a5,gp,-1824 # 20000300 <netif_list>
    48be:	4398                	lw	a4,0(a5)
    48c0:	c018                	sw	a4,0(s0)
    48c2:	c380                	sw	s0,0(a5)
    48c4:	8522                	mv	a0,s0
    48c6:	0141                	addi	sp,sp,16
    48c8:	94dfb06f          	j	214 <__riscv_restore_0>
    48cc:	4401                	li	s0,0
    48ce:	bfdd                	j	48c4 <netif_add+0x4e>

000048d0 <netif_set_default>:
netif_set_default():
    48d0:	8ca1ae23          	sw	a0,-1828(gp) # 200002fc <netif_default>
    48d4:	8082                	ret

000048d6 <netif_is_up>:
netif_is_up():
    48d6:	03254503          	lbu	a0,50(a0)
    48da:	8905                	andi	a0,a0,1
    48dc:	8082                	ret

000048de <pbuf_header>:
pbuf_header():
    48de:	87aa                	mv	a5,a0
    48e0:	4501                	li	a0,0
    48e2:	c5a5                	beqz	a1,494a <pbuf_header+0x6c>
    48e4:	c3bd                	beqz	a5,494a <pbuf_header+0x6c>
    48e6:	01059613          	slli	a2,a1,0x10
    48ea:	8241                	srli	a2,a2,0x10
    48ec:	8832                	mv	a6,a2
    48ee:	0005db63          	bgez	a1,4904 <pbuf_header+0x26>
    48f2:	40c00833          	neg	a6,a2
    48f6:	27ba                	lhu	a4,10(a5)
    48f8:	0842                	slli	a6,a6,0x10
    48fa:	01085813          	srli	a6,a6,0x10
    48fe:	4505                	li	a0,1
    4900:	05076563          	bltu	a4,a6,494a <pbuf_header+0x6c>
    4904:	27d4                	lbu	a3,12(a5)
    4906:	43d8                	lw	a4,4(a5)
    4908:	c681                	beqz	a3,4910 <pbuf_header+0x32>
    490a:	450d                	li	a0,3
    490c:	02a69163          	bne	a3,a0,492e <pbuf_header+0x50>
    4910:	8f0d                	sub	a4,a4,a1
    4912:	01078693          	addi	a3,a5,16
    4916:	4505                	li	a0,1
    4918:	02d76963          	bltu	a4,a3,494a <pbuf_header+0x6c>
    491c:	c3d8                	sw	a4,4(a5)
    491e:	27ba                	lhu	a4,10(a5)
    4920:	4501                	li	a0,0
    4922:	9732                	add	a4,a4,a2
    4924:	a7ba                	sh	a4,10(a5)
    4926:	279a                	lhu	a4,8(a5)
    4928:	963a                	add	a2,a2,a4
    492a:	a792                	sh	a2,8(a5)
    492c:	8082                	ret
    492e:	16fd                	addi	a3,a3,-1
    4930:	06c2                	slli	a3,a3,0x10
    4932:	82c1                	srli	a3,a3,0x10
    4934:	4885                	li	a7,1
    4936:	4505                	li	a0,1
    4938:	00d8e963          	bltu	a7,a3,494a <pbuf_header+0x6c>
    493c:	0005d763          	bgez	a1,494a <pbuf_header+0x6c>
    4940:	27b6                	lhu	a3,10(a5)
    4942:	0106e463          	bltu	a3,a6,494a <pbuf_header+0x6c>
    4946:	8f0d                	sub	a4,a4,a1
    4948:	bfd1                	j	491c <pbuf_header+0x3e>
    494a:	8082                	ret

0000494c <pbuf_free>:
pbuf_free():
    494c:	88bfb2ef          	jal	t0,1d6 <__riscv_save_4>
    4950:	4401                	li	s0,0
    4952:	cd0d                	beqz	a0,498c <pbuf_free+0x40>
    4954:	85aa                	mv	a1,a0
    4956:	4401                	li	s0,0
    4958:	490d                	li	s2,3
    495a:	4985                	li	s3,1
    495c:	25fe                	lhu	a5,14(a1)
    495e:	17fd                	addi	a5,a5,-1
    4960:	07c2                	slli	a5,a5,0x10
    4962:	83c1                	srli	a5,a5,0x10
    4964:	a5fe                	sh	a5,14(a1)
    4966:	e39d                	bnez	a5,498c <pbuf_free+0x40>
    4968:	25dc                	lbu	a5,12(a1)
    496a:	4184                	lw	s1,0(a1)
    496c:	451d                	li	a0,7
    496e:	01278863          	beq	a5,s2,497e <pbuf_free+0x32>
    4972:	17fd                	addi	a5,a5,-1
    4974:	07c2                	slli	a5,a5,0x10
    4976:	83c1                	srli	a5,a5,0x10
    4978:	00f9ed63          	bltu	s3,a5,4992 <pbuf_free+0x46>
    497c:	4519                	li	a0,6
    497e:	dfdff0ef          	jal	ra,477a <memp_free>
    4982:	0405                	addi	s0,s0,1
    4984:	0ff47413          	andi	s0,s0,255
    4988:	85a6                	mv	a1,s1
    498a:	f8e9                	bnez	s1,495c <pbuf_free+0x10>
    498c:	8522                	mv	a0,s0
    498e:	87dfb06f          	j	20a <__riscv_restore_4>
    4992:	852e                	mv	a0,a1
    4994:	b59ff0ef          	jal	ra,44ec <mem_free>
    4998:	b7ed                	j	4982 <pbuf_free+0x36>

0000499a <pbuf_alloc>:
pbuf_alloc():
    499a:	83dfb2ef          	jal	t0,1d6 <__riscv_save_4>
    499e:	4785                	li	a5,1
    49a0:	00f50d63          	beq	a0,a5,49ba <pbuf_alloc+0x20>
    49a4:	c531                	beqz	a0,49f0 <pbuf_alloc+0x56>
    49a6:	4789                	li	a5,2
    49a8:	04f50663          	beq	a0,a5,49f4 <pbuf_alloc+0x5a>
    49ac:	478d                	li	a5,3
    49ae:	04f50563          	beq	a0,a5,49f8 <pbuf_alloc+0x5e>
    49b2:	4401                	li	s0,0
    49b4:	8522                	mv	a0,s0
    49b6:	855fb06f          	j	20a <__riscv_restore_4>
    49ba:	4481                	li	s1,0
    49bc:	04d1                	addi	s1,s1,20
    49be:	04b9                	addi	s1,s1,14
    49c0:	04c2                	slli	s1,s1,0x10
    49c2:	80c1                	srli	s1,s1,0x10
    49c4:	4789                	li	a5,2
    49c6:	89b2                	mv	s3,a2
    49c8:	892e                	mv	s2,a1
    49ca:	02c7e963          	bltu	a5,a2,49fc <pbuf_alloc+0x62>
    49ce:	ca79                	beqz	a2,4aa4 <pbuf_alloc+0x10a>
    49d0:	4519                	li	a0,6
    49d2:	d89ff0ef          	jal	ra,475a <memp_malloc>
    49d6:	842a                	mv	s0,a0
    49d8:	dd69                	beqz	a0,49b2 <pbuf_alloc+0x18>
    49da:	00052223          	sw	zero,4(a0)
    49de:	01251423          	sh	s2,8(a0)
    49e2:	01251523          	sh	s2,10(a0)
    49e6:	00052023          	sw	zero,0(a0)
    49ea:	01350623          	sb	s3,12(a0)
    49ee:	a0b5                	j	4a5a <pbuf_alloc+0xc0>
    49f0:	44d1                	li	s1,20
    49f2:	b7e9                	j	49bc <pbuf_alloc+0x22>
    49f4:	4481                	li	s1,0
    49f6:	b7e1                	j	49be <pbuf_alloc+0x24>
    49f8:	4481                	li	s1,0
    49fa:	b7e9                	j	49c4 <pbuf_alloc+0x2a>
    49fc:	478d                	li	a5,3
    49fe:	4401                	li	s0,0
    4a00:	faf61ae3          	bne	a2,a5,49b4 <pbuf_alloc+0x1a>
    4a04:	451d                	li	a0,7
    4a06:	d55ff0ef          	jal	ra,475a <memp_malloc>
    4a0a:	842a                	mv	s0,a0
    4a0c:	d15d                	beqz	a0,49b2 <pbuf_alloc+0x18>
    4a0e:	009507b3          	add	a5,a0,s1
    4a12:	07cd                	addi	a5,a5,19
    4a14:	9bf1                	andi	a5,a5,-4
    4a16:	20006737          	lui	a4,0x20006
    4a1a:	c15c                	sw	a5,4(a0)
    4a1c:	71070793          	addi	a5,a4,1808 # 20006710 <WCHCfg>
    4a20:	43dc                	lw	a5,4(a5)
    4a22:	048d                	addi	s1,s1,3
    4a24:	98f1                	andi	s1,s1,-4
    4a26:	03978793          	addi	a5,a5,57
    4a2a:	9bf1                	andi	a5,a5,-4
    4a2c:	01350623          	sb	s3,12(a0)
    4a30:	00052023          	sw	zero,0(a0)
    4a34:	01251423          	sh	s2,8(a0)
    4a38:	409784b3          	sub	s1,a5,s1
    4a3c:	71070993          	addi	s3,a4,1808
    4a40:	00997363          	bgeu	s2,s1,4a46 <pbuf_alloc+0xac>
    4a44:	84ca                	mv	s1,s2
    4a46:	4785                	li	a5,1
    4a48:	a426                	sh	s1,10(s0)
    4a4a:	a47e                	sh	a5,14(s0)
    4a4c:	409904b3          	sub	s1,s2,s1
    4a50:	4a0d                	li	s4,3
    4a52:	8922                	mv	s2,s0
    4a54:	4a85                	li	s5,1
    4a56:	00904763          	bgtz	s1,4a64 <pbuf_alloc+0xca>
    4a5a:	4785                	li	a5,1
    4a5c:	a47e                	sh	a5,14(s0)
    4a5e:	000406a3          	sb	zero,13(s0)
    4a62:	bf89                	j	49b4 <pbuf_alloc+0x1a>
    4a64:	451d                	li	a0,7
    4a66:	cf5ff0ef          	jal	ra,475a <memp_malloc>
    4a6a:	e509                	bnez	a0,4a74 <pbuf_alloc+0xda>
    4a6c:	8522                	mv	a0,s0
    4a6e:	edfff0ef          	jal	ra,494c <pbuf_free>
    4a72:	b781                	j	49b2 <pbuf_alloc+0x18>
    4a74:	0049a783          	lw	a5,4(s3)
    4a78:	01451623          	sh	s4,12(a0)
    4a7c:	00052023          	sw	zero,0(a0)
    4a80:	00a92023          	sw	a0,0(s2)
    4a84:	03978793          	addi	a5,a5,57
    4a88:	a506                	sh	s1,8(a0)
    4a8a:	9bf1                	andi	a5,a5,-4
    4a8c:	00f4f363          	bgeu	s1,a5,4a92 <pbuf_alloc+0xf8>
    4a90:	87a6                	mv	a5,s1
    4a92:	01050713          	addi	a4,a0,16
    4a96:	a53e                	sh	a5,10(a0)
    4a98:	c158                	sw	a4,4(a0)
    4a9a:	01551723          	sh	s5,14(a0)
    4a9e:	8c9d                	sub	s1,s1,a5
    4aa0:	892a                	mv	s2,a0
    4aa2:	bf55                	j	4a56 <pbuf_alloc+0xbc>
    4aa4:	00358793          	addi	a5,a1,3
    4aa8:	01348513          	addi	a0,s1,19
    4aac:	9bf1                	andi	a5,a5,-4
    4aae:	9971                	andi	a0,a0,-4
    4ab0:	953e                	add	a0,a0,a5
    4ab2:	0542                	slli	a0,a0,0x10
    4ab4:	8141                	srli	a0,a0,0x10
    4ab6:	b85ff0ef          	jal	ra,463a <mem_malloc>
    4aba:	842a                	mv	s0,a0
    4abc:	ee050be3          	beqz	a0,49b2 <pbuf_alloc+0x18>
    4ac0:	94aa                	add	s1,s1,a0
    4ac2:	04cd                	addi	s1,s1,19
    4ac4:	98f1                	andi	s1,s1,-4
    4ac6:	c144                	sw	s1,4(a0)
    4ac8:	01251423          	sh	s2,8(a0)
    4acc:	01251523          	sh	s2,10(a0)
    4ad0:	00052023          	sw	zero,0(a0)
    4ad4:	00050623          	sb	zero,12(a0)
    4ad8:	b749                	j	4a5a <pbuf_alloc+0xc0>

00004ada <pbuf_realloc>:
pbuf_realloc():
    4ada:	251e                	lhu	a5,8(a0)
    4adc:	04f5fa63          	bgeu	a1,a5,4b30 <pbuf_realloc+0x56>
    4ae0:	f10fb2ef          	jal	t0,1f0 <__riscv_save_0>
    4ae4:	842a                	mv	s0,a0
    4ae6:	84ae                	mv	s1,a1
    4ae8:	40f587b3          	sub	a5,a1,a5
    4aec:	242e                	lhu	a1,10(s0)
    4aee:	0295e963          	bltu	a1,s1,4b20 <pbuf_realloc+0x46>
    4af2:	245c                	lbu	a5,12(s0)
    4af4:	ef81                	bnez	a5,4b0c <pbuf_realloc+0x32>
    4af6:	00958b63          	beq	a1,s1,4b0c <pbuf_realloc+0x32>
    4afa:	404c                	lw	a1,4(s0)
    4afc:	8522                	mv	a0,s0
    4afe:	8d81                	sub	a1,a1,s0
    4b00:	95a6                	add	a1,a1,s1
    4b02:	05c2                	slli	a1,a1,0x10
    4b04:	81c1                	srli	a1,a1,0x10
    4b06:	a6bff0ef          	jal	ra,4570 <mem_realloc>
    4b0a:	842a                	mv	s0,a0
    4b0c:	4008                	lw	a0,0(s0)
    4b0e:	a426                	sh	s1,10(s0)
    4b10:	a406                	sh	s1,8(s0)
    4b12:	c119                	beqz	a0,4b18 <pbuf_realloc+0x3e>
    4b14:	e39ff0ef          	jal	ra,494c <pbuf_free>
    4b18:	00042023          	sw	zero,0(s0)
    4b1c:	ef8fb06f          	j	214 <__riscv_restore_0>
    4b20:	241a                	lhu	a4,8(s0)
    4b22:	8c8d                	sub	s1,s1,a1
    4b24:	04c2                	slli	s1,s1,0x10
    4b26:	973e                	add	a4,a4,a5
    4b28:	a41a                	sh	a4,8(s0)
    4b2a:	80c1                	srli	s1,s1,0x10
    4b2c:	4000                	lw	s0,0(s0)
    4b2e:	bf7d                	j	4aec <pbuf_realloc+0x12>
    4b30:	8082                	ret

00004b32 <pbuf_clen>:
pbuf_clen():
    4b32:	4781                	li	a5,0
    4b34:	e119                	bnez	a0,4b3a <pbuf_clen+0x8>
    4b36:	853e                	mv	a0,a5
    4b38:	8082                	ret
    4b3a:	0785                	addi	a5,a5,1
    4b3c:	0ff7f793          	andi	a5,a5,255
    4b40:	4108                	lw	a0,0(a0)
    4b42:	bfcd                	j	4b34 <pbuf_clen+0x2>

00004b44 <pbuf_ref>:
pbuf_ref():
    4b44:	c501                	beqz	a0,4b4c <pbuf_ref+0x8>
    4b46:	257e                	lhu	a5,14(a0)
    4b48:	0785                	addi	a5,a5,1
    4b4a:	a57e                	sh	a5,14(a0)
    4b4c:	8082                	ret

00004b4e <pbuf_cat>:
pbuf_cat():
    4b4e:	cd09                	beqz	a0,4b68 <pbuf_cat+0x1a>
    4b50:	e199                	bnez	a1,4b56 <pbuf_cat+0x8>
    4b52:	8082                	ret
    4b54:	853a                	mv	a0,a4
    4b56:	259e                	lhu	a5,8(a1)
    4b58:	2516                	lhu	a3,8(a0)
    4b5a:	4118                	lw	a4,0(a0)
    4b5c:	97b6                	add	a5,a5,a3
    4b5e:	07c2                	slli	a5,a5,0x10
    4b60:	83c1                	srli	a5,a5,0x10
    4b62:	a51e                	sh	a5,8(a0)
    4b64:	fb65                	bnez	a4,4b54 <pbuf_cat+0x6>
    4b66:	c10c                	sw	a1,0(a0)
    4b68:	8082                	ret

00004b6a <pbuf_chain>:
pbuf_chain():
    4b6a:	e86fb2ef          	jal	t0,1f0 <__riscv_save_0>
    4b6e:	842e                	mv	s0,a1
    4b70:	fdfff0ef          	jal	ra,4b4e <pbuf_cat>
    4b74:	8522                	mv	a0,s0
    4b76:	fcfff0ef          	jal	ra,4b44 <pbuf_ref>
    4b7a:	e9afb06f          	j	214 <__riscv_restore_0>

00004b7e <pbuf_copy>:
pbuf_copy():
    4b7e:	cd3d                	beqz	a0,4bfc <pbuf_copy+0x7e>
    4b80:	e56fb2ef          	jal	t0,1d6 <__riscv_save_4>
    4b84:	842a                	mv	s0,a0
    4b86:	84ae                	mv	s1,a1
    4b88:	5559                	li	a0,-10
    4b8a:	c5ad                	beqz	a1,4bf4 <pbuf_copy+0x76>
    4b8c:	241a                	lhu	a4,8(s0)
    4b8e:	259e                	lhu	a5,8(a1)
    4b90:	06f76263          	bltu	a4,a5,4bf4 <pbuf_copy+0x76>
    4b94:	4901                	li	s2,0
    4b96:	4a01                	li	s4,0
    4b98:	00a45983          	lhu	s3,10(s0)
    4b9c:	24be                	lhu	a5,10(s1)
    4b9e:	414989b3          	sub	s3,s3,s4
    4ba2:	412787b3          	sub	a5,a5,s2
    4ba6:	04f9c963          	blt	s3,a5,4bf8 <pbuf_copy+0x7a>
    4baa:	01079993          	slli	s3,a5,0x10
    4bae:	4048                	lw	a0,4(s0)
    4bb0:	40cc                	lw	a1,4(s1)
    4bb2:	0109d993          	srli	s3,s3,0x10
    4bb6:	9552                	add	a0,a0,s4
    4bb8:	95ca                	add	a1,a1,s2
    4bba:	864e                	mv	a2,s3
    4bbc:	704030ef          	jal	ra,82c0 <memcpy>
    4bc0:	9a4e                	add	s4,s4,s3
    4bc2:	243e                	lhu	a5,10(s0)
    4bc4:	0a42                	slli	s4,s4,0x10
    4bc6:	994e                	add	s2,s2,s3
    4bc8:	0942                	slli	s2,s2,0x10
    4bca:	010a5a13          	srli	s4,s4,0x10
    4bce:	01095913          	srli	s2,s2,0x10
    4bd2:	01479463          	bne	a5,s4,4bda <pbuf_copy+0x5c>
    4bd6:	4000                	lw	s0,0(s0)
    4bd8:	4a01                	li	s4,0
    4bda:	24be                	lhu	a5,10(s1)
    4bdc:	00f96563          	bltu	s2,a5,4be6 <pbuf_copy+0x68>
    4be0:	4084                	lw	s1,0(s1)
    4be2:	cc99                	beqz	s1,4c00 <pbuf_copy+0x82>
    4be4:	4901                	li	s2,0
    4be6:	24ba                	lhu	a4,10(s1)
    4be8:	249e                	lhu	a5,8(s1)
    4bea:	02f71663          	bne	a4,a5,4c16 <pbuf_copy+0x98>
    4bee:	409c                	lw	a5,0(s1)
    4bf0:	c39d                	beqz	a5,4c16 <pbuf_copy+0x98>
    4bf2:	555d                	li	a0,-9
    4bf4:	e16fb06f          	j	20a <__riscv_restore_4>
    4bf8:	09c2                	slli	s3,s3,0x10
    4bfa:	bf55                	j	4bae <pbuf_copy+0x30>
    4bfc:	5559                	li	a0,-10
    4bfe:	8082                	ret
    4c00:	c809                	beqz	s0,4c12 <pbuf_copy+0x94>
    4c02:	4901                	li	s2,0
    4c04:	243a                	lhu	a4,10(s0)
    4c06:	241e                	lhu	a5,8(s0)
    4c08:	00f71463          	bne	a4,a5,4c10 <pbuf_copy+0x92>
    4c0c:	401c                	lw	a5,0(s0)
    4c0e:	f3f5                	bnez	a5,4bf2 <pbuf_copy+0x74>
    4c10:	f4c1                	bnez	s1,4b98 <pbuf_copy+0x1a>
    4c12:	4501                	li	a0,0
    4c14:	b7c5                	j	4bf4 <pbuf_copy+0x76>
    4c16:	f47d                	bnez	s0,4c04 <pbuf_copy+0x86>
    4c18:	b741                	j	4b98 <pbuf_copy+0x1a>

00004c1a <raw_input>:
raw_input():
    4c1a:	dbcfb2ef          	jal	t0,1d6 <__riscv_save_4>
    4c1e:	00452903          	lw	s2,4(a0)
    4c22:	89aa                	mv	s3,a0
    4c24:	00994783          	lbu	a5,9(s2)
    4c28:	00894503          	lbu	a0,8(s2)
    4c2c:	4a01                	li	s4,0
    4c2e:	07a2                	slli	a5,a5,0x8
    4c30:	8d5d                	or	a0,a0,a5
    4c32:	a1ffe0ef          	jal	ra,3650 <ntohs>
    4c36:	0ff57a93          	andi	s5,a0,255
    4c3a:	8e81a403          	lw	s0,-1816(gp) # 20000308 <raw_pcbs>
    4c3e:	0931                	addi	s2,s2,12
    4c40:	8e818493          	addi	s1,gp,-1816 # 20000308 <raw_pcbs>
    4c44:	e401                	bnez	s0,4c4c <raw_input+0x32>
    4c46:	4501                	li	a0,0
    4c48:	dc2fb06f          	j	20a <__riscv_restore_4>
    4c4c:	281c                	lbu	a5,16(s0)
    4c4e:	4501                	li	a0,0
    4c50:	03579463          	bne	a5,s5,4c78 <raw_input+0x5e>
    4c54:	485c                	lw	a5,20(s0)
    4c56:	c38d                	beqz	a5,4c78 <raw_input+0x5e>
    4c58:	4c08                	lw	a0,24(s0)
    4c5a:	86ca                	mv	a3,s2
    4c5c:	864e                	mv	a2,s3
    4c5e:	85a2                	mv	a1,s0
    4c60:	9782                	jalr	a5
    4c62:	c919                	beqz	a0,4c78 <raw_input+0x5e>
    4c64:	000a0863          	beqz	s4,4c74 <raw_input+0x5a>
    4c68:	445c                	lw	a5,12(s0)
    4c6a:	00fa2623          	sw	a5,12(s4)
    4c6e:	409c                	lw	a5,0(s1)
    4c70:	c080                	sw	s0,0(s1)
    4c72:	c45c                	sw	a5,12(s0)
    4c74:	4505                	li	a0,1
    4c76:	4981                	li	s3,0
    4c78:	445c                	lw	a5,12(s0)
    4c7a:	8a22                	mv	s4,s0
    4c7c:	f571                	bnez	a0,4c48 <raw_input+0x2e>
    4c7e:	843e                	mv	s0,a5
    4c80:	b7d1                	j	4c44 <raw_input+0x2a>

00004c82 <raw_bind>:
raw_bind():
    4c82:	4781                	li	a5,0
    4c84:	c999                	beqz	a1,4c9a <raw_bind+0x18>
    4c86:	3198                	lbu	a4,1(a1)
    4c88:	219c                	lbu	a5,0(a1)
    4c8a:	0722                	slli	a4,a4,0x8
    4c8c:	8f5d                	or	a4,a4,a5
    4c8e:	21bc                	lbu	a5,2(a1)
    4c90:	07c2                	slli	a5,a5,0x10
    4c92:	8f5d                	or	a4,a4,a5
    4c94:	31bc                	lbu	a5,3(a1)
    4c96:	07e2                	slli	a5,a5,0x18
    4c98:	8fd9                	or	a5,a5,a4
    4c9a:	c11c                	sw	a5,0(a0)
    4c9c:	4501                	li	a0,0
    4c9e:	8082                	ret

00004ca0 <raw_connect>:
raw_connect():
    4ca0:	4781                	li	a5,0
    4ca2:	c999                	beqz	a1,4cb8 <raw_connect+0x18>
    4ca4:	3198                	lbu	a4,1(a1)
    4ca6:	219c                	lbu	a5,0(a1)
    4ca8:	0722                	slli	a4,a4,0x8
    4caa:	8f5d                	or	a4,a4,a5
    4cac:	21bc                	lbu	a5,2(a1)
    4cae:	07c2                	slli	a5,a5,0x10
    4cb0:	8f5d                	or	a4,a4,a5
    4cb2:	31bc                	lbu	a5,3(a1)
    4cb4:	07e2                	slli	a5,a5,0x18
    4cb6:	8fd9                	or	a5,a5,a4
    4cb8:	c15c                	sw	a5,4(a0)
    4cba:	4501                	li	a0,0
    4cbc:	8082                	ret

00004cbe <raw_recv>:
raw_recv():
    4cbe:	c94c                	sw	a1,20(a0)
    4cc0:	cd10                	sw	a2,24(a0)
    4cc2:	8082                	ret

00004cc4 <raw_new>:
raw_new():
    4cc4:	d2cfb2ef          	jal	t0,1f0 <__riscv_save_0>
    4cc8:	84aa                	mv	s1,a0
    4cca:	4501                	li	a0,0
    4ccc:	a8fff0ef          	jal	ra,475a <memp_malloc>
    4cd0:	842a                	mv	s0,a0
    4cd2:	cd11                	beqz	a0,4cee <raw_new+0x2a>
    4cd4:	4671                	li	a2,28
    4cd6:	4581                	li	a1,0
    4cd8:	d48fb0ef          	jal	ra,220 <memset>
    4cdc:	f8000793          	li	a5,-128
    4ce0:	b43c                	sb	a5,11(s0)
    4ce2:	8e818793          	addi	a5,gp,-1816 # 20000308 <raw_pcbs>
    4ce6:	4398                	lw	a4,0(a5)
    4ce8:	a804                	sb	s1,16(s0)
    4cea:	c380                	sw	s0,0(a5)
    4cec:	c458                	sw	a4,12(s0)
    4cee:	8522                	mv	a0,s0
    4cf0:	d24fb06f          	j	214 <__riscv_restore_0>

00004cf4 <tcp_new_port>:
tcp_new_port():
    4cf4:	8ec1a683          	lw	a3,-1812(gp) # 2000030c <tcp_active_pcbs>
    4cf8:	9001a603          	lw	a2,-1792(gp) # 20000320 <tcp_tw_pcbs>
    4cfc:	8f41a583          	lw	a1,-1804(gp) # 20000314 <tcp_listen_pcbs>
    4d00:	8401d503          	lhu	a0,-1984(gp) # 20000260 <port.3029>
    4d04:	84018793          	addi	a5,gp,-1984 # 20000260 <port.3029>
    4d08:	00150713          	addi	a4,a0,1
    4d0c:	01071513          	slli	a0,a4,0x10
    4d10:	01071813          	slli	a6,a4,0x10
    4d14:	8141                	srli	a0,a0,0x10
    4d16:	00085363          	bgez	a6,4d1c <tcp_new_port+0x28>
    4d1a:	6505                	lui	a0,0x1
    4d1c:	8736                	mv	a4,a3
    4d1e:	e719                	bnez	a4,4d2c <tcp_new_port+0x38>
    4d20:	8732                	mv	a4,a2
    4d22:	eb19                	bnez	a4,4d38 <tcp_new_port+0x44>
    4d24:	872e                	mv	a4,a1
    4d26:	ef19                	bnez	a4,4d44 <tcp_new_port+0x50>
    4d28:	a38a                	sh	a0,0(a5)
    4d2a:	8082                	ret
    4d2c:	01c75803          	lhu	a6,28(a4)
    4d30:	fca80ce3          	beq	a6,a0,4d08 <tcp_new_port+0x14>
    4d34:	4758                	lw	a4,12(a4)
    4d36:	b7e5                	j	4d1e <tcp_new_port+0x2a>
    4d38:	01c75803          	lhu	a6,28(a4)
    4d3c:	fca806e3          	beq	a6,a0,4d08 <tcp_new_port+0x14>
    4d40:	4758                	lw	a4,12(a4)
    4d42:	b7c5                	j	4d22 <tcp_new_port+0x2e>
    4d44:	01c75803          	lhu	a6,28(a4)
    4d48:	fca800e3          	beq	a6,a0,4d08 <tcp_new_port+0x14>
    4d4c:	4758                	lw	a4,12(a4)
    4d4e:	bfe1                	j	4d26 <tcp_new_port+0x32>

00004d50 <tcp_bind>:
tcp_bind():
    4d50:	491c                	lw	a5,16(a0)
    4d52:	10079663          	bnez	a5,4e5e <tcp_bind+0x10e>
    4d56:	c80fb2ef          	jal	t0,1d6 <__riscv_save_4>
    4d5a:	1141                	addi	sp,sp,-16
    4d5c:	84aa                	mv	s1,a0
    4d5e:	8432                	mv	s0,a2
    4d60:	e611                	bnez	a2,4d6c <tcp_bind+0x1c>
    4d62:	c62e                	sw	a1,12(sp)
    4d64:	f91ff0ef          	jal	ra,4cf4 <tcp_new_port>
    4d68:	45b2                	lw	a1,12(sp)
    4d6a:	842a                	mv	s0,a0
    4d6c:	8f41a703          	lw	a4,-1804(gp) # 20000314 <tcp_listen_pcbs>
    4d70:	e731                	bnez	a4,4dbc <tcp_bind+0x6c>
    4d72:	8ec1a703          	lw	a4,-1812(gp) # 2000030c <tcp_active_pcbs>
    4d76:	eb25                	bnez	a4,4de6 <tcp_bind+0x96>
    4d78:	8f01a983          	lw	s3,-1808(gp) # 20000310 <tcp_bound_pcbs>
    4d7c:	8f018913          	addi	s2,gp,-1808 # 20000310 <tcp_bound_pcbs>
    4d80:	874e                	mv	a4,s3
    4d82:	e759                	bnez	a4,4e10 <tcp_bind+0xc0>
    4d84:	9001a783          	lw	a5,-1792(gp) # 20000320 <tcp_tw_pcbs>
    4d88:	ebcd                	bnez	a5,4e3a <tcp_bind+0xea>
    4d8a:	c185                	beqz	a1,4daa <tcp_bind+0x5a>
    4d8c:	3198                	lbu	a4,1(a1)
    4d8e:	219c                	lbu	a5,0(a1)
    4d90:	0722                	slli	a4,a4,0x8
    4d92:	8f5d                	or	a4,a4,a5
    4d94:	21bc                	lbu	a5,2(a1)
    4d96:	07c2                	slli	a5,a5,0x10
    4d98:	8f5d                	or	a4,a4,a5
    4d9a:	31bc                	lbu	a5,3(a1)
    4d9c:	07e2                	slli	a5,a5,0x18
    4d9e:	8fd9                	or	a5,a5,a4
    4da0:	c789                	beqz	a5,4daa <tcp_bind+0x5a>
    4da2:	4611                	li	a2,4
    4da4:	8526                	mv	a0,s1
    4da6:	51a030ef          	jal	ra,82c0 <memcpy>
    4daa:	acc2                	sh	s0,28(s1)
    4dac:	0134a623          	sw	s3,12(s1)
    4db0:	00992023          	sw	s1,0(s2)
    4db4:	4501                	li	a0,0
    4db6:	0141                	addi	sp,sp,16
    4db8:	c52fb06f          	j	20a <__riscv_restore_4>
    4dbc:	2f5e                	lhu	a5,28(a4)
    4dbe:	02879263          	bne	a5,s0,4de2 <tcp_bind+0x92>
    4dc2:	4310                	lw	a2,0(a4)
    4dc4:	ce59                	beqz	a2,4e62 <tcp_bind+0x112>
    4dc6:	cdd1                	beqz	a1,4e62 <tcp_bind+0x112>
    4dc8:	3194                	lbu	a3,1(a1)
    4dca:	219c                	lbu	a5,0(a1)
    4dcc:	06a2                	slli	a3,a3,0x8
    4dce:	8edd                	or	a3,a3,a5
    4dd0:	21bc                	lbu	a5,2(a1)
    4dd2:	07c2                	slli	a5,a5,0x10
    4dd4:	8edd                	or	a3,a3,a5
    4dd6:	31bc                	lbu	a5,3(a1)
    4dd8:	07e2                	slli	a5,a5,0x18
    4dda:	8fd5                	or	a5,a5,a3
    4ddc:	c3d9                	beqz	a5,4e62 <tcp_bind+0x112>
    4dde:	08f60263          	beq	a2,a5,4e62 <tcp_bind+0x112>
    4de2:	4758                	lw	a4,12(a4)
    4de4:	b771                	j	4d70 <tcp_bind+0x20>
    4de6:	2f5e                	lhu	a5,28(a4)
    4de8:	02879263          	bne	a5,s0,4e0c <tcp_bind+0xbc>
    4dec:	4310                	lw	a2,0(a4)
    4dee:	ca35                	beqz	a2,4e62 <tcp_bind+0x112>
    4df0:	c9ad                	beqz	a1,4e62 <tcp_bind+0x112>
    4df2:	3194                	lbu	a3,1(a1)
    4df4:	219c                	lbu	a5,0(a1)
    4df6:	06a2                	slli	a3,a3,0x8
    4df8:	8edd                	or	a3,a3,a5
    4dfa:	21bc                	lbu	a5,2(a1)
    4dfc:	07c2                	slli	a5,a5,0x10
    4dfe:	8edd                	or	a3,a3,a5
    4e00:	31bc                	lbu	a5,3(a1)
    4e02:	07e2                	slli	a5,a5,0x18
    4e04:	8fd5                	or	a5,a5,a3
    4e06:	cfb1                	beqz	a5,4e62 <tcp_bind+0x112>
    4e08:	04f60d63          	beq	a2,a5,4e62 <tcp_bind+0x112>
    4e0c:	4758                	lw	a4,12(a4)
    4e0e:	b7a5                	j	4d76 <tcp_bind+0x26>
    4e10:	2f5e                	lhu	a5,28(a4)
    4e12:	02879263          	bne	a5,s0,4e36 <tcp_bind+0xe6>
    4e16:	4310                	lw	a2,0(a4)
    4e18:	c629                	beqz	a2,4e62 <tcp_bind+0x112>
    4e1a:	c5a1                	beqz	a1,4e62 <tcp_bind+0x112>
    4e1c:	3194                	lbu	a3,1(a1)
    4e1e:	219c                	lbu	a5,0(a1)
    4e20:	06a2                	slli	a3,a3,0x8
    4e22:	8edd                	or	a3,a3,a5
    4e24:	21bc                	lbu	a5,2(a1)
    4e26:	07c2                	slli	a5,a5,0x10
    4e28:	8edd                	or	a3,a3,a5
    4e2a:	31bc                	lbu	a5,3(a1)
    4e2c:	07e2                	slli	a5,a5,0x18
    4e2e:	8fd5                	or	a5,a5,a3
    4e30:	cb8d                	beqz	a5,4e62 <tcp_bind+0x112>
    4e32:	02f60863          	beq	a2,a5,4e62 <tcp_bind+0x112>
    4e36:	4758                	lw	a4,12(a4)
    4e38:	b7a9                	j	4d82 <tcp_bind+0x32>
    4e3a:	2fda                	lhu	a4,28(a5)
    4e3c:	00871f63          	bne	a4,s0,4e5a <tcp_bind+0x10a>
    4e40:	3194                	lbu	a3,1(a1)
    4e42:	2198                	lbu	a4,0(a1)
    4e44:	06a2                	slli	a3,a3,0x8
    4e46:	8ed9                	or	a3,a3,a4
    4e48:	21b8                	lbu	a4,2(a1)
    4e4a:	0742                	slli	a4,a4,0x10
    4e4c:	8ed9                	or	a3,a3,a4
    4e4e:	31b8                	lbu	a4,3(a1)
    4e50:	0762                	slli	a4,a4,0x18
    4e52:	8f55                	or	a4,a4,a3
    4e54:	4394                	lw	a3,0(a5)
    4e56:	00e68663          	beq	a3,a4,4e62 <tcp_bind+0x112>
    4e5a:	47dc                	lw	a5,12(a5)
    4e5c:	b735                	j	4d88 <tcp_bind+0x38>
    4e5e:	554d                	li	a0,-13
    4e60:	8082                	ret
    4e62:	5555                	li	a0,-11
    4e64:	bf89                	j	4db6 <tcp_bind+0x66>

00004e66 <tcp_update_rcv_ann_wnd>:
tcp_update_rcv_ann_wnd():
    4e66:	87aa                	mv	a5,a0
    4e68:	02c55803          	lhu	a6,44(a0) # 102c <main+0x16>
    4e6c:	5914                	lw	a3,48(a0)
    4e6e:	3bd2                	lhu	a2,52(a5)
    4e70:	550c                	lw	a1,40(a0)
    4e72:	0407d883          	lhu	a7,64(a5)
    4e76:	40d80533          	sub	a0,a6,a3
    4e7a:	8205                	srli	a2,a2,0x1
    4e7c:	952e                	add	a0,a0,a1
    4e7e:	8732                	mv	a4,a2
    4e80:	00c8f363          	bgeu	a7,a2,4e86 <tcp_update_rcv_ann_wnd+0x20>
    4e84:	8746                	mv	a4,a7
    4e86:	0742                	slli	a4,a4,0x10
    4e88:	8341                	srli	a4,a4,0x10
    4e8a:	40e50733          	sub	a4,a0,a4
    4e8e:	00074563          	bltz	a4,4e98 <tcp_update_rcv_ann_wnd+0x32>
    4e92:	03079723          	sh	a6,46(a5)
    4e96:	8082                	ret
    4e98:	40d58733          	sub	a4,a1,a3
    4e9c:	00e05663          	blez	a4,4ea8 <tcp_update_rcv_ann_wnd+0x42>
    4ea0:	02079723          	sh	zero,46(a5)
    4ea4:	4501                	li	a0,0
    4ea6:	8082                	ret
    4ea8:	8e8d                	sub	a3,a3,a1
    4eaa:	b7f6                	sh	a3,46(a5)
    4eac:	bfe5                	j	4ea4 <tcp_update_rcv_ann_wnd+0x3e>

00004eae <tcp_recved>:
tcp_recved():
    4eae:	b42fb2ef          	jal	t0,1f0 <__riscv_save_0>
    4eb2:	355e                	lhu	a5,44(a0)
    4eb4:	842a                	mv	s0,a0
    4eb6:	95be                	add	a1,a1,a5
    4eb8:	05c2                	slli	a1,a1,0x10
    4eba:	395e                	lhu	a5,52(a0)
    4ebc:	81c1                	srli	a1,a1,0x10
    4ebe:	b54e                	sh	a1,44(a0)
    4ec0:	00b7f363          	bgeu	a5,a1,4ec6 <tcp_recved+0x18>
    4ec4:	b55e                	sh	a5,44(a0)
    4ec6:	8522                	mv	a0,s0
    4ec8:	f9fff0ef          	jal	ra,4e66 <tcp_update_rcv_ann_wnd>
    4ecc:	385e                	lhu	a5,52(s0)
    4ece:	8389                	srli	a5,a5,0x2
    4ed0:	00f54b63          	blt	a0,a5,4ee6 <tcp_recved+0x38>
    4ed4:	02644783          	lbu	a5,38(s0)
    4ed8:	8522                	mv	a0,s0
    4eda:	0027e793          	ori	a5,a5,2
    4ede:	02f40323          	sb	a5,38(s0)
    4ee2:	703010ef          	jal	ra,6de4 <tcp_output>
    4ee6:	b2efb06f          	j	214 <__riscv_restore_0>

00004eea <tcp_seg_free>:
tcp_seg_free():
    4eea:	b06fb2ef          	jal	t0,1f0 <__riscv_save_0>
    4eee:	1141                	addi	sp,sp,-16
    4ef0:	4401                	li	s0,0
    4ef2:	cd09                	beqz	a0,4f0c <tcp_seg_free+0x22>
    4ef4:	85aa                	mv	a1,a0
    4ef6:	4148                	lw	a0,4(a0)
    4ef8:	4401                	li	s0,0
    4efa:	c511                	beqz	a0,4f06 <tcp_seg_free+0x1c>
    4efc:	c62e                	sw	a1,12(sp)
    4efe:	a4fff0ef          	jal	ra,494c <pbuf_free>
    4f02:	45b2                	lw	a1,12(sp)
    4f04:	842a                	mv	s0,a0
    4f06:	4511                	li	a0,4
    4f08:	873ff0ef          	jal	ra,477a <memp_free>
    4f0c:	8522                	mv	a0,s0
    4f0e:	0141                	addi	sp,sp,16
    4f10:	b04fb06f          	j	214 <__riscv_restore_0>

00004f14 <tcp_segs_free>:
tcp_segs_free():
    4f14:	adcfb2ef          	jal	t0,1f0 <__riscv_save_0>
    4f18:	4401                	li	s0,0
    4f1a:	e501                	bnez	a0,4f22 <tcp_segs_free+0xe>
    4f1c:	8522                	mv	a0,s0
    4f1e:	af6fb06f          	j	214 <__riscv_restore_0>
    4f22:	4104                	lw	s1,0(a0)
    4f24:	fc7ff0ef          	jal	ra,4eea <tcp_seg_free>
    4f28:	942a                	add	s0,s0,a0
    4f2a:	0ff47413          	andi	s0,s0,255
    4f2e:	8526                	mv	a0,s1
    4f30:	b7ed                	j	4f1a <tcp_segs_free+0x6>

00004f32 <tcp_seg_copy>:
tcp_seg_copy():
    4f32:	abefb2ef          	jal	t0,1f0 <__riscv_save_0>
    4f36:	1141                	addi	sp,sp,-16
    4f38:	c62a                	sw	a0,12(sp)
    4f3a:	4511                	li	a0,4
    4f3c:	81fff0ef          	jal	ra,475a <memp_malloc>
    4f40:	842a                	mv	s0,a0
    4f42:	c901                	beqz	a0,4f52 <tcp_seg_copy+0x20>
    4f44:	45b2                	lw	a1,12(sp)
    4f46:	4651                	li	a2,20
    4f48:	378030ef          	jal	ra,82c0 <memcpy>
    4f4c:	4048                	lw	a0,4(s0)
    4f4e:	bf7ff0ef          	jal	ra,4b44 <pbuf_ref>
    4f52:	8522                	mv	a0,s0
    4f54:	0141                	addi	sp,sp,16
    4f56:	abefb06f          	j	214 <__riscv_restore_0>

00004f5a <tcp_arg>:
tcp_arg():
    4f5a:	cd0c                	sw	a1,24(a0)
    4f5c:	8082                	ret

00004f5e <tcp_err>:
tcp_err():
    4f5e:	08b52e23          	sw	a1,156(a0)
    4f62:	8082                	ret

00004f64 <tcp_pcb_purge>:
tcp_pcb_purge():
    4f64:	491c                	lw	a5,16(a0)
    4f66:	4705                	li	a4,1
    4f68:	04f77463          	bgeu	a4,a5,4fb0 <tcp_pcb_purge+0x4c>
    4f6c:	4729                	li	a4,10
    4f6e:	04e78163          	beq	a5,a4,4fb0 <tcp_pcb_purge+0x4c>
    4f72:	a7efb2ef          	jal	t0,1f0 <__riscv_save_0>
    4f76:	842a                	mv	s0,a0
    4f78:	08852503          	lw	a0,136(a0)
    4f7c:	c509                	beqz	a0,4f86 <tcp_pcb_purge+0x22>
    4f7e:	9cfff0ef          	jal	ra,494c <pbuf_free>
    4f82:	08042423          	sw	zero,136(s0)
    4f86:	08442503          	lw	a0,132(s0)
    4f8a:	57fd                	li	a5,-1
    4f8c:	bc7e                	sh	a5,62(s0)
    4f8e:	f87ff0ef          	jal	ra,4f14 <tcp_segs_free>
    4f92:	5c68                	lw	a0,124(s0)
    4f94:	08042223          	sw	zero,132(s0)
    4f98:	f7dff0ef          	jal	ra,4f14 <tcp_segs_free>
    4f9c:	08042503          	lw	a0,128(s0)
    4fa0:	f75ff0ef          	jal	ra,4f14 <tcp_segs_free>
    4fa4:	06042e23          	sw	zero,124(s0)
    4fa8:	08042023          	sw	zero,128(s0)
    4fac:	a68fb06f          	j	214 <__riscv_restore_0>
    4fb0:	8082                	ret

00004fb2 <tcp_pcb_remove>:
tcp_pcb_remove():
    4fb2:	a3efb2ef          	jal	t0,1f0 <__riscv_save_0>
    4fb6:	411c                	lw	a5,0(a0)
    4fb8:	842e                	mv	s0,a1
    4fba:	04b79063          	bne	a5,a1,4ffa <tcp_pcb_remove+0x48>
    4fbe:	45dc                	lw	a5,12(a1)
    4fc0:	c11c                	sw	a5,0(a0)
    4fc2:	00042623          	sw	zero,12(s0)
    4fc6:	8522                	mv	a0,s0
    4fc8:	f9dff0ef          	jal	ra,4f64 <tcp_pcb_purge>
    4fcc:	481c                	lw	a5,16(s0)
    4fce:	4729                	li	a4,10
    4fd0:	02e78163          	beq	a5,a4,4ff2 <tcp_pcb_remove+0x40>
    4fd4:	4705                	li	a4,1
    4fd6:	00e78e63          	beq	a5,a4,4ff2 <tcp_pcb_remove+0x40>
    4fda:	02644783          	lbu	a5,38(s0)
    4fde:	0017f713          	andi	a4,a5,1
    4fe2:	cb01                	beqz	a4,4ff2 <tcp_pcb_remove+0x40>
    4fe4:	0027e793          	ori	a5,a5,2
    4fe8:	02f40323          	sb	a5,38(s0)
    4fec:	8522                	mv	a0,s0
    4fee:	5f7010ef          	jal	ra,6de4 <tcp_output>
    4ff2:	00042823          	sw	zero,16(s0)
    4ff6:	a1efb06f          	j	214 <__riscv_restore_0>
    4ffa:	8ef1ae23          	sw	a5,-1796(gp) # 2000031c <tcp_tmp_pcb>
    4ffe:	4681                	li	a3,0
    5000:	8fc18713          	addi	a4,gp,-1796 # 2000031c <tcp_tmp_pcb>
    5004:	e789                	bnez	a5,500e <tcp_pcb_remove+0x5c>
    5006:	ded5                	beqz	a3,4fc2 <tcp_pcb_remove+0x10>
    5008:	00072023          	sw	zero,0(a4)
    500c:	bf5d                	j	4fc2 <tcp_pcb_remove+0x10>
    500e:	47d0                	lw	a2,12(a5)
    5010:	00861763          	bne	a2,s0,501e <tcp_pcb_remove+0x6c>
    5014:	c291                	beqz	a3,5018 <tcp_pcb_remove+0x66>
    5016:	c31c                	sw	a5,0(a4)
    5018:	4458                	lw	a4,12(s0)
    501a:	c7d8                	sw	a4,12(a5)
    501c:	b75d                	j	4fc2 <tcp_pcb_remove+0x10>
    501e:	4685                	li	a3,1
    5020:	87b2                	mv	a5,a2
    5022:	b7cd                	j	5004 <tcp_pcb_remove+0x52>

00005024 <tcp_close>:
tcp_close():
    5024:	491c                	lw	a5,16(a0)
    5026:	471d                	li	a4,7
    5028:	0af76563          	bltu	a4,a5,50d2 <tcp_close+0xae>
    502c:	9c4fb2ef          	jal	t0,1f0 <__riscv_save_0>
    5030:	6729                	lui	a4,0xa
    5032:	078a                	slli	a5,a5,0x2
    5034:	c8870713          	addi	a4,a4,-888 # 9c88 <ErrTable+0x10>
    5038:	97ba                	add	a5,a5,a4
    503a:	439c                	lw	a5,0(a5)
    503c:	842a                	mv	s0,a0
    503e:	8782                	jr	a5
    5040:	bf7fd0ef          	jal	ra,2c36 <LwipRemoveTcpPcb>
    5044:	8f018713          	addi	a4,gp,-1808 # 20000310 <tcp_bound_pcbs>
    5048:	431c                	lw	a5,0(a4)
    504a:	00879963          	bne	a5,s0,505c <tcp_close+0x38>
    504e:	445c                	lw	a5,12(s0)
    5050:	c31c                	sw	a5,0(a4)
    5052:	00042623          	sw	zero,12(s0)
    5056:	85a2                	mv	a1,s0
    5058:	4509                	li	a0,2
    505a:	a83d                	j	5098 <tcp_close+0x74>
    505c:	8ef1ae23          	sw	a5,-1796(gp) # 2000031c <tcp_tmp_pcb>
    5060:	4681                	li	a3,0
    5062:	8fc18713          	addi	a4,gp,-1796 # 2000031c <tcp_tmp_pcb>
    5066:	e789                	bnez	a5,5070 <tcp_close+0x4c>
    5068:	d6ed                	beqz	a3,5052 <tcp_close+0x2e>
    506a:	00072023          	sw	zero,0(a4)
    506e:	b7d5                	j	5052 <tcp_close+0x2e>
    5070:	47d0                	lw	a2,12(a5)
    5072:	00861763          	bne	a2,s0,5080 <tcp_close+0x5c>
    5076:	c291                	beqz	a3,507a <tcp_close+0x56>
    5078:	c31c                	sw	a5,0(a4)
    507a:	4458                	lw	a4,12(s0)
    507c:	c7d8                	sw	a4,12(a5)
    507e:	bfd1                	j	5052 <tcp_close+0x2e>
    5080:	4685                	li	a3,1
    5082:	87b2                	mv	a5,a2
    5084:	b7cd                	j	5066 <tcp_close+0x42>
    5086:	bb1fd0ef          	jal	ra,2c36 <LwipRemoveTcpPcb>
    508a:	85a2                	mv	a1,s0
    508c:	8f418513          	addi	a0,gp,-1804 # 20000314 <tcp_listen_pcbs>
    5090:	f23ff0ef          	jal	ra,4fb2 <tcp_pcb_remove>
    5094:	85a2                	mv	a1,s0
    5096:	450d                	li	a0,3
    5098:	ee2ff0ef          	jal	ra,477a <memp_free>
    509c:	4501                	li	a0,0
    509e:	a831                	j	50ba <tcp_close+0x96>
    50a0:	b97fd0ef          	jal	ra,2c36 <LwipRemoveTcpPcb>
    50a4:	85a2                	mv	a1,s0
    50a6:	8ec18513          	addi	a0,gp,-1812 # 2000030c <tcp_active_pcbs>
    50aa:	f09ff0ef          	jal	ra,4fb2 <tcp_pcb_remove>
    50ae:	b765                	j	5056 <tcp_close+0x32>
    50b0:	4585                	li	a1,1
    50b2:	4ad010ef          	jal	ra,6d5e <tcp_send_ctrl>
    50b6:	4795                	li	a5,5
    50b8:	c901                	beqz	a0,50c8 <tcp_close+0xa4>
    50ba:	95afb06f          	j	214 <__riscv_restore_0>
    50be:	4585                	li	a1,1
    50c0:	49f010ef          	jal	ra,6d5e <tcp_send_ctrl>
    50c4:	f97d                	bnez	a0,50ba <tcp_close+0x96>
    50c6:	47a5                	li	a5,9
    50c8:	c81c                	sw	a5,16(s0)
    50ca:	8522                	mv	a0,s0
    50cc:	519010ef          	jal	ra,6de4 <tcp_output>
    50d0:	b7f1                	j	509c <tcp_close+0x78>
    50d2:	4501                	li	a0,0
    50d4:	8082                	ret

000050d6 <tcp_recv_null>:
tcp_recv_null():
    50d6:	91afb2ef          	jal	t0,1f0 <__riscv_save_0>
    50da:	1141                	addi	sp,sp,-16
    50dc:	852e                	mv	a0,a1
    50de:	ce11                	beqz	a2,50fa <tcp_recv_null+0x24>
    50e0:	260e                	lhu	a1,8(a2)
    50e2:	c632                	sw	a2,12(sp)
    50e4:	dcbff0ef          	jal	ra,4eae <tcp_recved>
    50e8:	4632                	lw	a2,12(sp)
    50ea:	8532                	mv	a0,a2
    50ec:	861ff0ef          	jal	ra,494c <pbuf_free>
    50f0:	4781                	li	a5,0
    50f2:	853e                	mv	a0,a5
    50f4:	0141                	addi	sp,sp,16
    50f6:	91efb06f          	j	214 <__riscv_restore_0>
    50fa:	4781                	li	a5,0
    50fc:	fafd                	bnez	a3,50f2 <tcp_recv_null+0x1c>
    50fe:	f27ff0ef          	jal	ra,5024 <tcp_close>
    5102:	87aa                	mv	a5,a0
    5104:	b7fd                	j	50f2 <tcp_recv_null+0x1c>

00005106 <tcp_abandon>:
tcp_abandon():
    5106:	8c2fb2ef          	jal	t0,1c8 <__riscv_save_10>
    510a:	4918                	lw	a4,16(a0)
    510c:	47a9                	li	a5,10
    510e:	1141                	addi	sp,sp,-16
    5110:	842a                	mv	s0,a0
    5112:	00f71e63          	bne	a4,a5,512e <tcp_abandon+0x28>
    5116:	85aa                	mv	a1,a0
    5118:	90018513          	addi	a0,gp,-1792 # 20000320 <tcp_tw_pcbs>
    511c:	e97ff0ef          	jal	ra,4fb2 <tcp_pcb_remove>
    5120:	85a2                	mv	a1,s0
    5122:	4509                	li	a0,2
    5124:	e56ff0ef          	jal	ra,477a <memp_free>
    5128:	0141                	addi	sp,sp,16
    512a:	8d6fb06f          	j	200 <__riscv_restore_10>
    512e:	411c                	lw	a5,0(a0)
    5130:	8b2e                	mv	s6,a1
    5132:	06052903          	lw	s2,96(a0)
    5136:	c63e                	sw	a5,12(sp)
    5138:	415c                	lw	a5,4(a0)
    513a:	02852983          	lw	s3,40(a0)
    513e:	01c55a03          	lhu	s4,28(a0)
    5142:	c43e                	sw	a5,8(sp)
    5144:	02455a83          	lhu	s5,36(a0)
    5148:	09c52483          	lw	s1,156(a0)
    514c:	01852b83          	lw	s7,24(a0)
    5150:	ae7fd0ef          	jal	ra,2c36 <LwipRemoveTcpPcb>
    5154:	8ec18513          	addi	a0,gp,-1812 # 2000030c <tcp_active_pcbs>
    5158:	85a2                	mv	a1,s0
    515a:	e59ff0ef          	jal	ra,4fb2 <tcp_pcb_remove>
    515e:	08042503          	lw	a0,128(s0)
    5162:	c119                	beqz	a0,5168 <tcp_abandon+0x62>
    5164:	db1ff0ef          	jal	ra,4f14 <tcp_segs_free>
    5168:	5c68                	lw	a0,124(s0)
    516a:	c119                	beqz	a0,5170 <tcp_abandon+0x6a>
    516c:	da9ff0ef          	jal	ra,4f14 <tcp_segs_free>
    5170:	08442503          	lw	a0,132(s0)
    5174:	c119                	beqz	a0,517a <tcp_abandon+0x74>
    5176:	d9fff0ef          	jal	ra,4f14 <tcp_segs_free>
    517a:	85a2                	mv	a1,s0
    517c:	4509                	li	a0,2
    517e:	dfcff0ef          	jal	ra,477a <memp_free>
    5182:	c481                	beqz	s1,518a <tcp_abandon+0x84>
    5184:	55ed                	li	a1,-5
    5186:	855e                	mv	a0,s7
    5188:	9482                	jalr	s1
    518a:	f80b0fe3          	beqz	s6,5128 <tcp_abandon+0x22>
    518e:	87d6                	mv	a5,s5
    5190:	8752                	mv	a4,s4
    5192:	0034                	addi	a3,sp,8
    5194:	0070                	addi	a2,sp,12
    5196:	85ce                	mv	a1,s3
    5198:	854a                	mv	a0,s2
    519a:	7b3010ef          	jal	ra,714c <tcp_rst>
    519e:	b769                	j	5128 <tcp_abandon+0x22>

000051a0 <tcp_next_iss>:
tcp_next_iss():
    51a0:	83c18793          	addi	a5,gp,-1988 # 2000025c <iss.3197>
    51a4:	4388                	lw	a0,0(a5)
    51a6:	8f81a703          	lw	a4,-1800(gp) # 20000318 <tcp_ticks>
    51aa:	953a                	add	a0,a0,a4
    51ac:	c388                	sw	a0,0(a5)
    51ae:	8082                	ret

000051b0 <tcp_alloc>:
tcp_alloc():
    51b0:	826fb2ef          	jal	t0,1d6 <__riscv_save_4>
    51b4:	892a                	mv	s2,a0
    51b6:	4509                	li	a0,2
    51b8:	da2ff0ef          	jal	ra,475a <memp_malloc>
    51bc:	200064b7          	lui	s1,0x20006
    51c0:	71048493          	addi	s1,s1,1808 # 20006710 <WCHCfg>
    51c4:	842a                	mv	s0,a0
    51c6:	e125                	bnez	a0,5226 <tcp_alloc+0x76>
    51c8:	489c                	lw	a5,16(s1)
    51ca:	8389                	srli	a5,a5,0x2
    51cc:	8b85                	andi	a5,a5,1
    51ce:	e789                	bnez	a5,51d8 <tcp_alloc+0x28>
    51d0:	4401                	li	s0,0
    51d2:	8522                	mv	a0,s0
    51d4:	836fb06f          	j	20a <__riscv_restore_4>
    51d8:	9001a783          	lw	a5,-1792(gp) # 20000320 <tcp_tw_pcbs>
    51dc:	8f81a603          	lw	a2,-1800(gp) # 20000318 <tcp_ticks>
    51e0:	4501                	li	a0,0
    51e2:	4681                	li	a3,0
    51e4:	8f818993          	addi	s3,gp,-1800 # 20000318 <tcp_ticks>
    51e8:	e7f1                	bnez	a5,52b4 <tcp_alloc+0x104>
    51ea:	c501                	beqz	a0,51f2 <tcp_alloc+0x42>
    51ec:	4585                	li	a1,1
    51ee:	f19ff0ef          	jal	ra,5106 <tcp_abandon>
    51f2:	4509                	li	a0,2
    51f4:	d66ff0ef          	jal	ra,475a <memp_malloc>
    51f8:	842a                	mv	s0,a0
    51fa:	e515                	bnez	a0,5226 <tcp_alloc+0x76>
    51fc:	8ec1a783          	lw	a5,-1812(gp) # 2000030c <tcp_active_pcbs>
    5200:	0009a503          	lw	a0,0(s3)
    5204:	197d                	addi	s2,s2,-1
    5206:	0ff97913          	andi	s2,s2,255
    520a:	07f00613          	li	a2,127
    520e:	4581                	li	a1,0
    5210:	ebdd                	bnez	a5,52c6 <tcp_alloc+0x116>
    5212:	c409                	beqz	s0,521c <tcp_alloc+0x6c>
    5214:	4585                	li	a1,1
    5216:	8522                	mv	a0,s0
    5218:	eefff0ef          	jal	ra,5106 <tcp_abandon>
    521c:	4509                	li	a0,2
    521e:	d3cff0ef          	jal	ra,475a <memp_malloc>
    5222:	842a                	mv	s0,a0
    5224:	d555                	beqz	a0,51d0 <tcp_alloc+0x20>
    5226:	0b400613          	li	a2,180
    522a:	4581                	li	a1,0
    522c:	8522                	mv	a0,s0
    522e:	ff3fa0ef          	jal	ra,220 <memset>
    5232:	04000793          	li	a5,64
    5236:	a85c                	sb	a5,20(s0)
    5238:	449c                	lw	a5,8(s1)
    523a:	06041c23          	sh	zero,120(s0)
    523e:	21800713          	li	a4,536
    5242:	06f41b23          	sh	a5,118(s0)
    5246:	385e                	lhu	a5,52(s0)
    5248:	b45e                	sh	a5,44(s0)
    524a:	b47e                	sh	a5,46(s0)
    524c:	77e1                	lui	a5,0xffff8
    524e:	a43e                	sh	a5,10(s0)
    5250:	40dc                	lw	a5,4(s1)
    5252:	00f77463          	bgeu	a4,a5,525a <tcp_alloc+0xaa>
    5256:	21800793          	li	a5,536
    525a:	04f41023          	sh	a5,64(s0)
    525e:	67c1                	lui	a5,0x10
    5260:	577d                	li	a4,-1
    5262:	c47c                	sw	a5,76(s0)
    5264:	4785                	li	a5,1
    5266:	04f41823          	sh	a5,80(s0)
    526a:	bc7a                	sh	a4,62(s0)
    526c:	04f41d23          	sh	a5,90(s0)
    5270:	f31ff0ef          	jal	ra,51a0 <tcp_next_iss>
    5274:	8f81a783          	lw	a5,-1800(gp) # 20000318 <tcp_ticks>
    5278:	d468                	sw	a0,108(s0)
    527a:	d028                	sw	a0,96(s0)
    527c:	dc1c                	sw	a5,56(s0)
    527e:	000057b7          	lui	a5,0x5
    5282:	0d678793          	addi	a5,a5,214 # 50d6 <tcp_recv_null>
    5286:	08f42823          	sw	a5,144(s0)
    528a:	200067b7          	lui	a5,0x20006
    528e:	6c07a703          	lw	a4,1728(a5) # 200066c0 <KeepLiveCfg>
    5292:	6c078793          	addi	a5,a5,1728
    5296:	c868                	sw	a0,84(s0)
    5298:	0ae42023          	sw	a4,160(s0)
    529c:	43d8                	lw	a4,4(a5)
    529e:	479c                	lw	a5,8(a5)
    52a0:	d828                	sw	a0,112(s0)
    52a2:	02040e23          	sb	zero,60(s0)
    52a6:	0ae42223          	sw	a4,164(s0)
    52aa:	0af42423          	sw	a5,168(s0)
    52ae:	0a0408a3          	sb	zero,177(s0)
    52b2:	b705                	j	51d2 <tcp_alloc+0x22>
    52b4:	5f98                	lw	a4,56(a5)
    52b6:	40e60733          	sub	a4,a2,a4
    52ba:	00d76463          	bltu	a4,a3,52c2 <tcp_alloc+0x112>
    52be:	86ba                	mv	a3,a4
    52c0:	853e                	mv	a0,a5
    52c2:	47dc                	lw	a5,12(a5)
    52c4:	b715                	j	51e8 <tcp_alloc+0x38>
    52c6:	2bd4                	lbu	a3,20(a5)
    52c8:	00d96c63          	bltu	s2,a3,52e0 <tcp_alloc+0x130>
    52cc:	00d66a63          	bltu	a2,a3,52e0 <tcp_alloc+0x130>
    52d0:	5f98                	lw	a4,56(a5)
    52d2:	40e50733          	sub	a4,a0,a4
    52d6:	00b76563          	bltu	a4,a1,52e0 <tcp_alloc+0x130>
    52da:	8636                	mv	a2,a3
    52dc:	85ba                	mv	a1,a4
    52de:	843e                	mv	s0,a5
    52e0:	47dc                	lw	a5,12(a5)
    52e2:	b73d                	j	5210 <tcp_alloc+0x60>

000052e4 <tcp_new>:
tcp_new():
    52e4:	f0dfa2ef          	jal	t0,1f0 <__riscv_save_0>
    52e8:	04000513          	li	a0,64
    52ec:	ec5ff0ef          	jal	ra,51b0 <tcp_alloc>
    52f0:	f25fa06f          	j	214 <__riscv_restore_0>

000052f4 <tcp_eff_send_mss>:
tcp_eff_send_mss():
    52f4:	efdfa2ef          	jal	t0,1f0 <__riscv_save_0>
    52f8:	842a                	mv	s0,a0
    52fa:	852e                	mv	a0,a1
    52fc:	b92fe0ef          	jal	ra,368e <ip_route>
    5300:	cd11                	beqz	a0,531c <tcp_eff_send_mss+0x28>
    5302:	391e                	lhu	a5,48(a0)
    5304:	cf81                	beqz	a5,531c <tcp_eff_send_mss+0x28>
    5306:	fd878793          	addi	a5,a5,-40
    530a:	873e                	mv	a4,a5
    530c:	07c2                	slli	a5,a5,0x10
    530e:	83c1                	srli	a5,a5,0x10
    5310:	00f47363          	bgeu	s0,a5,5316 <tcp_eff_send_mss+0x22>
    5314:	8722                	mv	a4,s0
    5316:	01071413          	slli	s0,a4,0x10
    531a:	8041                	srli	s0,s0,0x10
    531c:	8522                	mv	a0,s0
    531e:	ef7fa06f          	j	214 <__riscv_restore_0>

00005322 <tcp_oos_insert_segment>:
tcp_oos_insert_segment():
    5322:	eb5fa2ef          	jal	t0,1d6 <__riscv_save_4>
    5326:	491c                	lw	a5,16(a0)
    5328:	84aa                	mv	s1,a0
    532a:	8a2e                	mv	s4,a1
    532c:	27c8                	lbu	a0,12(a5)
    532e:	37dc                	lbu	a5,13(a5)
    5330:	07a2                	slli	a5,a5,0x8
    5332:	8d5d                	or	a0,a0,a5
    5334:	b1cfe0ef          	jal	ra,3650 <ntohs>
    5338:	8905                	andi	a0,a0,1
    533a:	e929                	bnez	a0,538c <tcp_oos_insert_segment+0x6a>
    533c:	6941                	lui	s2,0x10
    533e:	fc090913          	addi	s2,s2,-64 # ffc0 <_data_lma+0x615c>
    5342:	010a2703          	lw	a4,16(s4)
    5346:	9181a603          	lw	a2,-1768(gp) # 20000338 <seqno>
    534a:	24de                	lhu	a5,12(s1)
    534c:	3354                	lbu	a3,5(a4)
    534e:	234c                	lbu	a1,4(a4)
    5350:	97b2                	add	a5,a5,a2
    5352:	06a2                	slli	a3,a3,0x8
    5354:	8dd5                	or	a1,a1,a3
    5356:	2374                	lbu	a3,6(a4)
    5358:	06c2                	slli	a3,a3,0x10
    535a:	8ecd                	or	a3,a3,a1
    535c:	336c                	lbu	a1,7(a4)
    535e:	05e2                	slli	a1,a1,0x18
    5360:	8dd5                	or	a1,a1,a3
    5362:	00ca5683          	lhu	a3,12(s4)
    5366:	96ae                	add	a3,a3,a1
    5368:	40d786b3          	sub	a3,a5,a3
    536c:	0206d563          	bgez	a3,5396 <tcp_oos_insert_segment+0x74>
    5370:	8f8d                	sub	a5,a5,a1
    5372:	00f05963          	blez	a5,5384 <tcp_oos_insert_segment+0x62>
    5376:	8d91                	sub	a1,a1,a2
    5378:	05c2                	slli	a1,a1,0x10
    537a:	40c8                	lw	a0,4(s1)
    537c:	81c1                	srli	a1,a1,0x10
    537e:	a4ce                	sh	a1,12(s1)
    5380:	f5aff0ef          	jal	ra,4ada <pbuf_realloc>
    5384:	0144a023          	sw	s4,0(s1)
    5388:	e83fa06f          	j	20a <__riscv_restore_4>
    538c:	8552                	mv	a0,s4
    538e:	b87ff0ef          	jal	ra,4f14 <tcp_segs_free>
    5392:	4a01                	li	s4,0
    5394:	bfc5                	j	5384 <tcp_oos_insert_segment+0x62>
    5396:	375c                	lbu	a5,13(a4)
    5398:	2748                	lbu	a0,12(a4)
    539a:	07a2                	slli	a5,a5,0x8
    539c:	8d5d                	or	a0,a0,a5
    539e:	ab2fe0ef          	jal	ra,3650 <ntohs>
    53a2:	8905                	andi	a0,a0,1
    53a4:	cd15                	beqz	a0,53e0 <tcp_oos_insert_segment+0xbe>
    53a6:	489c                	lw	a5,16(s1)
    53a8:	37c0                	lbu	s0,13(a5)
    53aa:	27c8                	lbu	a0,12(a5)
    53ac:	0422                	slli	s0,s0,0x8
    53ae:	8c49                	or	s0,s0,a0
    53b0:	854a                	mv	a0,s2
    53b2:	a90fe0ef          	jal	ra,3642 <htons>
    53b6:	489c                	lw	a5,16(s1)
    53b8:	8c69                	and	s0,s0,a0
    53ba:	27c8                	lbu	a0,12(a5)
    53bc:	37dc                	lbu	a5,13(a5)
    53be:	07a2                	slli	a5,a5,0x8
    53c0:	8d5d                	or	a0,a0,a5
    53c2:	a8efe0ef          	jal	ra,3650 <ntohs>
    53c6:	03e57513          	andi	a0,a0,62
    53ca:	00156513          	ori	a0,a0,1
    53ce:	a74fe0ef          	jal	ra,3642 <htons>
    53d2:	489c                	lw	a5,16(s1)
    53d4:	8d41                	or	a0,a0,s0
    53d6:	0542                	slli	a0,a0,0x10
    53d8:	8141                	srli	a0,a0,0x10
    53da:	a7c8                	sb	a0,12(a5)
    53dc:	8121                	srli	a0,a0,0x8
    53de:	b7c8                	sb	a0,13(a5)
    53e0:	000a2403          	lw	s0,0(s4)
    53e4:	8552                	mv	a0,s4
    53e6:	b05ff0ef          	jal	ra,4eea <tcp_seg_free>
    53ea:	d445                	beqz	s0,5392 <tcp_oos_insert_segment+0x70>
    53ec:	8a22                	mv	s4,s0
    53ee:	bf91                	j	5342 <tcp_oos_insert_segment+0x20>

000053f0 <tcp_receive>:
tcp_receive():
    53f0:	dd9fa2ef          	jal	t0,1c8 <__riscv_save_10>
    53f4:	9081c783          	lbu	a5,-1784(gp) # 20000328 <flags>
    53f8:	842a                	mv	s0,a0
    53fa:	8bc1                	andi	a5,a5,16
    53fc:	91818993          	addi	s3,gp,-1768 # 20000338 <seqno>
    5400:	c7f1                	beqz	a5,54cc <tcp_receive+0xdc>
    5402:	0009a583          	lw	a1,0(s3)
    5406:	5538                	lw	a4,104(a0)
    5408:	06455683          	lhu	a3,100(a0)
    540c:	5570                	lw	a2,108(a0)
    540e:	40b70533          	sub	a0,a4,a1
    5412:	9041a783          	lw	a5,-1788(gp) # 20000324 <ackno>
    5416:	90418493          	addi	s1,gp,-1788 # 20000324 <ackno>
    541a:	02054463          	bltz	a0,5442 <tcp_receive+0x52>
    541e:	00b71663          	bne	a4,a1,542a <tcp_receive+0x3a>
    5422:	40f60733          	sub	a4,a2,a5
    5426:	00074e63          	bltz	a4,5442 <tcp_receive+0x52>
    542a:	02f61e63          	bne	a2,a5,5466 <tcp_receive+0x76>
    542e:	9201a503          	lw	a0,-1760(gp) # 20000340 <tcphdr>
    5432:	3578                	lbu	a4,15(a0)
    5434:	00e54803          	lbu	a6,14(a0)
    5438:	0722                	slli	a4,a4,0x8
    543a:	01076733          	or	a4,a4,a6
    543e:	02e6f463          	bgeu	a3,a4,5466 <tcp_receive+0x76>
    5442:	9201a503          	lw	a0,-1760(gp) # 20000340 <tcphdr>
    5446:	3578                	lbu	a4,15(a0)
    5448:	00e54803          	lbu	a6,14(a0)
    544c:	d42c                	sw	a1,104(s0)
    544e:	0722                	slli	a4,a4,0x8
    5450:	01076733          	or	a4,a4,a6
    5454:	06e41223          	sh	a4,100(s0)
    5458:	d47c                	sw	a5,108(s0)
    545a:	c711                	beqz	a4,5466 <tcp_receive+0x76>
    545c:	0b044703          	lbu	a4,176(s0)
    5460:	c319                	beqz	a4,5466 <tcp_receive+0x76>
    5462:	0a040823          	sb	zero,176(s0)
    5466:	486c                	lw	a1,84(s0)
    5468:	40b78733          	sub	a4,a5,a1
    546c:	2ee04263          	bgtz	a4,5750 <tcp_receive+0x360>
    5470:	9241d703          	lhu	a4,-1756(gp) # 20000344 <tcplen>
    5474:	06041a23          	sh	zero,116(s0)
    5478:	2c071963          	bnez	a4,574a <tcp_receive+0x35a>
    547c:	06445703          	lhu	a4,100(s0)
    5480:	5468                	lw	a0,108(s0)
    5482:	96b2                	add	a3,a3,a2
    5484:	972a                	add	a4,a4,a0
    5486:	2cd71263          	bne	a4,a3,574a <tcp_receive+0x35a>
    548a:	03e41703          	lh	a4,62(s0)
    548e:	2a074e63          	bltz	a4,574a <tcp_receive+0x35a>
    5492:	2af59c63          	bne	a1,a5,574a <tcp_receive+0x35a>
    5496:	05844783          	lbu	a5,88(s0)
    549a:	470d                	li	a4,3
    549c:	0785                	addi	a5,a5,1
    549e:	0ff7f793          	andi	a5,a5,255
    54a2:	04f40c23          	sb	a5,88(s0)
    54a6:	28f77c63          	bgeu	a4,a5,573e <tcp_receive+0x34e>
    54aa:	05a45703          	lhu	a4,90(s0)
    54ae:	04045783          	lhu	a5,64(s0)
    54b2:	97ba                	add	a5,a5,a4
    54b4:	07c2                	slli	a5,a5,0x10
    54b6:	83c1                	srli	a5,a5,0x10
    54b8:	00f77463          	bgeu	a4,a5,54c0 <tcp_receive+0xd0>
    54bc:	04f41d23          	sh	a5,90(s0)
    54c0:	5c7c                	lw	a5,124(s0)
    54c2:	3a079f63          	bnez	a5,5880 <tcp_receive+0x490>
    54c6:	4070                	lw	a2,68(s0)
    54c8:	44061a63          	bnez	a2,591c <tcp_receive+0x52c>
    54cc:	9241d603          	lhu	a2,-1756(gp) # 20000344 <tcplen>
    54d0:	0009a783          	lw	a5,0(s3)
    54d4:	5414                	lw	a3,40(s0)
    54d6:	92418a13          	addi	s4,gp,-1756 # 20000344 <tcplen>
    54da:	040600e3          	beqz	a2,5d1a <tcp_receive+0x92a>
    54de:	40f685b3          	sub	a1,a3,a5
    54e2:	fff58713          	addi	a4,a1,-1
    54e6:	4a074b63          	bltz	a4,599c <tcp_receive+0x5ac>
    54ea:	4705                	li	a4,1
    54ec:	8f1d                	sub	a4,a4,a5
    54ee:	8f11                	sub	a4,a4,a2
    54f0:	9736                	add	a4,a4,a3
    54f2:	4ae04563          	bgtz	a4,599c <tcp_receive+0x5ac>
    54f6:	20006937          	lui	s2,0x20006
    54fa:	79490793          	addi	a5,s2,1940 # 20006794 <inseg>
    54fe:	43c4                	lw	s1,4(a5)
    5500:	01059713          	slli	a4,a1,0x10
    5504:	8341                	srli	a4,a4,0x10
    5506:	24be                	lhu	a5,10(s1)
    5508:	79490913          	addi	s2,s2,1940
    550c:	48b7d363          	bge	a5,a1,5992 <tcp_receive+0x5a2>
    5510:	249e                	lhu	a5,8(s1)
    5512:	8f99                	sub	a5,a5,a4
    5514:	07c2                	slli	a5,a5,0x10
    5516:	83c1                	srli	a5,a5,0x10
    5518:	24ba                	lhu	a4,10(s1)
    551a:	46b74663          	blt	a4,a1,5986 <tcp_receive+0x596>
    551e:	40b005b3          	neg	a1,a1
    5522:	05c2                	slli	a1,a1,0x10
    5524:	85c1                	srai	a1,a1,0x10
    5526:	8526                	mv	a0,s1
    5528:	bb6ff0ef          	jal	ra,48de <pbuf_header>
    552c:	40dc                	lw	a5,4(s1)
    552e:	00c95683          	lhu	a3,12(s2)
    5532:	0009a703          	lw	a4,0(s3)
    5536:	00f92423          	sw	a5,8(s2)
    553a:	541c                	lw	a5,40(s0)
    553c:	9736                	add	a4,a4,a3
    553e:	8f1d                	sub	a4,a4,a5
    5540:	00e91623          	sh	a4,12(s2)
    5544:	01092703          	lw	a4,16(s2)
    5548:	0087d693          	srli	a3,a5,0x8
    554c:	00f9a023          	sw	a5,0(s3)
    5550:	a35c                	sb	a5,4(a4)
    5552:	b354                	sb	a3,5(a4)
    5554:	0107d693          	srli	a3,a5,0x10
    5558:	83e1                	srli	a5,a5,0x18
    555a:	a374                	sb	a3,6(a4)
    555c:	b37c                	sb	a5,7(a4)
    555e:	0009a683          	lw	a3,0(s3)
    5562:	5418                	lw	a4,40(s0)
    5564:	40e687b3          	sub	a5,a3,a4
    5568:	0007c963          	bltz	a5,557a <tcp_receive+0x18a>
    556c:	3452                	lhu	a2,44(s0)
    556e:	00168793          	addi	a5,a3,1
    5572:	8f99                	sub	a5,a5,a4
    5574:	8f91                	sub	a5,a5,a2
    5576:	44f05063          	blez	a5,59b6 <tcp_receive+0x5c6>
    557a:	200067b7          	lui	a5,0x20006
    557e:	7a47a783          	lw	a5,1956(a5) # 200067a4 <inseg+0x10>
    5582:	27c8                	lbu	a0,12(a5)
    5584:	37dc                	lbu	a5,13(a5)
    5586:	07a2                	slli	a5,a5,0x8
    5588:	8d5d                	or	a0,a0,a5
    558a:	8c6fe0ef          	jal	ra,3650 <ntohs>
    558e:	8905                	andi	a0,a0,1
    5590:	78050163          	beqz	a0,5d12 <tcp_receive+0x922>
    5594:	5418                	lw	a4,40(s0)
    5596:	0009a783          	lw	a5,0(s3)
    559a:	76f71c63          	bne	a4,a5,5d12 <tcp_receive+0x922>
    559e:	200064b7          	lui	s1,0x20006
    55a2:	79448a93          	addi	s5,s1,1940 # 20006794 <inseg>
    55a6:	010aa783          	lw	a5,16(s5)
    55aa:	00cad903          	lhu	s2,12(s5)
    55ae:	79448493          	addi	s1,s1,1940
    55b2:	27c8                	lbu	a0,12(a5)
    55b4:	37dc                	lbu	a5,13(a5)
    55b6:	07a2                	slli	a5,a5,0x8
    55b8:	8d5d                	or	a0,a0,a5
    55ba:	896fe0ef          	jal	ra,3650 <ntohs>
    55be:	890d                	andi	a0,a0,3
    55c0:	00a03533          	snez	a0,a0
    55c4:	992a                	add	s2,s2,a0
    55c6:	010aa783          	lw	a5,16(s5)
    55ca:	0942                	slli	s2,s2,0x10
    55cc:	01095913          	srli	s2,s2,0x10
    55d0:	012a1023          	sh	s2,0(s4)
    55d4:	27c8                	lbu	a0,12(a5)
    55d6:	37dc                	lbu	a5,13(a5)
    55d8:	07a2                	slli	a5,a5,0x8
    55da:	8d5d                	or	a0,a0,a5
    55dc:	874fe0ef          	jal	ra,3650 <ntohs>
    55e0:	8905                	andi	a0,a0,1
    55e2:	3e051c63          	bnez	a0,59da <tcp_receive+0x5ea>
    55e6:	345e                	lhu	a5,44(s0)
    55e8:	0b27f063          	bgeu	a5,s2,5688 <tcp_receive+0x298>
    55ec:	489c                	lw	a5,16(s1)
    55ee:	27c8                	lbu	a0,12(a5)
    55f0:	37dc                	lbu	a5,13(a5)
    55f2:	07a2                	slli	a5,a5,0x8
    55f4:	8d5d                	or	a0,a0,a5
    55f6:	85afe0ef          	jal	ra,3650 <ntohs>
    55fa:	8905                	andi	a0,a0,1
    55fc:	c131                	beqz	a0,5640 <tcp_receive+0x250>
    55fe:	489c                	lw	a5,16(s1)
    5600:	00d7c903          	lbu	s2,13(a5)
    5604:	27c8                	lbu	a0,12(a5)
    5606:	0922                	slli	s2,s2,0x8
    5608:	00a96933          	or	s2,s2,a0
    560c:	6541                	lui	a0,0x10
    560e:	fc050513          	addi	a0,a0,-64 # ffc0 <_data_lma+0x615c>
    5612:	830fe0ef          	jal	ra,3642 <htons>
    5616:	489c                	lw	a5,16(s1)
    5618:	00a97933          	and	s2,s2,a0
    561c:	27c8                	lbu	a0,12(a5)
    561e:	37dc                	lbu	a5,13(a5)
    5620:	07a2                	slli	a5,a5,0x8
    5622:	8d5d                	or	a0,a0,a5
    5624:	82cfe0ef          	jal	ra,3650 <ntohs>
    5628:	03e57513          	andi	a0,a0,62
    562c:	816fe0ef          	jal	ra,3642 <htons>
    5630:	489c                	lw	a5,16(s1)
    5632:	00a96533          	or	a0,s2,a0
    5636:	0542                	slli	a0,a0,0x10
    5638:	8141                	srli	a0,a0,0x10
    563a:	a7c8                	sb	a0,12(a5)
    563c:	8121                	srli	a0,a0,0x8
    563e:	b7c8                	sb	a0,13(a5)
    5640:	345e                	lhu	a5,44(s0)
    5642:	a4de                	sh	a5,12(s1)
    5644:	489c                	lw	a5,16(s1)
    5646:	27c8                	lbu	a0,12(a5)
    5648:	37dc                	lbu	a5,13(a5)
    564a:	07a2                	slli	a5,a5,0x8
    564c:	8d5d                	or	a0,a0,a5
    564e:	802fe0ef          	jal	ra,3650 <ntohs>
    5652:	8909                	andi	a0,a0,2
    5654:	c501                	beqz	a0,565c <tcp_receive+0x26c>
    5656:	24de                	lhu	a5,12(s1)
    5658:	17fd                	addi	a5,a5,-1
    565a:	a4de                	sh	a5,12(s1)
    565c:	24ce                	lhu	a1,12(s1)
    565e:	40c8                	lw	a0,4(s1)
    5660:	c7aff0ef          	jal	ra,4ada <pbuf_realloc>
    5664:	489c                	lw	a5,16(s1)
    5666:	00c4d903          	lhu	s2,12(s1)
    566a:	27c8                	lbu	a0,12(a5)
    566c:	37dc                	lbu	a5,13(a5)
    566e:	07a2                	slli	a5,a5,0x8
    5670:	8d5d                	or	a0,a0,a5
    5672:	fdffd0ef          	jal	ra,3650 <ntohs>
    5676:	890d                	andi	a0,a0,3
    5678:	00a03533          	snez	a0,a0
    567c:	992a                	add	s2,s2,a0
    567e:	0942                	slli	s2,s2,0x10
    5680:	01095913          	srli	s2,s2,0x10
    5684:	012a1023          	sh	s2,0(s4)
    5688:	08442783          	lw	a5,132(s0)
    568c:	36078463          	beqz	a5,59f4 <tcp_receive+0x604>
    5690:	489c                	lw	a5,16(s1)
    5692:	27c8                	lbu	a0,12(a5)
    5694:	37dc                	lbu	a5,13(a5)
    5696:	07a2                	slli	a5,a5,0x8
    5698:	8d5d                	or	a0,a0,a5
    569a:	fb7fd0ef          	jal	ra,3650 <ntohs>
    569e:	8905                	andi	a0,a0,1
    56a0:	34051763          	bnez	a0,59ee <tcp_receive+0x5fe>
    56a4:	08442b03          	lw	s6,132(s0)
    56a8:	6bc1                	lui	s7,0x10
    56aa:	fc0b8b93          	addi	s7,s7,-64 # ffc0 <_data_lma+0x615c>
    56ae:	0009a503          	lw	a0,0(s3)
    56b2:	000a5703          	lhu	a4,0(s4)
    56b6:	972a                	add	a4,a4,a0
    56b8:	080b0063          	beqz	s6,5738 <tcp_receive+0x348>
    56bc:	010b2603          	lw	a2,16(s6)
    56c0:	324c                	lbu	a1,5(a2)
    56c2:	2254                	lbu	a3,4(a2)
    56c4:	05a2                	slli	a1,a1,0x8
    56c6:	8dd5                	or	a1,a1,a3
    56c8:	2274                	lbu	a3,6(a2)
    56ca:	06c2                	slli	a3,a3,0x10
    56cc:	8dd5                	or	a1,a1,a3
    56ce:	3274                	lbu	a3,7(a2)
    56d0:	06e2                	slli	a3,a3,0x18
    56d2:	8ecd                	or	a3,a3,a1
    56d4:	00cb5583          	lhu	a1,12(s6)
    56d8:	95b6                	add	a1,a1,a3
    56da:	40b705b3          	sub	a1,a4,a1
    56de:	3605d263          	bgez	a1,5a42 <tcp_receive+0x652>
    56e2:	8f15                	sub	a4,a4,a3
    56e4:	04e05a63          	blez	a4,5738 <tcp_receive+0x348>
    56e8:	08442783          	lw	a5,132(s0)
    56ec:	4b98                	lw	a4,16(a5)
    56ee:	335c                	lbu	a5,5(a4)
    56f0:	2354                	lbu	a3,4(a4)
    56f2:	07a2                	slli	a5,a5,0x8
    56f4:	8fd5                	or	a5,a5,a3
    56f6:	8f89                	sub	a5,a5,a0
    56f8:	a4de                	sh	a5,12(s1)
    56fa:	489c                	lw	a5,16(s1)
    56fc:	27c8                	lbu	a0,12(a5)
    56fe:	37dc                	lbu	a5,13(a5)
    5700:	07a2                	slli	a5,a5,0x8
    5702:	8d5d                	or	a0,a0,a5
    5704:	f4dfd0ef          	jal	ra,3650 <ntohs>
    5708:	8909                	andi	a0,a0,2
    570a:	c501                	beqz	a0,5712 <tcp_receive+0x322>
    570c:	24de                	lhu	a5,12(s1)
    570e:	17fd                	addi	a5,a5,-1
    5710:	a4de                	sh	a5,12(s1)
    5712:	24ce                	lhu	a1,12(s1)
    5714:	40c8                	lw	a0,4(s1)
    5716:	bc4ff0ef          	jal	ra,4ada <pbuf_realloc>
    571a:	489c                	lw	a5,16(s1)
    571c:	00c4da83          	lhu	s5,12(s1)
    5720:	27c8                	lbu	a0,12(a5)
    5722:	37dc                	lbu	a5,13(a5)
    5724:	07a2                	slli	a5,a5,0x8
    5726:	8d5d                	or	a0,a0,a5
    5728:	f29fd0ef          	jal	ra,3650 <ntohs>
    572c:	890d                	andi	a0,a0,3
    572e:	00a03533          	snez	a0,a0
    5732:	9aaa                	add	s5,s5,a0
    5734:	015a1023          	sh	s5,0(s4)
    5738:	09642223          	sw	s6,132(s0)
    573c:	ac65                	j	59f4 <tcp_receive+0x604>
    573e:	d8e791e3          	bne	a5,a4,54c0 <tcp_receive+0xd0>
    5742:	8522                	mv	a0,s0
    5744:	38d010ef          	jal	ra,72d0 <tcp_rexmit_fast>
    5748:	bba5                	j	54c0 <tcp_receive+0xd0>
    574a:	04040c23          	sb	zero,88(s0)
    574e:	bb8d                	j	54c0 <tcp_receive+0xd0>
    5750:	5034                	lw	a3,96(s0)
    5752:	40d786b3          	sub	a3,a5,a3
    5756:	12d04263          	bgtz	a3,587a <tcp_receive+0x48a>
    575a:	02644683          	lbu	a3,38(s0)
    575e:	0046f613          	andi	a2,a3,4
    5762:	ca01                	beqz	a2,5772 <tcp_receive+0x382>
    5764:	9aed                	andi	a3,a3,-5
    5766:	02d40323          	sb	a3,38(s0)
    576a:	05c45683          	lhu	a3,92(s0)
    576e:	04d41d23          	sh	a3,90(s0)
    5772:	04c41683          	lh	a3,76(s0)
    5776:	04e45603          	lhu	a2,78(s0)
    577a:	0742                	slli	a4,a4,0x10
    577c:	868d                	srai	a3,a3,0x3
    577e:	96b2                	add	a3,a3,a2
    5780:	04d41823          	sh	a3,80(s0)
    5784:	07645683          	lhu	a3,118(s0)
    5788:	8341                	srli	a4,a4,0x10
    578a:	06e41a23          	sh	a4,116(s0)
    578e:	9736                	add	a4,a4,a3
    5790:	06e41b23          	sh	a4,118(s0)
    5794:	4818                	lw	a4,16(s0)
    5796:	c87c                	sw	a5,84(s0)
    5798:	04040923          	sb	zero,82(s0)
    579c:	04040c23          	sb	zero,88(s0)
    57a0:	478d                	li	a5,3
    57a2:	02e7f163          	bgeu	a5,a4,57c4 <tcp_receive+0x3d4>
    57a6:	05a45703          	lhu	a4,90(s0)
    57aa:	05c45683          	lhu	a3,92(s0)
    57ae:	04045783          	lhu	a5,64(s0)
    57b2:	02d77663          	bgeu	a4,a3,57de <tcp_receive+0x3ee>
    57b6:	97ba                	add	a5,a5,a4
    57b8:	07c2                	slli	a5,a5,0x10
    57ba:	83c1                	srli	a5,a5,0x10
    57bc:	00f77463          	bgeu	a4,a5,57c4 <tcp_receive+0x3d4>
    57c0:	04f41d23          	sh	a5,90(s0)
    57c4:	08042783          	lw	a5,128(s0)
    57c8:	e385                	bnez	a5,57e8 <tcp_receive+0x3f8>
    57ca:	08042783          	lw	a5,128(s0)
    57ce:	02040e23          	sb	zero,60(s0)
    57d2:	0017b793          	seqz	a5,a5
    57d6:	40f007b3          	neg	a5,a5
    57da:	bc7e                	sh	a5,62(s0)
    57dc:	b1d5                	j	54c0 <tcp_receive+0xd0>
    57de:	02f787b3          	mul	a5,a5,a5
    57e2:	02e7c7b3          	div	a5,a5,a4
    57e6:	bfc1                	j	57b6 <tcp_receive+0x3c6>
    57e8:	4b98                	lw	a4,16(a5)
    57ea:	3348                	lbu	a0,5(a4)
    57ec:	235c                	lbu	a5,4(a4)
    57ee:	0522                	slli	a0,a0,0x8
    57f0:	8d5d                	or	a0,a0,a5
    57f2:	237c                	lbu	a5,6(a4)
    57f4:	07c2                	slli	a5,a5,0x10
    57f6:	8fc9                	or	a5,a5,a0
    57f8:	3368                	lbu	a0,7(a4)
    57fa:	0562                	slli	a0,a0,0x18
    57fc:	8d5d                	or	a0,a0,a5
    57fe:	e85fd0ef          	jal	ra,3682 <ntohl>
    5802:	08042783          	lw	a5,128(s0)
    5806:	892a                	mv	s2,a0
    5808:	00c7da03          	lhu	s4,12(a5)
    580c:	4b9c                	lw	a5,16(a5)
    580e:	27c8                	lbu	a0,12(a5)
    5810:	37dc                	lbu	a5,13(a5)
    5812:	07a2                	slli	a5,a5,0x8
    5814:	8d5d                	or	a0,a0,a5
    5816:	e3bfd0ef          	jal	ra,3650 <ntohs>
    581a:	409c                	lw	a5,0(s1)
    581c:	890d                	andi	a0,a0,3
    581e:	00a03533          	snez	a0,a0
    5822:	9552                	add	a0,a0,s4
    5824:	40f90933          	sub	s2,s2,a5
    5828:	954a                	add	a0,a0,s2
    582a:	faa040e3          	bgtz	a0,57ca <tcp_receive+0x3da>
    582e:	08042903          	lw	s2,128(s0)
    5832:	00092783          	lw	a5,0(s2)
    5836:	08f42023          	sw	a5,128(s0)
    583a:	07445783          	lhu	a5,116(s0)
    583e:	c385                	beqz	a5,585e <tcp_receive+0x46e>
    5840:	01092783          	lw	a5,16(s2)
    5844:	27c8                	lbu	a0,12(a5)
    5846:	37dc                	lbu	a5,13(a5)
    5848:	07a2                	slli	a5,a5,0x8
    584a:	8d5d                	or	a0,a0,a5
    584c:	e05fd0ef          	jal	ra,3650 <ntohs>
    5850:	8905                	andi	a0,a0,1
    5852:	c511                	beqz	a0,585e <tcp_receive+0x46e>
    5854:	07445783          	lhu	a5,116(s0)
    5858:	17fd                	addi	a5,a5,-1
    585a:	06f41a23          	sh	a5,116(s0)
    585e:	00492503          	lw	a0,4(s2)
    5862:	ad0ff0ef          	jal	ra,4b32 <pbuf_clen>
    5866:	07845783          	lhu	a5,120(s0)
    586a:	40a78533          	sub	a0,a5,a0
    586e:	06a41c23          	sh	a0,120(s0)
    5872:	854a                	mv	a0,s2
    5874:	e76ff0ef          	jal	ra,4eea <tcp_seg_free>
    5878:	b7b1                	j	57c4 <tcp_receive+0x3d4>
    587a:	06041a23          	sh	zero,116(s0)
    587e:	b189                	j	54c0 <tcp_receive+0xd0>
    5880:	4b98                	lw	a4,16(a5)
    5882:	0004a903          	lw	s2,0(s1)
    5886:	3348                	lbu	a0,5(a4)
    5888:	235c                	lbu	a5,4(a4)
    588a:	0522                	slli	a0,a0,0x8
    588c:	8d5d                	or	a0,a0,a5
    588e:	237c                	lbu	a5,6(a4)
    5890:	07c2                	slli	a5,a5,0x10
    5892:	8fc9                	or	a5,a5,a0
    5894:	3368                	lbu	a0,7(a4)
    5896:	0562                	slli	a0,a0,0x18
    5898:	8d5d                	or	a0,a0,a5
    589a:	de9fd0ef          	jal	ra,3682 <ntohl>
    589e:	5c7c                	lw	a5,124(s0)
    58a0:	8aaa                	mv	s5,a0
    58a2:	41590933          	sub	s2,s2,s5
    58a6:	00c7da03          	lhu	s4,12(a5)
    58aa:	4b9c                	lw	a5,16(a5)
    58ac:	27c8                	lbu	a0,12(a5)
    58ae:	37dc                	lbu	a5,13(a5)
    58b0:	07a2                	slli	a5,a5,0x8
    58b2:	8d5d                	or	a0,a0,a5
    58b4:	d9dfd0ef          	jal	ra,3650 <ntohs>
    58b8:	890d                	andi	a0,a0,3
    58ba:	00a03533          	snez	a0,a0
    58be:	9552                	add	a0,a0,s4
    58c0:	40a90933          	sub	s2,s2,a0
    58c4:	c00941e3          	bltz	s2,54c6 <tcp_receive+0xd6>
    58c8:	409c                	lw	a5,0(s1)
    58ca:	5038                	lw	a4,96(s0)
    58cc:	8f99                	sub	a5,a5,a4
    58ce:	bef04ce3          	bgtz	a5,54c6 <tcp_receive+0xd6>
    58d2:	07c42903          	lw	s2,124(s0)
    58d6:	00092783          	lw	a5,0(s2)
    58da:	dc7c                	sw	a5,124(s0)
    58dc:	07445783          	lhu	a5,116(s0)
    58e0:	c385                	beqz	a5,5900 <tcp_receive+0x510>
    58e2:	01092783          	lw	a5,16(s2)
    58e6:	27c8                	lbu	a0,12(a5)
    58e8:	37dc                	lbu	a5,13(a5)
    58ea:	07a2                	slli	a5,a5,0x8
    58ec:	8d5d                	or	a0,a0,a5
    58ee:	d63fd0ef          	jal	ra,3650 <ntohs>
    58f2:	8905                	andi	a0,a0,1
    58f4:	c511                	beqz	a0,5900 <tcp_receive+0x510>
    58f6:	07445783          	lhu	a5,116(s0)
    58fa:	17fd                	addi	a5,a5,-1
    58fc:	06f41a23          	sh	a5,116(s0)
    5900:	00492503          	lw	a0,4(s2)
    5904:	a2eff0ef          	jal	ra,4b32 <pbuf_clen>
    5908:	07845783          	lhu	a5,120(s0)
    590c:	40a78533          	sub	a0,a5,a0
    5910:	06a41c23          	sh	a0,120(s0)
    5914:	854a                	mv	a0,s2
    5916:	dd4ff0ef          	jal	ra,4eea <tcp_seg_free>
    591a:	b65d                	j	54c0 <tcp_receive+0xd0>
    591c:	443c                	lw	a5,72(s0)
    591e:	4098                	lw	a4,0(s1)
    5920:	8f99                	sub	a5,a5,a4
    5922:	ba07d5e3          	bgez	a5,54cc <tcp_receive+0xdc>
    5926:	04c41683          	lh	a3,76(s0)
    592a:	8f81d703          	lhu	a4,-1800(gp) # 20000318 <tcp_ticks>
    592e:	0642                	slli	a2,a2,0x10
    5930:	4036d593          	srai	a1,a3,0x3
    5934:	8241                	srli	a2,a2,0x10
    5936:	05c2                	slli	a1,a1,0x10
    5938:	81c1                	srli	a1,a1,0x10
    593a:	40c707b3          	sub	a5,a4,a2
    593e:	8f8d                	sub	a5,a5,a1
    5940:	07c2                	slli	a5,a5,0x10
    5942:	83c1                	srli	a5,a5,0x10
    5944:	01079513          	slli	a0,a5,0x10
    5948:	97b6                	add	a5,a5,a3
    594a:	07c2                	slli	a5,a5,0x10
    594c:	87c1                	srai	a5,a5,0x10
    594e:	8541                	srai	a0,a0,0x10
    5950:	04f41623          	sh	a5,76(s0)
    5954:	00055763          	bgez	a0,5962 <tcp_receive+0x572>
    5958:	8e19                	sub	a2,a2,a4
    595a:	962e                	add	a2,a2,a1
    595c:	01061513          	slli	a0,a2,0x10
    5960:	8541                	srai	a0,a0,0x10
    5962:	04e41683          	lh	a3,78(s0)
    5966:	878d                	srai	a5,a5,0x3
    5968:	04042223          	sw	zero,68(s0)
    596c:	4026d713          	srai	a4,a3,0x2
    5970:	40e68733          	sub	a4,a3,a4
    5974:	972a                	add	a4,a4,a0
    5976:	0742                	slli	a4,a4,0x10
    5978:	8341                	srli	a4,a4,0x10
    597a:	97ba                	add	a5,a5,a4
    597c:	04e41723          	sh	a4,78(s0)
    5980:	04f41823          	sh	a5,80(s0)
    5984:	b6a1                	j	54cc <tcp_receive+0xdc>
    5986:	a49e                	sh	a5,8(s1)
    5988:	00049523          	sh	zero,10(s1)
    598c:	8d99                	sub	a1,a1,a4
    598e:	4084                	lw	s1,0(s1)
    5990:	b661                	j	5518 <tcp_receive+0x128>
    5992:	40e00733          	neg	a4,a4
    5996:	01071593          	slli	a1,a4,0x10
    599a:	b669                	j	5524 <tcp_receive+0x134>
    599c:	8f95                	sub	a5,a5,a3
    599e:	bc07d0e3          	bgez	a5,555e <tcp_receive+0x16e>
    59a2:	02644783          	lbu	a5,38(s0)
    59a6:	8522                	mv	a0,s0
    59a8:	0027e793          	ori	a5,a5,2
    59ac:	02f40323          	sb	a5,38(s0)
    59b0:	434010ef          	jal	ra,6de4 <tcp_output>
    59b4:	b66d                	j	555e <tcp_receive+0x16e>
    59b6:	bee684e3          	beq	a3,a4,559e <tcp_receive+0x1ae>
    59ba:	8522                	mv	a0,s0
    59bc:	3b8010ef          	jal	ra,6d74 <tcp_send_empty_ack>
    59c0:	08442483          	lw	s1,132(s0)
    59c4:	1e049463          	bnez	s1,5bac <tcp_receive+0x7bc>
    59c8:	20006537          	lui	a0,0x20006
    59cc:	79450513          	addi	a0,a0,1940 # 20006794 <inseg>
    59d0:	d62ff0ef          	jal	ra,4f32 <tcp_seg_copy>
    59d4:	08a42223          	sw	a0,132(s0)
    59d8:	aac1                	j	5ba8 <tcp_receive+0x7b8>
    59da:	197d                	addi	s2,s2,-1
    59dc:	0942                	slli	s2,s2,0x10
    59de:	01095913          	srli	s2,s2,0x10
    59e2:	b111                	j	55e6 <tcp_receive+0x1f6>
    59e4:	411c                	lw	a5,0(a0)
    59e6:	08f42223          	sw	a5,132(s0)
    59ea:	d00ff0ef          	jal	ra,4eea <tcp_seg_free>
    59ee:	08442503          	lw	a0,132(s0)
    59f2:	f96d                	bnez	a0,59e4 <tcp_receive+0x5f4>
    59f4:	0009a703          	lw	a4,0(s3)
    59f8:	000a5783          	lhu	a5,0(s4)
    59fc:	8522                	mv	a0,s0
    59fe:	97ba                	add	a5,a5,a4
    5a00:	d41c                	sw	a5,40(s0)
    5a02:	345e                	lhu	a5,44(s0)
    5a04:	41278933          	sub	s2,a5,s2
    5a08:	03241623          	sh	s2,44(s0)
    5a0c:	c5aff0ef          	jal	ra,4e66 <tcp_update_rcv_ann_wnd>
    5a10:	40dc                	lw	a5,4(s1)
    5a12:	279a                	lhu	a4,8(a5)
    5a14:	c709                	beqz	a4,5a1e <tcp_receive+0x62e>
    5a16:	90f1a823          	sw	a5,-1776(gp) # 20000330 <recv_data>
    5a1a:	0004a223          	sw	zero,4(s1)
    5a1e:	489c                	lw	a5,16(s1)
    5a20:	27c8                	lbu	a0,12(a5)
    5a22:	37dc                	lbu	a5,13(a5)
    5a24:	07a2                	slli	a5,a5,0x8
    5a26:	8d5d                	or	a0,a0,a5
    5a28:	c29fd0ef          	jal	ra,3650 <ntohs>
    5a2c:	8905                	andi	a0,a0,1
    5a2e:	c519                	beqz	a0,5a3c <tcp_receive+0x64c>
    5a30:	91418793          	addi	a5,gp,-1772 # 20000334 <recv_flags>
    5a34:	2398                	lbu	a4,0(a5)
    5a36:	02076713          	ori	a4,a4,32
    5a3a:	a398                	sb	a4,0(a5)
    5a3c:	4a91                	li	s5,4
    5a3e:	4b1d                	li	s6,7
    5a40:	aa39                	j	5b5e <tcp_receive+0x76e>
    5a42:	365c                	lbu	a5,13(a2)
    5a44:	2648                	lbu	a0,12(a2)
    5a46:	07a2                	slli	a5,a5,0x8
    5a48:	8d5d                	or	a0,a0,a5
    5a4a:	c07fd0ef          	jal	ra,3650 <ntohs>
    5a4e:	8905                	andi	a0,a0,1
    5a50:	c535                	beqz	a0,5abc <tcp_receive+0x6cc>
    5a52:	489c                	lw	a5,16(s1)
    5a54:	27c8                	lbu	a0,12(a5)
    5a56:	37dc                	lbu	a5,13(a5)
    5a58:	07a2                	slli	a5,a5,0x8
    5a5a:	8d5d                	or	a0,a0,a5
    5a5c:	bf5fd0ef          	jal	ra,3650 <ntohs>
    5a60:	8909                	andi	a0,a0,2
    5a62:	ed29                	bnez	a0,5abc <tcp_receive+0x6cc>
    5a64:	489c                	lw	a5,16(s1)
    5a66:	00d7ca83          	lbu	s5,13(a5)
    5a6a:	27c8                	lbu	a0,12(a5)
    5a6c:	0aa2                	slli	s5,s5,0x8
    5a6e:	00aaeab3          	or	s5,s5,a0
    5a72:	855e                	mv	a0,s7
    5a74:	bcffd0ef          	jal	ra,3642 <htons>
    5a78:	489c                	lw	a5,16(s1)
    5a7a:	00aafab3          	and	s5,s5,a0
    5a7e:	27c8                	lbu	a0,12(a5)
    5a80:	37dc                	lbu	a5,13(a5)
    5a82:	07a2                	slli	a5,a5,0x8
    5a84:	8d5d                	or	a0,a0,a5
    5a86:	bcbfd0ef          	jal	ra,3650 <ntohs>
    5a8a:	03e57513          	andi	a0,a0,62
    5a8e:	00156513          	ori	a0,a0,1
    5a92:	bb1fd0ef          	jal	ra,3642 <htons>
    5a96:	00aae533          	or	a0,s5,a0
    5a9a:	489c                	lw	a5,16(s1)
    5a9c:	0542                	slli	a0,a0,0x10
    5a9e:	8141                	srli	a0,a0,0x10
    5aa0:	00855713          	srli	a4,a0,0x8
    5aa4:	a7c8                	sb	a0,12(a5)
    5aa6:	b7d8                	sb	a4,13(a5)
    5aa8:	00c4da83          	lhu	s5,12(s1)
    5aac:	ba5fd0ef          	jal	ra,3650 <ntohs>
    5ab0:	890d                	andi	a0,a0,3
    5ab2:	00a03533          	snez	a0,a0
    5ab6:	9aaa                	add	s5,s5,a0
    5ab8:	015a1023          	sh	s5,0(s4)
    5abc:	000b2a83          	lw	s5,0(s6)
    5ac0:	855a                	mv	a0,s6
    5ac2:	c28ff0ef          	jal	ra,4eea <tcp_seg_free>
    5ac6:	8b56                	mv	s6,s5
    5ac8:	b6dd                	j	56ae <tcp_receive+0x2be>
    5aca:	00f9a023          	sw	a5,0(s3)
    5ace:	375c                	lbu	a5,13(a4)
    5ad0:	2748                	lbu	a0,12(a4)
    5ad2:	00c4db83          	lhu	s7,12(s1)
    5ad6:	07a2                	slli	a5,a5,0x8
    5ad8:	8d5d                	or	a0,a0,a5
    5ada:	b77fd0ef          	jal	ra,3650 <ntohs>
    5ade:	541c                	lw	a5,40(s0)
    5ae0:	890d                	andi	a0,a0,3
    5ae2:	00a03533          	snez	a0,a0
    5ae6:	955e                	add	a0,a0,s7
    5ae8:	953e                	add	a0,a0,a5
    5aea:	489c                	lw	a5,16(s1)
    5aec:	d408                	sw	a0,40(s0)
    5aee:	00c4db83          	lhu	s7,12(s1)
    5af2:	27c8                	lbu	a0,12(a5)
    5af4:	37dc                	lbu	a5,13(a5)
    5af6:	07a2                	slli	a5,a5,0x8
    5af8:	8d5d                	or	a0,a0,a5
    5afa:	b57fd0ef          	jal	ra,3650 <ntohs>
    5afe:	345e                	lhu	a5,44(s0)
    5b00:	890d                	andi	a0,a0,3
    5b02:	00a03533          	snez	a0,a0
    5b06:	955e                	add	a0,a0,s7
    5b08:	40a78533          	sub	a0,a5,a0
    5b0c:	b44a                	sh	a0,44(s0)
    5b0e:	8522                	mv	a0,s0
    5b10:	b56ff0ef          	jal	ra,4e66 <tcp_update_rcv_ann_wnd>
    5b14:	40cc                	lw	a1,4(s1)
    5b16:	259e                	lhu	a5,8(a1)
    5b18:	cb89                	beqz	a5,5b2a <tcp_receive+0x73a>
    5b1a:	91018793          	addi	a5,gp,-1776 # 20000330 <recv_data>
    5b1e:	4388                	lw	a0,0(a5)
    5b20:	cd35                	beqz	a0,5b9c <tcp_receive+0x7ac>
    5b22:	82cff0ef          	jal	ra,4b4e <pbuf_cat>
    5b26:	0004a223          	sw	zero,4(s1)
    5b2a:	489c                	lw	a5,16(s1)
    5b2c:	27c8                	lbu	a0,12(a5)
    5b2e:	37dc                	lbu	a5,13(a5)
    5b30:	07a2                	slli	a5,a5,0x8
    5b32:	8d5d                	or	a0,a0,a5
    5b34:	b1dfd0ef          	jal	ra,3650 <ntohs>
    5b38:	8905                	andi	a0,a0,1
    5b3a:	cd01                	beqz	a0,5b52 <tcp_receive+0x762>
    5b3c:	91418713          	addi	a4,gp,-1772 # 20000334 <recv_flags>
    5b40:	231c                	lbu	a5,0(a4)
    5b42:	0207e793          	ori	a5,a5,32
    5b46:	a31c                	sb	a5,0(a4)
    5b48:	481c                	lw	a5,16(s0)
    5b4a:	01579463          	bne	a5,s5,5b52 <tcp_receive+0x762>
    5b4e:	01642823          	sw	s6,16(s0)
    5b52:	409c                	lw	a5,0(s1)
    5b54:	8526                	mv	a0,s1
    5b56:	08f42223          	sw	a5,132(s0)
    5b5a:	b90ff0ef          	jal	ra,4eea <tcp_seg_free>
    5b5e:	08442483          	lw	s1,132(s0)
    5b62:	cc99                	beqz	s1,5b80 <tcp_receive+0x790>
    5b64:	4898                	lw	a4,16(s1)
    5b66:	3354                	lbu	a3,5(a4)
    5b68:	235c                	lbu	a5,4(a4)
    5b6a:	06a2                	slli	a3,a3,0x8
    5b6c:	8edd                	or	a3,a3,a5
    5b6e:	237c                	lbu	a5,6(a4)
    5b70:	07c2                	slli	a5,a5,0x10
    5b72:	8edd                	or	a3,a3,a5
    5b74:	337c                	lbu	a5,7(a4)
    5b76:	07e2                	slli	a5,a5,0x18
    5b78:	8fd5                	or	a5,a5,a3
    5b7a:	5414                	lw	a3,40(s0)
    5b7c:	f4d787e3          	beq	a5,a3,5aca <tcp_receive+0x6da>
    5b80:	02644783          	lbu	a5,38(s0)
    5b84:	0017f713          	andi	a4,a5,1
    5b88:	cf01                	beqz	a4,5ba0 <tcp_receive+0x7b0>
    5b8a:	9bf9                	andi	a5,a5,-2
    5b8c:	0027e793          	ori	a5,a5,2
    5b90:	02f40323          	sb	a5,38(s0)
    5b94:	8522                	mv	a0,s0
    5b96:	24e010ef          	jal	ra,6de4 <tcp_output>
    5b9a:	a039                	j	5ba8 <tcp_receive+0x7b8>
    5b9c:	c38c                	sw	a1,0(a5)
    5b9e:	b761                	j	5b26 <tcp_receive+0x736>
    5ba0:	0017e793          	ori	a5,a5,1
    5ba4:	02f40323          	sb	a5,38(s0)
    5ba8:	e58fa06f          	j	200 <__riscv_restore_10>
    5bac:	0009a703          	lw	a4,0(s3)
    5bb0:	4901                	li	s2,0
    5bb2:	fff70513          	addi	a0,a4,-1
    5bb6:	00170813          	addi	a6,a4,1
    5bba:	4890                	lw	a2,16(s1)
    5bbc:	3254                	lbu	a3,5(a2)
    5bbe:	225c                	lbu	a5,4(a2)
    5bc0:	06a2                	slli	a3,a3,0x8
    5bc2:	8edd                	or	a3,a3,a5
    5bc4:	227c                	lbu	a5,6(a2)
    5bc6:	07c2                	slli	a5,a5,0x10
    5bc8:	8edd                	or	a3,a3,a5
    5bca:	327c                	lbu	a5,7(a2)
    5bcc:	07e2                	slli	a5,a5,0x18
    5bce:	8fd5                	or	a5,a5,a3
    5bd0:	02e79c63          	bne	a5,a4,5c08 <tcp_receive+0x818>
    5bd4:	20006537          	lui	a0,0x20006
    5bd8:	79450793          	addi	a5,a0,1940 # 20006794 <inseg>
    5bdc:	27da                	lhu	a4,12(a5)
    5bde:	24de                	lhu	a5,12(s1)
    5be0:	fce7f4e3          	bgeu	a5,a4,5ba8 <tcp_receive+0x7b8>
    5be4:	79450513          	addi	a0,a0,1940
    5be8:	b4aff0ef          	jal	ra,4f32 <tcp_seg_copy>
    5bec:	dd55                	beqz	a0,5ba8 <tcp_receive+0x7b8>
    5bee:	00090a63          	beqz	s2,5c02 <tcp_receive+0x812>
    5bf2:	00a92023          	sw	a0,0(s2)
    5bf6:	85a6                	mv	a1,s1
    5bf8:	f2aff0ef          	jal	ra,5322 <tcp_oos_insert_segment>
    5bfc:	b775                	j	5ba8 <tcp_receive+0x7b8>
    5bfe:	84b6                	mv	s1,a3
    5c00:	bf6d                	j	5bba <tcp_receive+0x7ca>
    5c02:	08a42223          	sw	a0,132(s0)
    5c06:	bfc5                	j	5bf6 <tcp_receive+0x806>
    5c08:	02091063          	bnez	s2,5c28 <tcp_receive+0x838>
    5c0c:	40f706b3          	sub	a3,a4,a5
    5c10:	0806de63          	bgez	a3,5cac <tcp_receive+0x8bc>
    5c14:	20006537          	lui	a0,0x20006
    5c18:	79450513          	addi	a0,a0,1940 # 20006794 <inseg>
    5c1c:	b16ff0ef          	jal	ra,4f32 <tcp_seg_copy>
    5c20:	d541                	beqz	a0,5ba8 <tcp_receive+0x7b8>
    5c22:	08a42223          	sw	a0,132(s0)
    5c26:	bfc1                	j	5bf6 <tcp_receive+0x806>
    5c28:	01092883          	lw	a7,16(s2)
    5c2c:	0058c583          	lbu	a1,5(a7)
    5c30:	0048c683          	lbu	a3,4(a7)
    5c34:	05a2                	slli	a1,a1,0x8
    5c36:	8dd5                	or	a1,a1,a3
    5c38:	0068c683          	lbu	a3,6(a7)
    5c3c:	06c2                	slli	a3,a3,0x10
    5c3e:	8dd5                	or	a1,a1,a3
    5c40:	0078c683          	lbu	a3,7(a7)
    5c44:	06e2                	slli	a3,a3,0x18
    5c46:	8ecd                	or	a3,a3,a1
    5c48:	40d506b3          	sub	a3,a0,a3
    5c4c:	0606c063          	bltz	a3,5cac <tcp_receive+0x8bc>
    5c50:	40f806b3          	sub	a3,a6,a5
    5c54:	04d04c63          	bgtz	a3,5cac <tcp_receive+0x8bc>
    5c58:	20006537          	lui	a0,0x20006
    5c5c:	79450513          	addi	a0,a0,1940 # 20006794 <inseg>
    5c60:	ad2ff0ef          	jal	ra,4f32 <tcp_seg_copy>
    5c64:	842a                	mv	s0,a0
    5c66:	d129                	beqz	a0,5ba8 <tcp_receive+0x7b8>
    5c68:	01092703          	lw	a4,16(s2)
    5c6c:	335c                	lbu	a5,5(a4)
    5c6e:	234c                	lbu	a1,4(a4)
    5c70:	07a2                	slli	a5,a5,0x8
    5c72:	8ddd                	or	a1,a1,a5
    5c74:	237c                	lbu	a5,6(a4)
    5c76:	07c2                	slli	a5,a5,0x10
    5c78:	8fcd                	or	a5,a5,a1
    5c7a:	336c                	lbu	a1,7(a4)
    5c7c:	00c95703          	lhu	a4,12(s2)
    5c80:	05e2                	slli	a1,a1,0x18
    5c82:	8fcd                	or	a5,a5,a1
    5c84:	0009a583          	lw	a1,0(s3)
    5c88:	973e                	add	a4,a4,a5
    5c8a:	8f0d                	sub	a4,a4,a1
    5c8c:	00e05b63          	blez	a4,5ca2 <tcp_receive+0x8b2>
    5c90:	8d9d                	sub	a1,a1,a5
    5c92:	05c2                	slli	a1,a1,0x10
    5c94:	00492503          	lw	a0,4(s2)
    5c98:	81c1                	srli	a1,a1,0x10
    5c9a:	00b91623          	sh	a1,12(s2)
    5c9e:	e3dfe0ef          	jal	ra,4ada <pbuf_realloc>
    5ca2:	00892023          	sw	s0,0(s2)
    5ca6:	85a6                	mv	a1,s1
    5ca8:	8522                	mv	a0,s0
    5caa:	b7b9                	j	5bf8 <tcp_receive+0x808>
    5cac:	4094                	lw	a3,0(s1)
    5cae:	8926                	mv	s2,s1
    5cb0:	f6b9                	bnez	a3,5bfe <tcp_receive+0x80e>
    5cb2:	40f707b3          	sub	a5,a4,a5
    5cb6:	eef059e3          	blez	a5,5ba8 <tcp_receive+0x7b8>
    5cba:	365c                	lbu	a5,13(a2)
    5cbc:	2648                	lbu	a0,12(a2)
    5cbe:	07a2                	slli	a5,a5,0x8
    5cc0:	8d5d                	or	a0,a0,a5
    5cc2:	98ffd0ef          	jal	ra,3650 <ntohs>
    5cc6:	8905                	andi	a0,a0,1
    5cc8:	ee0510e3          	bnez	a0,5ba8 <tcp_receive+0x7b8>
    5ccc:	20006537          	lui	a0,0x20006
    5cd0:	79450513          	addi	a0,a0,1940 # 20006794 <inseg>
    5cd4:	a5eff0ef          	jal	ra,4f32 <tcp_seg_copy>
    5cd8:	c088                	sw	a0,0(s1)
    5cda:	ec0507e3          	beqz	a0,5ba8 <tcp_receive+0x7b8>
    5cde:	4898                	lw	a4,16(s1)
    5ce0:	335c                	lbu	a5,5(a4)
    5ce2:	234c                	lbu	a1,4(a4)
    5ce4:	07a2                	slli	a5,a5,0x8
    5ce6:	8ddd                	or	a1,a1,a5
    5ce8:	237c                	lbu	a5,6(a4)
    5cea:	07c2                	slli	a5,a5,0x10
    5cec:	8fcd                	or	a5,a5,a1
    5cee:	336c                	lbu	a1,7(a4)
    5cf0:	24da                	lhu	a4,12(s1)
    5cf2:	05e2                	slli	a1,a1,0x18
    5cf4:	8fcd                	or	a5,a5,a1
    5cf6:	0009a583          	lw	a1,0(s3)
    5cfa:	973e                	add	a4,a4,a5
    5cfc:	8f0d                	sub	a4,a4,a1
    5cfe:	eae055e3          	blez	a4,5ba8 <tcp_receive+0x7b8>
    5d02:	8d9d                	sub	a1,a1,a5
    5d04:	05c2                	slli	a1,a1,0x10
    5d06:	40c8                	lw	a0,4(s1)
    5d08:	81c1                	srli	a1,a1,0x10
    5d0a:	a4ce                	sh	a1,12(s1)
    5d0c:	dcffe0ef          	jal	ra,4ada <pbuf_realloc>
    5d10:	bd61                	j	5ba8 <tcp_receive+0x7b8>
    5d12:	8522                	mv	a0,s0
    5d14:	060010ef          	jal	ra,6d74 <tcp_send_empty_ack>
    5d18:	bd41                	j	5ba8 <tcp_receive+0x7b8>
    5d1a:	40d78733          	sub	a4,a5,a3
    5d1e:	00074863          	bltz	a4,5d2e <tcp_receive+0x93e>
    5d22:	345a                	lhu	a4,44(s0)
    5d24:	0785                	addi	a5,a5,1
    5d26:	8f95                	sub	a5,a5,a3
    5d28:	8f99                	sub	a5,a5,a4
    5d2a:	e6f05fe3          	blez	a5,5ba8 <tcp_receive+0x7b8>
    5d2e:	02644783          	lbu	a5,38(s0)
    5d32:	bda9                	j	5b8c <tcp_receive+0x79c>

00005d34 <tcp_parseopt.isra.0>:
tcp_parseopt.isra.0():
    5d34:	cbcfa2ef          	jal	t0,1f0 <__riscv_save_0>
    5d38:	92018493          	addi	s1,gp,-1760 # 20000340 <tcphdr>
    5d3c:	0004a903          	lw	s2,0(s1)
    5d40:	842a                	mv	s0,a0
    5d42:	00d94783          	lbu	a5,13(s2)
    5d46:	00c94503          	lbu	a0,12(s2)
    5d4a:	07a2                	slli	a5,a5,0x8
    5d4c:	8d5d                	or	a0,a0,a5
    5d4e:	903fd0ef          	jal	ra,3650 <ntohs>
    5d52:	8131                	srli	a0,a0,0xc
    5d54:	0542                	slli	a0,a0,0x10
    5d56:	8141                	srli	a0,a0,0x10
    5d58:	4795                	li	a5,5
    5d5a:	02a7fc63          	bgeu	a5,a0,5d92 <tcp_parseopt.isra.0+0x5e>
    5d5e:	409c                	lw	a5,0(s1)
    5d60:	0951                	addi	s2,s2,20
    5d62:	27c8                	lbu	a0,12(a5)
    5d64:	37dc                	lbu	a5,13(a5)
    5d66:	07a2                	slli	a5,a5,0x8
    5d68:	8d5d                	or	a0,a0,a5
    5d6a:	8e7fd0ef          	jal	ra,3650 <ntohs>
    5d6e:	200067b7          	lui	a5,0x20006
    5d72:	7147a603          	lw	a2,1812(a5) # 20006714 <WCHCfg+0x4>
    5d76:	8131                	srli	a0,a0,0xc
    5d78:	156d                	addi	a0,a0,-5
    5d7a:	050a                	slli	a0,a0,0x2
    5d7c:	0542                	slli	a0,a0,0x10
    5d7e:	01061593          	slli	a1,a2,0x10
    5d82:	8141                	srli	a0,a0,0x10
    5d84:	81c1                	srli	a1,a1,0x10
    5d86:	4781                	li	a5,0
    5d88:	4805                	li	a6,1
    5d8a:	4889                	li	a7,2
    5d8c:	4311                	li	t1,4
    5d8e:	00a7e463          	bltu	a5,a0,5d96 <tcp_parseopt.isra.0+0x62>
    5d92:	c82fa06f          	j	214 <__riscv_restore_0>
    5d96:	00f906b3          	add	a3,s2,a5
    5d9a:	2298                	lbu	a4,0(a3)
    5d9c:	01070963          	beq	a4,a6,5dae <tcp_parseopt.isra.0+0x7a>
    5da0:	db6d                	beqz	a4,5d92 <tcp_parseopt.isra.0+0x5e>
    5da2:	01170a63          	beq	a4,a7,5db6 <tcp_parseopt.isra.0+0x82>
    5da6:	3298                	lbu	a4,1(a3)
    5da8:	d76d                	beqz	a4,5d92 <tcp_parseopt.isra.0+0x5e>
    5daa:	97ba                	add	a5,a5,a4
    5dac:	a011                	j	5db0 <tcp_parseopt.isra.0+0x7c>
    5dae:	0785                	addi	a5,a5,1
    5db0:	07c2                	slli	a5,a5,0x10
    5db2:	83c1                	srli	a5,a5,0x10
    5db4:	bfe9                	j	5d8e <tcp_parseopt.isra.0+0x5a>
    5db6:	3298                	lbu	a4,1(a3)
    5db8:	fc671de3          	bne	a4,t1,5d92 <tcp_parseopt.isra.0+0x5e>
    5dbc:	00378713          	addi	a4,a5,3
    5dc0:	fca759e3          	bge	a4,a0,5d92 <tcp_parseopt.isra.0+0x5e>
    5dc4:	22b8                	lbu	a4,2(a3)
    5dc6:	32b4                	lbu	a3,3(a3)
    5dc8:	0722                	slli	a4,a4,0x8
    5dca:	8f55                	or	a4,a4,a3
    5dcc:	00e66363          	bltu	a2,a4,5dd2 <tcp_parseopt.isra.0+0x9e>
    5dd0:	e311                	bnez	a4,5dd4 <tcp_parseopt.isra.0+0xa0>
    5dd2:	872e                	mv	a4,a1
    5dd4:	a01a                	sh	a4,0(s0)
    5dd6:	0791                	addi	a5,a5,4
    5dd8:	bfe1                	j	5db0 <tcp_parseopt.isra.0+0x7c>

00005dda <tcp_input>:
tcp_input():
    5dda:	be6fa2ef          	jal	t0,1c0 <__riscv_save_12>
    5dde:	4140                	lw	s0,4(a0)
    5de0:	8baa                	mv	s7,a0
    5de2:	301c                	lbu	a5,1(s0)
    5de4:	2008                	lbu	a0,0(s0)
    5de6:	1141                	addi	sp,sp,-16
    5de8:	07a2                	slli	a5,a5,0x8
    5dea:	90c18913          	addi	s2,gp,-1780 # 2000032c <iphdr>
    5dee:	8d5d                	or	a0,a0,a5
    5df0:	89ae                	mv	s3,a1
    5df2:	00892023          	sw	s0,0(s2)
    5df6:	85bfd0ef          	jal	ra,3650 <ntohs>
    5dfa:	00092783          	lw	a5,0(s2)
    5dfe:	8119                	srli	a0,a0,0x6
    5e00:	03c57513          	andi	a0,a0,60
    5e04:	942a                	add	s0,s0,a0
    5e06:	2388                	lbu	a0,0(a5)
    5e08:	339c                	lbu	a5,1(a5)
    5e0a:	9281a023          	sw	s0,-1760(gp) # 20000340 <tcphdr>
    5e0e:	07a2                	slli	a5,a5,0x8
    5e10:	8d5d                	or	a0,a0,a5
    5e12:	83ffd0ef          	jal	ra,3650 <ntohs>
    5e16:	00655593          	srli	a1,a0,0x6
    5e1a:	03c5f593          	andi	a1,a1,60
    5e1e:	40b005b3          	neg	a1,a1
    5e22:	855e                	mv	a0,s7
    5e24:	abbfe0ef          	jal	ra,48de <pbuf_header>
    5e28:	e511                	bnez	a0,5e34 <tcp_input+0x5a>
    5e2a:	008bd703          	lhu	a4,8(s7)
    5e2e:	47cd                	li	a5,19
    5e30:	00e7e863          	bltu	a5,a4,5e40 <tcp_input+0x66>
    5e34:	855e                	mv	a0,s7
    5e36:	b17fe0ef          	jal	ra,494c <pbuf_free>
    5e3a:	0141                	addi	sp,sp,16
    5e3c:	bc0fa06f          	j	1fc <__riscv_restore_12>
    5e40:	90c18b13          	addi	s6,gp,-1780 # 2000032c <iphdr>
    5e44:	000b2503          	lw	a0,0(s6)
    5e48:	85ce                	mv	a1,s3
    5e4a:	0541                	addi	a0,a0,16
    5e4c:	cb9fd0ef          	jal	ra,3b04 <ip_addr_isbroadcast>
    5e50:	f175                	bnez	a0,5e34 <tcp_input+0x5a>
    5e52:	000b2703          	lw	a4,0(s6)
    5e56:	f0000537          	lui	a0,0xf0000
    5e5a:	3b1c                	lbu	a5,17(a4)
    5e5c:	2b00                	lbu	s0,16(a4)
    5e5e:	07a2                	slli	a5,a5,0x8
    5e60:	8fc1                	or	a5,a5,s0
    5e62:	2b20                	lbu	s0,18(a4)
    5e64:	0442                	slli	s0,s0,0x10
    5e66:	8fc1                	or	a5,a5,s0
    5e68:	3b20                	lbu	s0,19(a4)
    5e6a:	0462                	slli	s0,s0,0x18
    5e6c:	8c5d                	or	s0,s0,a5
    5e6e:	815fd0ef          	jal	ra,3682 <ntohl>
    5e72:	8c69                	and	s0,s0,a0
    5e74:	e0000537          	lui	a0,0xe0000
    5e78:	80bfd0ef          	jal	ra,3682 <ntohl>
    5e7c:	faa40ce3          	beq	s0,a0,5e34 <tcp_input+0x5a>
    5e80:	000b2583          	lw	a1,0(s6)
    5e84:	008bd703          	lhu	a4,8(s7)
    5e88:	4699                	li	a3,6
    5e8a:	01058613          	addi	a2,a1,16
    5e8e:	855e                	mv	a0,s7
    5e90:	05b1                	addi	a1,a1,12
    5e92:	477010ef          	jal	ra,7b08 <inet_chksum_pseudo>
    5e96:	fd59                	bnez	a0,5e34 <tcp_input+0x5a>
    5e98:	92018493          	addi	s1,gp,-1760 # 20000340 <tcphdr>
    5e9c:	409c                	lw	a5,0(s1)
    5e9e:	27c8                	lbu	a0,12(a5)
    5ea0:	37dc                	lbu	a5,13(a5)
    5ea2:	07a2                	slli	a5,a5,0x8
    5ea4:	8d5d                	or	a0,a0,a5
    5ea6:	faafd0ef          	jal	ra,3650 <ntohs>
    5eaa:	8131                	srli	a0,a0,0xc
    5eac:	55f1                	li	a1,-4
    5eae:	02b505b3          	mul	a1,a0,a1
    5eb2:	855e                	mv	a0,s7
    5eb4:	05c2                	slli	a1,a1,0x10
    5eb6:	85c1                	srai	a1,a1,0x10
    5eb8:	a27fe0ef          	jal	ra,48de <pbuf_header>
    5ebc:	fd25                	bnez	a0,5e34 <tcp_input+0x5a>
    5ebe:	4080                	lw	s0,0(s1)
    5ec0:	301c                	lbu	a5,1(s0)
    5ec2:	2008                	lbu	a0,0(s0)
    5ec4:	07a2                	slli	a5,a5,0x8
    5ec6:	8d5d                	or	a0,a0,a5
    5ec8:	f88fd0ef          	jal	ra,3650 <ntohs>
    5ecc:	a008                	sb	a0,0(s0)
    5ece:	8121                	srli	a0,a0,0x8
    5ed0:	b008                	sb	a0,1(s0)
    5ed2:	4080                	lw	s0,0(s1)
    5ed4:	303c                	lbu	a5,3(s0)
    5ed6:	2028                	lbu	a0,2(s0)
    5ed8:	07a2                	slli	a5,a5,0x8
    5eda:	8d5d                	or	a0,a0,a5
    5edc:	f74fd0ef          	jal	ra,3650 <ntohs>
    5ee0:	a028                	sb	a0,2(s0)
    5ee2:	8121                	srli	a0,a0,0x8
    5ee4:	b028                	sb	a0,3(s0)
    5ee6:	4080                	lw	s0,0(s1)
    5ee8:	3048                	lbu	a0,5(s0)
    5eea:	205c                	lbu	a5,4(s0)
    5eec:	0522                	slli	a0,a0,0x8
    5eee:	8d5d                	or	a0,a0,a5
    5ef0:	207c                	lbu	a5,6(s0)
    5ef2:	07c2                	slli	a5,a5,0x10
    5ef4:	8fc9                	or	a5,a5,a0
    5ef6:	3068                	lbu	a0,7(s0)
    5ef8:	0562                	slli	a0,a0,0x18
    5efa:	8d5d                	or	a0,a0,a5
    5efc:	f86fd0ef          	jal	ra,3682 <ntohl>
    5f00:	00855793          	srli	a5,a0,0x8
    5f04:	b05c                	sb	a5,5(s0)
    5f06:	01055793          	srli	a5,a0,0x10
    5f0a:	a07c                	sb	a5,6(s0)
    5f0c:	01855793          	srli	a5,a0,0x18
    5f10:	a048                	sb	a0,4(s0)
    5f12:	b07c                	sb	a5,7(s0)
    5f14:	4080                	lw	s0,0(s1)
    5f16:	90a1ac23          	sw	a0,-1768(gp) # 20000338 <seqno>
    5f1a:	91818a93          	addi	s5,gp,-1768 # 20000338 <seqno>
    5f1e:	3408                	lbu	a0,9(s0)
    5f20:	241c                	lbu	a5,8(s0)
    5f22:	0522                	slli	a0,a0,0x8
    5f24:	8d5d                	or	a0,a0,a5
    5f26:	243c                	lbu	a5,10(s0)
    5f28:	07c2                	slli	a5,a5,0x10
    5f2a:	8fc9                	or	a5,a5,a0
    5f2c:	3428                	lbu	a0,11(s0)
    5f2e:	0562                	slli	a0,a0,0x18
    5f30:	8d5d                	or	a0,a0,a5
    5f32:	f50fd0ef          	jal	ra,3682 <ntohl>
    5f36:	00855793          	srli	a5,a0,0x8
    5f3a:	b41c                	sb	a5,9(s0)
    5f3c:	01055793          	srli	a5,a0,0x10
    5f40:	a43c                	sb	a5,10(s0)
    5f42:	01855793          	srli	a5,a0,0x18
    5f46:	a408                	sb	a0,8(s0)
    5f48:	b43c                	sb	a5,11(s0)
    5f4a:	4080                	lw	s0,0(s1)
    5f4c:	90a1a223          	sw	a0,-1788(gp) # 20000324 <ackno>
    5f50:	90418913          	addi	s2,gp,-1788 # 20000324 <ackno>
    5f54:	347c                	lbu	a5,15(s0)
    5f56:	2468                	lbu	a0,14(s0)
    5f58:	07a2                	slli	a5,a5,0x8
    5f5a:	8d5d                	or	a0,a0,a5
    5f5c:	ef4fd0ef          	jal	ra,3650 <ntohs>
    5f60:	409c                	lw	a5,0(s1)
    5f62:	a468                	sb	a0,14(s0)
    5f64:	8121                	srli	a0,a0,0x8
    5f66:	b468                	sb	a0,15(s0)
    5f68:	27c8                	lbu	a0,12(a5)
    5f6a:	37dc                	lbu	a5,13(a5)
    5f6c:	07a2                	slli	a5,a5,0x8
    5f6e:	8d5d                	or	a0,a0,a5
    5f70:	ee0fd0ef          	jal	ra,3650 <ntohs>
    5f74:	0ff57893          	andi	a7,a0,255
    5f78:	008bd503          	lhu	a0,8(s7)
    5f7c:	0038f593          	andi	a1,a7,3
    5f80:	00b035b3          	snez	a1,a1
    5f84:	95aa                	add	a1,a1,a0
    5f86:	8ec1a303          	lw	t1,-1812(gp) # 2000030c <tcp_active_pcbs>
    5f8a:	05c2                	slli	a1,a1,0x10
    5f8c:	4094                	lw	a3,0(s1)
    5f8e:	000b2803          	lw	a6,0(s6)
    5f92:	03f8f793          	andi	a5,a7,63
    5f96:	81c1                	srli	a1,a1,0x10
    5f98:	90f18423          	sb	a5,-1784(gp) # 20000328 <flags>
    5f9c:	92b19223          	sh	a1,-1756(gp) # 20000344 <tcplen>
    5fa0:	841a                	mv	s0,t1
    5fa2:	4601                	li	a2,0
    5fa4:	90818c93          	addi	s9,gp,-1784 # 20000328 <flags>
    5fa8:	92418c13          	addi	s8,gp,-1756 # 20000344 <tcplen>
    5fac:	e401                	bnez	s0,5fb4 <tcp_input+0x1da>
    5fae:	9001a503          	lw	a0,-1792(gp) # 20000320 <tcp_tw_pcbs>
    5fb2:	aac9                	j	6184 <tcp_input+0x3aa>
    5fb4:	329c                	lbu	a5,1(a3)
    5fb6:	0006ce03          	lbu	t3,0(a3)
    5fba:	305a                	lhu	a4,36(s0)
    5fbc:	07a2                	slli	a5,a5,0x8
    5fbe:	01c7e7b3          	or	a5,a5,t3
    5fc2:	0ef71963          	bne	a4,a5,60b4 <tcp_input+0x2da>
    5fc6:	32bc                	lbu	a5,3(a3)
    5fc8:	0026ce03          	lbu	t3,2(a3)
    5fcc:	2c5a                	lhu	a4,28(s0)
    5fce:	07a2                	slli	a5,a5,0x8
    5fd0:	01c7e7b3          	or	a5,a5,t3
    5fd4:	0ef71063          	bne	a4,a5,60b4 <tcp_input+0x2da>
    5fd8:	00d84703          	lbu	a4,13(a6)
    5fdc:	00c84783          	lbu	a5,12(a6)
    5fe0:	0722                	slli	a4,a4,0x8
    5fe2:	8f5d                	or	a4,a4,a5
    5fe4:	00e84783          	lbu	a5,14(a6)
    5fe8:	07c2                	slli	a5,a5,0x10
    5fea:	8f5d                	or	a4,a4,a5
    5fec:	00f84783          	lbu	a5,15(a6)
    5ff0:	07e2                	slli	a5,a5,0x18
    5ff2:	8fd9                	or	a5,a5,a4
    5ff4:	4058                	lw	a4,4(s0)
    5ff6:	0af71f63          	bne	a4,a5,60b4 <tcp_input+0x2da>
    5ffa:	01184703          	lbu	a4,17(a6)
    5ffe:	01084783          	lbu	a5,16(a6)
    6002:	0722                	slli	a4,a4,0x8
    6004:	8f5d                	or	a4,a4,a5
    6006:	01284783          	lbu	a5,18(a6)
    600a:	07c2                	slli	a5,a5,0x10
    600c:	8f5d                	or	a4,a4,a5
    600e:	01384783          	lbu	a5,19(a6)
    6012:	07e2                	slli	a5,a5,0x18
    6014:	8fd9                	or	a5,a5,a4
    6016:	4018                	lw	a4,0(s0)
    6018:	08f71e63          	bne	a4,a5,60b4 <tcp_input+0x2da>
    601c:	c619                	beqz	a2,602a <tcp_input+0x250>
    601e:	445c                	lw	a5,12(s0)
    6020:	8e81a623          	sw	s0,-1812(gp) # 2000030c <tcp_active_pcbs>
    6024:	c65c                	sw	a5,12(a2)
    6026:	00642623          	sw	t1,12(s0)
    602a:	004ba703          	lw	a4,4(s7)
    602e:	20006db7          	lui	s11,0x20006
    6032:	08842603          	lw	a2,136(s0)
    6036:	794d8793          	addi	a5,s11,1940 # 20006794 <inseg>
    603a:	9001a823          	sw	zero,-1776(gp) # 20000330 <recv_data>
    603e:	90018a23          	sb	zero,-1772(gp) # 20000334 <recv_flags>
    6042:	0007a023          	sw	zero,0(a5)
    6046:	a7ca                	sh	a0,12(a5)
    6048:	c798                	sw	a4,8(a5)
    604a:	0177a223          	sw	s7,4(a5)
    604e:	cb94                	sw	a3,16(a5)
    6050:	91418a13          	addi	s4,gp,-1772 # 20000334 <recv_flags>
    6054:	91018d13          	addi	s10,gp,-1776 # 20000330 <recv_data>
    6058:	794d8d93          	addi	s11,s11,1940
    605c:	ce09                	beqz	a2,6076 <tcp_input+0x29c>
    605e:	09042783          	lw	a5,144(s0)
    6062:	4681                	li	a3,0
    6064:	85a2                	mv	a1,s0
    6066:	32078c63          	beqz	a5,639e <tcp_input+0x5c4>
    606a:	4c08                	lw	a0,24(s0)
    606c:	9782                	jalr	a5
    606e:	dc0513e3          	bnez	a0,5e34 <tcp_input+0x5a>
    6072:	08042423          	sw	zero,136(s0)
    6076:	000cc783          	lbu	a5,0(s9)
    607a:	9081ae23          	sw	s0,-1764(gp) # 2000033c <tcp_input_pcb>
    607e:	0047f713          	andi	a4,a5,4
    6082:	91c18b93          	addi	s7,gp,-1764 # 2000033c <tcp_input_pcb>
    6086:	36070f63          	beqz	a4,6404 <tcp_input+0x62a>
    608a:	4818                	lw	a4,16(s0)
    608c:	4789                	li	a5,2
    608e:	30f71c63          	bne	a4,a5,63a6 <tcp_input+0x5cc>
    6092:	5038                	lw	a4,96(s0)
    6094:	00092783          	lw	a5,0(s2)
    6098:	32f71163          	bne	a4,a5,63ba <tcp_input+0x5e0>
    609c:	000a4783          	lbu	a5,0(s4)
    60a0:	0087e793          	ori	a5,a5,8
    60a4:	00fa0023          	sb	a5,0(s4)
    60a8:	02644783          	lbu	a5,38(s0)
    60ac:	9bf9                	andi	a5,a5,-2
    60ae:	02f40323          	sb	a5,38(s0)
    60b2:	a621                	j	63ba <tcp_input+0x5e0>
    60b4:	8622                	mv	a2,s0
    60b6:	4440                	lw	s0,12(s0)
    60b8:	bdd5                	j	5fac <tcp_input+0x1d2>
    60ba:	3298                	lbu	a4,1(a3)
    60bc:	229c                	lbu	a5,0(a3)
    60be:	0722                	slli	a4,a4,0x8
    60c0:	8f5d                	or	a4,a4,a5
    60c2:	315e                	lhu	a5,36(a0)
    60c4:	0ae79f63          	bne	a5,a4,6182 <tcp_input+0x3a8>
    60c8:	32b0                	lbu	a2,3(a3)
    60ca:	22b8                	lbu	a4,2(a3)
    60cc:	0622                	slli	a2,a2,0x8
    60ce:	8e59                	or	a2,a2,a4
    60d0:	2d5a                	lhu	a4,28(a0)
    60d2:	0ac71863          	bne	a4,a2,6182 <tcp_input+0x3a8>
    60d6:	00d84303          	lbu	t1,13(a6)
    60da:	00c84603          	lbu	a2,12(a6)
    60de:	0322                	slli	t1,t1,0x8
    60e0:	00c36333          	or	t1,t1,a2
    60e4:	00e84603          	lbu	a2,14(a6)
    60e8:	0642                	slli	a2,a2,0x10
    60ea:	00666333          	or	t1,a2,t1
    60ee:	00f84603          	lbu	a2,15(a6)
    60f2:	0662                	slli	a2,a2,0x18
    60f4:	00666633          	or	a2,a2,t1
    60f8:	00452303          	lw	t1,4(a0) # e0000004 <_eusrstack+0xbfff0004>
    60fc:	08c31363          	bne	t1,a2,6182 <tcp_input+0x3a8>
    6100:	01184303          	lbu	t1,17(a6)
    6104:	01084603          	lbu	a2,16(a6)
    6108:	0322                	slli	t1,t1,0x8
    610a:	00c36333          	or	t1,t1,a2
    610e:	01284603          	lbu	a2,18(a6)
    6112:	0642                	slli	a2,a2,0x10
    6114:	00666333          	or	t1,a2,t1
    6118:	01384603          	lbu	a2,19(a6)
    611c:	0662                	slli	a2,a2,0x18
    611e:	00666633          	or	a2,a2,t1
    6122:	00052303          	lw	t1,0(a0)
    6126:	04c31e63          	bne	t1,a2,6182 <tcp_input+0x3a8>
    612a:	0048f693          	andi	a3,a7,4
    612e:	d00693e3          	bnez	a3,5e34 <tcp_input+0x5a>
    6132:	0028f693          	andi	a3,a7,2
    6136:	c685                	beqz	a3,615e <tcp_input+0x384>
    6138:	000aa883          	lw	a7,0(s5)
    613c:	5514                	lw	a3,40(a0)
    613e:	40d886b3          	sub	a3,a7,a3
    6142:	0206c563          	bltz	a3,616c <tcp_input+0x392>
    6146:	3552                	lhu	a2,44(a0)
    6148:	8e91                	sub	a3,a3,a2
    614a:	02d04163          	bgtz	a3,616c <tcp_input+0x392>
    614e:	00c80693          	addi	a3,a6,12
    6152:	01080613          	addi	a2,a6,16
    6156:	95c6                	add	a1,a1,a7
    6158:	00092503          	lw	a0,0(s2)
    615c:	a0c5                	j	623c <tcp_input+0x462>
    615e:	0018f893          	andi	a7,a7,1
    6162:	00088563          	beqz	a7,616c <tcp_input+0x392>
    6166:	8f81a783          	lw	a5,-1800(gp) # 20000318 <tcp_ticks>
    616a:	dd1c                	sw	a5,56(a0)
    616c:	cc0584e3          	beqz	a1,5e34 <tcp_input+0x5a>
    6170:	02654783          	lbu	a5,38(a0)
    6174:	0027e793          	ori	a5,a5,2
    6178:	02f50323          	sb	a5,38(a0)
    617c:	469000ef          	jal	ra,6de4 <tcp_output>
    6180:	b955                	j	5e34 <tcp_input+0x5a>
    6182:	4548                	lw	a0,12(a0)
    6184:	f91d                	bnez	a0,60ba <tcp_input+0x2e0>
    6186:	8f41a303          	lw	t1,-1804(gp) # 20000314 <tcp_listen_pcbs>
    618a:	8e3e                	mv	t3,a5
    618c:	8a1a                	mv	s4,t1
    618e:	040a1363          	bnez	s4,61d4 <tcp_input+0x3fa>
    6192:	36dc                	lbu	a5,13(a3)
    6194:	26c8                	lbu	a0,12(a3)
    6196:	07a2                	slli	a5,a5,0x8
    6198:	8d5d                	or	a0,a0,a5
    619a:	cb6fd0ef          	jal	ra,3650 <ntohs>
    619e:	8911                	andi	a0,a0,4
    61a0:	c8051ae3          	bnez	a0,5e34 <tcp_input+0x5a>
    61a4:	4094                	lw	a3,0(s1)
    61a6:	000b2603          	lw	a2,0(s6)
    61aa:	000c5503          	lhu	a0,0(s8)
    61ae:	329c                	lbu	a5,1(a3)
    61b0:	32b8                	lbu	a4,3(a3)
    61b2:	0006c883          	lbu	a7,0(a3)
    61b6:	0026c803          	lbu	a6,2(a3)
    61ba:	000aa583          	lw	a1,0(s5)
    61be:	07a2                	slli	a5,a5,0x8
    61c0:	0722                	slli	a4,a4,0x8
    61c2:	00c60693          	addi	a3,a2,12
    61c6:	0117e7b3          	or	a5,a5,a7
    61ca:	01076733          	or	a4,a4,a6
    61ce:	0641                	addi	a2,a2,16
    61d0:	95aa                	add	a1,a1,a0
    61d2:	b759                	j	6158 <tcp_input+0x37e>
    61d4:	000a2603          	lw	a2,0(s4)
    61d8:	c20d                	beqz	a2,61fa <tcp_input+0x420>
    61da:	01184703          	lbu	a4,17(a6)
    61de:	01084783          	lbu	a5,16(a6)
    61e2:	0722                	slli	a4,a4,0x8
    61e4:	8f5d                	or	a4,a4,a5
    61e6:	01284783          	lbu	a5,18(a6)
    61ea:	07c2                	slli	a5,a5,0x10
    61ec:	8f5d                	or	a4,a4,a5
    61ee:	01384783          	lbu	a5,19(a6)
    61f2:	07e2                	slli	a5,a5,0x18
    61f4:	8fd9                	or	a5,a5,a4
    61f6:	1af61063          	bne	a2,a5,6396 <tcp_input+0x5bc>
    61fa:	32b8                	lbu	a4,3(a3)
    61fc:	22b0                	lbu	a2,2(a3)
    61fe:	01ca5783          	lhu	a5,28(s4)
    6202:	0722                	slli	a4,a4,0x8
    6204:	8f51                	or	a4,a4,a2
    6206:	18e79863          	bne	a5,a4,6396 <tcp_input+0x5bc>
    620a:	c901                	beqz	a0,621a <tcp_input+0x440>
    620c:	00ca2783          	lw	a5,12(s4)
    6210:	8f41aa23          	sw	s4,-1804(gp) # 20000314 <tcp_listen_pcbs>
    6214:	c55c                	sw	a5,12(a0)
    6216:	006a2623          	sw	t1,12(s4)
    621a:	0108f793          	andi	a5,a7,16
    621e:	c395                	beqz	a5,6242 <tcp_input+0x468>
    6220:	329c                	lbu	a5,1(a3)
    6222:	2290                	lbu	a2,0(a3)
    6224:	000aa883          	lw	a7,0(s5)
    6228:	00092503          	lw	a0,0(s2)
    622c:	07a2                	slli	a5,a5,0x8
    622e:	8fd1                	or	a5,a5,a2
    6230:	00c80693          	addi	a3,a6,12
    6234:	01080613          	addi	a2,a6,16
    6238:	95c6                	add	a1,a1,a7
    623a:	0505                	addi	a0,a0,1
    623c:	711000ef          	jal	ra,714c <tcp_rst>
    6240:	bed5                	j	5e34 <tcp_input+0x5a>
    6242:	0028f893          	andi	a7,a7,2
    6246:	be0887e3          	beqz	a7,5e34 <tcp_input+0x5a>
    624a:	8b81a883          	lw	a7,-1864(gp) # 200002d8 <TCPVerifyConnCallback>
    624e:	06088163          	beqz	a7,62b0 <tcp_input+0x4d6>
    6252:	00d84503          	lbu	a0,13(a6)
    6256:	00c84783          	lbu	a5,12(a6)
    625a:	228c                	lbu	a1,0(a3)
    625c:	0522                	slli	a0,a0,0x8
    625e:	8d5d                	or	a0,a0,a5
    6260:	00e84783          	lbu	a5,14(a6)
    6264:	3294                	lbu	a3,1(a3)
    6266:	863a                	mv	a2,a4
    6268:	07c2                	slli	a5,a5,0x10
    626a:	8fc9                	or	a5,a5,a0
    626c:	00f84503          	lbu	a0,15(a6)
    6270:	06a2                	slli	a3,a3,0x8
    6272:	8dd5                	or	a1,a1,a3
    6274:	0562                	slli	a0,a0,0x18
    6276:	8d5d                	or	a0,a0,a5
    6278:	9882                	jalr	a7
    627a:	c91d                	beqz	a0,62b0 <tcp_input+0x4d6>
    627c:	4094                	lw	a3,0(s1)
    627e:	000b2603          	lw	a2,0(s6)
    6282:	000c5803          	lhu	a6,0(s8)
    6286:	329c                	lbu	a5,1(a3)
    6288:	32b8                	lbu	a4,3(a3)
    628a:	0006c303          	lbu	t1,0(a3)
    628e:	0026c883          	lbu	a7,2(a3)
    6292:	000aa583          	lw	a1,0(s5)
    6296:	07a2                	slli	a5,a5,0x8
    6298:	0722                	slli	a4,a4,0x8
    629a:	00c60693          	addi	a3,a2,12
    629e:	00092503          	lw	a0,0(s2)
    62a2:	0067e7b3          	or	a5,a5,t1
    62a6:	01176733          	or	a4,a4,a7
    62aa:	0641                	addi	a2,a2,16
    62ac:	95c2                	add	a1,a1,a6
    62ae:	b771                	j	623a <tcp_input+0x460>
    62b0:	014a4503          	lbu	a0,20(s4)
    62b4:	efdfe0ef          	jal	ra,51b0 <tcp_alloc>
    62b8:	842a                	mv	s0,a0
    62ba:	b6050de3          	beqz	a0,5e34 <tcp_input+0x5a>
    62be:	000b2783          	lw	a5,0(s6)
    62c2:	4701                	li	a4,0
    62c4:	01078693          	addi	a3,a5,16
    62c8:	ca99                	beqz	a3,62de <tcp_input+0x504>
    62ca:	3b94                	lbu	a3,17(a5)
    62cc:	2b98                	lbu	a4,16(a5)
    62ce:	06a2                	slli	a3,a3,0x8
    62d0:	8ed9                	or	a3,a3,a4
    62d2:	2bb8                	lbu	a4,18(a5)
    62d4:	0742                	slli	a4,a4,0x10
    62d6:	8ed9                	or	a3,a3,a4
    62d8:	3bb8                	lbu	a4,19(a5)
    62da:	0762                	slli	a4,a4,0x18
    62dc:	8f55                	or	a4,a4,a3
    62de:	c018                	sw	a4,0(s0)
    62e0:	01ca5703          	lhu	a4,28(s4)
    62e4:	00c78693          	addi	a3,a5,12
    62e8:	ac5a                	sh	a4,28(s0)
    62ea:	4701                	li	a4,0
    62ec:	ca99                	beqz	a3,6302 <tcp_input+0x528>
    62ee:	37d4                	lbu	a3,13(a5)
    62f0:	27d8                	lbu	a4,12(a5)
    62f2:	06a2                	slli	a3,a3,0x8
    62f4:	8ed9                	or	a3,a3,a4
    62f6:	27f8                	lbu	a4,14(a5)
    62f8:	0742                	slli	a4,a4,0x10
    62fa:	8ed9                	or	a3,a3,a4
    62fc:	37f8                	lbu	a4,15(a5)
    62fe:	0762                	slli	a4,a4,0x18
    6300:	8f55                	or	a4,a4,a3
    6302:	4094                	lw	a3,0(s1)
    6304:	c058                	sw	a4,4(s0)
    6306:	04040513          	addi	a0,s0,64
    630a:	329c                	lbu	a5,1(a3)
    630c:	2298                	lbu	a4,0(a3)
    630e:	07a2                	slli	a5,a5,0x8
    6310:	8fd9                	or	a5,a5,a4
    6312:	000aa703          	lw	a4,0(s5)
    6316:	b05e                	sh	a5,36(s0)
    6318:	478d                	li	a5,3
    631a:	c81c                	sw	a5,16(s0)
    631c:	00170793          	addi	a5,a4,1
    6320:	d41c                	sw	a5,40(s0)
    6322:	d81c                	sw	a5,48(s0)
    6324:	36fc                	lbu	a5,15(a3)
    6326:	26f0                	lbu	a2,14(a3)
    6328:	177d                	addi	a4,a4,-1
    632a:	07a2                	slli	a5,a5,0x8
    632c:	8fd1                	or	a5,a5,a2
    632e:	06f41223          	sh	a5,100(s0)
    6332:	04f41e23          	sh	a5,92(s0)
    6336:	018a2783          	lw	a5,24(s4)
    633a:	d438                	sw	a4,104(s0)
    633c:	cc1c                	sw	a5,24(s0)
    633e:	200067b7          	lui	a5,0x20006
    6342:	7147d783          	lhu	a5,1812(a5) # 20006714 <WCHCfg+0x4>
    6346:	b45e                	sh	a5,44(s0)
    6348:	b47e                	sh	a5,46(s0)
    634a:	020a2783          	lw	a5,32(s4)
    634e:	d01c                	sw	a5,32(s0)
    6350:	008a5783          	lhu	a5,8(s4)
    6354:	1997f793          	andi	a5,a5,409
    6358:	a41e                	sh	a5,8(s0)
    635a:	8ec1a783          	lw	a5,-1812(gp) # 2000030c <tcp_active_pcbs>
    635e:	8e81a623          	sw	s0,-1812(gp) # 2000030c <tcp_active_pcbs>
    6362:	c45c                	sw	a5,12(s0)
    6364:	9d1ff0ef          	jal	ra,5d34 <tcp_parseopt.isra.0>
    6368:	04045503          	lhu	a0,64(s0)
    636c:	00440593          	addi	a1,s0,4
    6370:	f85fe0ef          	jal	ra,52f4 <tcp_eff_send_mss>
    6374:	04a41023          	sh	a0,64(s0)
    6378:	4785                	li	a5,1
    637a:	4701                	li	a4,0
    637c:	46c9                	li	a3,18
    637e:	4601                	li	a2,0
    6380:	4581                	li	a1,0
    6382:	8522                	mv	a0,s0
    6384:	2b49                	jal	6916 <tcp_enqueue>
    6386:	c511                	beqz	a0,6392 <tcp_input+0x5b8>
    6388:	4581                	li	a1,0
    638a:	8522                	mv	a0,s0
    638c:	d7bfe0ef          	jal	ra,5106 <tcp_abandon>
    6390:	b455                	j	5e34 <tcp_input+0x5a>
    6392:	8522                	mv	a0,s0
    6394:	b3e5                	j	617c <tcp_input+0x3a2>
    6396:	8552                	mv	a0,s4
    6398:	00ca2a03          	lw	s4,12(s4)
    639c:	bbcd                	j	618e <tcp_input+0x3b4>
    639e:	4501                	li	a0,0
    63a0:	d37fe0ef          	jal	ra,50d6 <tcp_recv_null>
    63a4:	b1e9                	j	606e <tcp_input+0x294>
    63a6:	000aa783          	lw	a5,0(s5)
    63aa:	5418                	lw	a4,40(s0)
    63ac:	8f99                	sub	a5,a5,a4
    63ae:	0007c663          	bltz	a5,63ba <tcp_input+0x5e0>
    63b2:	345a                	lhu	a4,44(s0)
    63b4:	8f99                	sub	a5,a5,a4
    63b6:	cef053e3          	blez	a5,609c <tcp_input+0x2c2>
    63ba:	000a4783          	lbu	a5,0(s4)
    63be:	0087f713          	andi	a4,a5,8
    63c2:	3e070163          	beqz	a4,67a4 <tcp_input+0x9ca>
    63c6:	00f10593          	addi	a1,sp,15
    63ca:	8522                	mv	a0,s0
    63cc:	d24fc0ef          	jal	ra,28f0 <WCHFindCorrectTCBPcb>
    63d0:	4785                	li	a5,1
    63d2:	00f51663          	bne	a0,a5,63de <tcp_input+0x604>
    63d6:	4818                	lw	a4,16(s0)
    63d8:	4789                	li	a5,2
    63da:	1cf70163          	beq	a4,a5,659c <tcp_input+0x7c2>
    63de:	8522                	mv	a0,s0
    63e0:	857fc0ef          	jal	ra,2c36 <LwipRemoveTcpPcb>
    63e4:	09c42783          	lw	a5,156(s0)
    63e8:	c781                	beqz	a5,63f0 <tcp_input+0x616>
    63ea:	4c08                	lw	a0,24(s0)
    63ec:	55e9                	li	a1,-6
    63ee:	9782                	jalr	a5
    63f0:	85a2                	mv	a1,s0
    63f2:	8ec18513          	addi	a0,gp,-1812 # 2000030c <tcp_active_pcbs>
    63f6:	bbdfe0ef          	jal	ra,4fb2 <tcp_pcb_remove>
    63fa:	85a2                	mv	a1,s0
    63fc:	4509                	li	a0,2
    63fe:	b7cfe0ef          	jal	ra,477a <memp_free>
    6402:	aa69                	j	659c <tcp_input+0x7c2>
    6404:	8b89                	andi	a5,a5,2
    6406:	c385                	beqz	a5,6426 <tcp_input+0x64c>
    6408:	481c                	lw	a5,16(s0)
    640a:	4705                	li	a4,1
    640c:	17f9                	addi	a5,a5,-2
    640e:	00f77c63          	bgeu	a4,a5,6426 <tcp_input+0x64c>
    6412:	02644783          	lbu	a5,38(s0)
    6416:	8522                	mv	a0,s0
    6418:	0027e793          	ori	a5,a5,2
    641c:	02f40323          	sb	a5,38(s0)
    6420:	1c5000ef          	jal	ra,6de4 <tcp_output>
    6424:	bf59                	j	63ba <tcp_input+0x5e0>
    6426:	8f81a783          	lw	a5,-1800(gp) # 20000318 <tcp_ticks>
    642a:	0a0408a3          	sb	zero,177(s0)
    642e:	04040513          	addi	a0,s0,64
    6432:	dc1c                	sw	a5,56(s0)
    6434:	901ff0ef          	jal	ra,5d34 <tcp_parseopt.isra.0>
    6438:	481c                	lw	a5,16(s0)
    643a:	471d                	li	a4,7
    643c:	17f9                	addi	a5,a5,-2
    643e:	f6f76ee3          	bltu	a4,a5,63ba <tcp_input+0x5e0>
    6442:	6729                	lui	a4,0xa
    6444:	078a                	slli	a5,a5,0x2
    6446:	ca870713          	addi	a4,a4,-856 # 9ca8 <ErrTable+0x30>
    644a:	97ba                	add	a5,a5,a4
    644c:	439c                	lw	a5,0(a5)
    644e:	8782                	jr	a5
    6450:	000cc783          	lbu	a5,0(s9)
    6454:	4749                	li	a4,18
    6456:	8bc9                	andi	a5,a5,18
    6458:	0ce79263          	bne	a5,a4,651c <tcp_input+0x742>
    645c:	08042783          	lw	a5,128(s0)
    6460:	4b98                	lw	a4,16(a5)
    6462:	3348                	lbu	a0,5(a4)
    6464:	235c                	lbu	a5,4(a4)
    6466:	0522                	slli	a0,a0,0x8
    6468:	8d5d                	or	a0,a0,a5
    646a:	237c                	lbu	a5,6(a4)
    646c:	07c2                	slli	a5,a5,0x10
    646e:	8fc9                	or	a5,a5,a0
    6470:	3368                	lbu	a0,7(a4)
    6472:	0562                	slli	a0,a0,0x18
    6474:	8d5d                	or	a0,a0,a5
    6476:	a0cfd0ef          	jal	ra,3682 <ntohl>
    647a:	00092783          	lw	a5,0(s2)
    647e:	0505                	addi	a0,a0,1
    6480:	08f51e63          	bne	a0,a5,651c <tcp_input+0x742>
    6484:	07645783          	lhu	a5,118(s0)
    6488:	000aa703          	lw	a4,0(s5)
    648c:	4094                	lw	a3,0(s1)
    648e:	0785                	addi	a5,a5,1
    6490:	06f41b23          	sh	a5,118(s0)
    6494:	00170793          	addi	a5,a4,1
    6498:	c868                	sw	a0,84(s0)
    649a:	d41c                	sw	a5,40(s0)
    649c:	d81c                	sw	a5,48(s0)
    649e:	36fc                	lbu	a5,15(a3)
    64a0:	26f0                	lbu	a2,14(a3)
    64a2:	04045503          	lhu	a0,64(s0)
    64a6:	07a2                	slli	a5,a5,0x8
    64a8:	8fd1                	or	a5,a5,a2
    64aa:	177d                	addi	a4,a4,-1
    64ac:	06f41223          	sh	a5,100(s0)
    64b0:	4791                	li	a5,4
    64b2:	d438                	sw	a4,104(s0)
    64b4:	c81c                	sw	a5,16(s0)
    64b6:	00440593          	addi	a1,s0,4
    64ba:	e3bfe0ef          	jal	ra,52f4 <tcp_eff_send_mss>
    64be:	47a9                	li	a5,10
    64c0:	02f507b3          	mul	a5,a0,a5
    64c4:	05a45703          	lhu	a4,90(s0)
    64c8:	04a41023          	sh	a0,64(s0)
    64cc:	04f41e23          	sh	a5,92(s0)
    64d0:	4785                	li	a5,1
    64d2:	00f71563          	bne	a4,a5,64dc <tcp_input+0x702>
    64d6:	0506                	slli	a0,a0,0x1
    64d8:	0542                	slli	a0,a0,0x10
    64da:	8141                	srli	a0,a0,0x10
    64dc:	07845783          	lhu	a5,120(s0)
    64e0:	04a41d23          	sh	a0,90(s0)
    64e4:	08042503          	lw	a0,128(s0)
    64e8:	17fd                	addi	a5,a5,-1
    64ea:	06f41c23          	sh	a5,120(s0)
    64ee:	411c                	lw	a5,0(a0)
    64f0:	04040923          	sb	zero,82(s0)
    64f4:	04042223          	sw	zero,68(s0)
    64f8:	08f42023          	sw	a5,128(s0)
    64fc:	0017b793          	seqz	a5,a5
    6500:	40f007b3          	neg	a5,a5
    6504:	bc7e                	sh	a5,62(s0)
    6506:	9e5fe0ef          	jal	ra,4eea <tcp_seg_free>
    650a:	09442783          	lw	a5,148(s0)
    650e:	f00782e3          	beqz	a5,6412 <tcp_input+0x638>
    6512:	4c08                	lw	a0,24(s0)
    6514:	4601                	li	a2,0
    6516:	85a2                	mv	a1,s0
    6518:	9782                	jalr	a5
    651a:	bde5                	j	6412 <tcp_input+0x638>
    651c:	000cc783          	lbu	a5,0(s9)
    6520:	8bc1                	andi	a5,a5,16
    6522:	e8078ce3          	beqz	a5,63ba <tcp_input+0x5e0>
    6526:	4094                	lw	a3,0(s1)
    6528:	000c5503          	lhu	a0,0(s8)
    652c:	000aa583          	lw	a1,0(s5)
    6530:	329c                	lbu	a5,1(a3)
    6532:	32b8                	lbu	a4,3(a3)
    6534:	000b2603          	lw	a2,0(s6)
    6538:	0006c883          	lbu	a7,0(a3)
    653c:	0026c803          	lbu	a6,2(a3)
    6540:	95aa                	add	a1,a1,a0
    6542:	00092503          	lw	a0,0(s2)
    6546:	07a2                	slli	a5,a5,0x8
    6548:	0722                	slli	a4,a4,0x8
    654a:	00c60693          	addi	a3,a2,12
    654e:	0117e7b3          	or	a5,a5,a7
    6552:	01076733          	or	a4,a4,a6
    6556:	0641                	addi	a2,a2,16
    6558:	3f5000ef          	jal	ra,714c <tcp_rst>
    655c:	bdb9                	j	63ba <tcp_input+0x5e0>
    655e:	000cc783          	lbu	a5,0(s9)
    6562:	0107f713          	andi	a4,a5,16
    6566:	c771                	beqz	a4,6632 <tcp_input+0x858>
    6568:	00092503          	lw	a0,0(s2)
    656c:	4878                	lw	a4,84(s0)
    656e:	fff50793          	addi	a5,a0,-1
    6572:	8f99                	sub	a5,a5,a4
    6574:	0807c763          	bltz	a5,6602 <tcp_input+0x828>
    6578:	503c                	lw	a5,96(s0)
    657a:	40f507b3          	sub	a5,a0,a5
    657e:	08f04263          	bgtz	a5,6602 <tcp_input+0x828>
    6582:	4791                	li	a5,4
    6584:	c81c                	sw	a5,16(s0)
    6586:	501c                	lw	a5,32(s0)
    6588:	c795                	beqz	a5,65b4 <tcp_input+0x7da>
    658a:	4c08                	lw	a0,24(s0)
    658c:	4601                	li	a2,0
    658e:	85a2                	mv	a1,s0
    6590:	9782                	jalr	a5
    6592:	c10d                	beqz	a0,65b4 <tcp_input+0x7da>
    6594:	4585                	li	a1,1
    6596:	8522                	mv	a0,s0
    6598:	b6ffe0ef          	jal	ra,5106 <tcp_abandon>
    659c:	004da503          	lw	a0,4(s11)
    65a0:	000ba023          	sw	zero,0(s7)
    65a4:	88050be3          	beqz	a0,5e3a <tcp_input+0x60>
    65a8:	ba4fe0ef          	jal	ra,494c <pbuf_free>
    65ac:	000da223          	sw	zero,4(s11)
    65b0:	88bff06f          	j	5e3a <tcp_input+0x60>
    65b4:	8522                	mv	a0,s0
    65b6:	05a45483          	lhu	s1,90(s0)
    65ba:	e37fe0ef          	jal	ra,53f0 <tcp_receive>
    65be:	07445783          	lhu	a5,116(s0)
    65c2:	c781                	beqz	a5,65ca <tcp_input+0x7f0>
    65c4:	17fd                	addi	a5,a5,-1
    65c6:	06f41a23          	sh	a5,116(s0)
    65ca:	4705                	li	a4,1
    65cc:	04045783          	lhu	a5,64(s0)
    65d0:	00e49563          	bne	s1,a4,65da <tcp_input+0x800>
    65d4:	0786                	slli	a5,a5,0x1
    65d6:	07c2                	slli	a5,a5,0x10
    65d8:	83c1                	srli	a5,a5,0x10
    65da:	04f41d23          	sh	a5,90(s0)
    65de:	000a4783          	lbu	a5,0(s4)
    65e2:	0207f793          	andi	a5,a5,32
    65e6:	dc078ae3          	beqz	a5,63ba <tcp_input+0x5e0>
    65ea:	02644783          	lbu	a5,38(s0)
    65ee:	8522                	mv	a0,s0
    65f0:	0027e793          	ori	a5,a5,2
    65f4:	02f40323          	sb	a5,38(s0)
    65f8:	7ec000ef          	jal	ra,6de4 <tcp_output>
    65fc:	479d                	li	a5,7
    65fe:	c81c                	sw	a5,16(s0)
    6600:	bb6d                	j	63ba <tcp_input+0x5e0>
    6602:	4094                	lw	a3,0(s1)
    6604:	000b2603          	lw	a2,0(s6)
    6608:	000c5803          	lhu	a6,0(s8)
    660c:	329c                	lbu	a5,1(a3)
    660e:	32b8                	lbu	a4,3(a3)
    6610:	0006c303          	lbu	t1,0(a3)
    6614:	0026c883          	lbu	a7,2(a3)
    6618:	000aa583          	lw	a1,0(s5)
    661c:	07a2                	slli	a5,a5,0x8
    661e:	0722                	slli	a4,a4,0x8
    6620:	00c60693          	addi	a3,a2,12
    6624:	0067e7b3          	or	a5,a5,t1
    6628:	01176733          	or	a4,a4,a7
    662c:	0641                	addi	a2,a2,16
    662e:	95c2                	add	a1,a1,a6
    6630:	b725                	j	6558 <tcp_input+0x77e>
    6632:	8b89                	andi	a5,a5,2
    6634:	d80783e3          	beqz	a5,63ba <tcp_input+0x5e0>
    6638:	541c                	lw	a5,40(s0)
    663a:	000aa703          	lw	a4,0(s5)
    663e:	17fd                	addi	a5,a5,-1
    6640:	d6e79de3          	bne	a5,a4,63ba <tcp_input+0x5e0>
    6644:	8522                	mv	a0,s0
    6646:	40f000ef          	jal	ra,7254 <tcp_rexmit>
    664a:	bb85                	j	63ba <tcp_input+0x5e0>
    664c:	8522                	mv	a0,s0
    664e:	da3fe0ef          	jal	ra,53f0 <tcp_receive>
    6652:	b771                	j	65de <tcp_input+0x804>
    6654:	8522                	mv	a0,s0
    6656:	d9bfe0ef          	jal	ra,53f0 <tcp_receive>
    665a:	000a4783          	lbu	a5,0(s4)
    665e:	0207f793          	andi	a5,a5,32
    6662:	c3c1                	beqz	a5,66e2 <tcp_input+0x908>
    6664:	000cc703          	lbu	a4,0(s9)
    6668:	02644783          	lbu	a5,38(s0)
    666c:	8b41                	andi	a4,a4,16
    666e:	0027e793          	ori	a5,a5,2
    6672:	c32d                	beqz	a4,66d4 <tcp_input+0x8fa>
    6674:	5034                	lw	a3,96(s0)
    6676:	00092703          	lw	a4,0(s2)
    667a:	04e69d63          	bne	a3,a4,66d4 <tcp_input+0x8fa>
    667e:	02f40323          	sb	a5,38(s0)
    6682:	8522                	mv	a0,s0
    6684:	760000ef          	jal	ra,6de4 <tcp_output>
    6688:	8522                	mv	a0,s0
    668a:	8dbfe0ef          	jal	ra,4f64 <tcp_pcb_purge>
    668e:	8ec1a783          	lw	a5,-1812(gp) # 2000030c <tcp_active_pcbs>
    6692:	00f41d63          	bne	s0,a5,66ac <tcp_input+0x8d2>
    6696:	445c                	lw	a5,12(s0)
    6698:	8ef1a623          	sw	a5,-1812(gp) # 2000030c <tcp_active_pcbs>
    669c:	47a9                	li	a5,10
    669e:	c81c                	sw	a5,16(s0)
    66a0:	9001a703          	lw	a4,-1792(gp) # 20000320 <tcp_tw_pcbs>
    66a4:	9081a023          	sw	s0,-1792(gp) # 20000320 <tcp_tw_pcbs>
    66a8:	c458                	sw	a4,12(s0)
    66aa:	bb01                	j	63ba <tcp_input+0x5e0>
    66ac:	8ef1ae23          	sw	a5,-1796(gp) # 2000031c <tcp_tmp_pcb>
    66b0:	4681                	li	a3,0
    66b2:	e789                	bnez	a5,66bc <tcp_input+0x8e2>
    66b4:	d6e5                	beqz	a3,669c <tcp_input+0x8c2>
    66b6:	8e01ae23          	sw	zero,-1796(gp) # 2000031c <tcp_tmp_pcb>
    66ba:	b7cd                	j	669c <tcp_input+0x8c2>
    66bc:	47d0                	lw	a2,12(a5)
    66be:	00c41863          	bne	s0,a2,66ce <tcp_input+0x8f4>
    66c2:	c299                	beqz	a3,66c8 <tcp_input+0x8ee>
    66c4:	8ef1ae23          	sw	a5,-1796(gp) # 2000031c <tcp_tmp_pcb>
    66c8:	4458                	lw	a4,12(s0)
    66ca:	c7d8                	sw	a4,12(a5)
    66cc:	bfc1                	j	669c <tcp_input+0x8c2>
    66ce:	4685                	li	a3,1
    66d0:	87b2                	mv	a5,a2
    66d2:	b7c5                	j	66b2 <tcp_input+0x8d8>
    66d4:	02f40323          	sb	a5,38(s0)
    66d8:	8522                	mv	a0,s0
    66da:	70a000ef          	jal	ra,6de4 <tcp_output>
    66de:	47a1                	li	a5,8
    66e0:	bf39                	j	65fe <tcp_input+0x824>
    66e2:	000cc783          	lbu	a5,0(s9)
    66e6:	8bc1                	andi	a5,a5,16
    66e8:	cc0789e3          	beqz	a5,63ba <tcp_input+0x5e0>
    66ec:	5038                	lw	a4,96(s0)
    66ee:	00092783          	lw	a5,0(s2)
    66f2:	ccf714e3          	bne	a4,a5,63ba <tcp_input+0x5e0>
    66f6:	4799                	li	a5,6
    66f8:	b719                	j	65fe <tcp_input+0x824>
    66fa:	8522                	mv	a0,s0
    66fc:	cf5fe0ef          	jal	ra,53f0 <tcp_receive>
    6700:	000a4783          	lbu	a5,0(s4)
    6704:	0207f793          	andi	a5,a5,32
    6708:	ca0789e3          	beqz	a5,63ba <tcp_input+0x5e0>
    670c:	02644783          	lbu	a5,38(s0)
    6710:	8522                	mv	a0,s0
    6712:	0027e793          	ori	a5,a5,2
    6716:	02f40323          	sb	a5,38(s0)
    671a:	6ca000ef          	jal	ra,6de4 <tcp_output>
    671e:	8522                	mv	a0,s0
    6720:	845fe0ef          	jal	ra,4f64 <tcp_pcb_purge>
    6724:	8ec1a783          	lw	a5,-1812(gp) # 2000030c <tcp_active_pcbs>
    6728:	f6f407e3          	beq	s0,a5,6696 <tcp_input+0x8bc>
    672c:	8ef1ae23          	sw	a5,-1796(gp) # 2000031c <tcp_tmp_pcb>
    6730:	4681                	li	a3,0
    6732:	d3c9                	beqz	a5,66b4 <tcp_input+0x8da>
    6734:	47d0                	lw	a2,12(a5)
    6736:	f8c406e3          	beq	s0,a2,66c2 <tcp_input+0x8e8>
    673a:	4685                	li	a3,1
    673c:	87b2                	mv	a5,a2
    673e:	bfd5                	j	6732 <tcp_input+0x958>
    6740:	8522                	mv	a0,s0
    6742:	caffe0ef          	jal	ra,53f0 <tcp_receive>
    6746:	000cc783          	lbu	a5,0(s9)
    674a:	8bc1                	andi	a5,a5,16
    674c:	c60787e3          	beqz	a5,63ba <tcp_input+0x5e0>
    6750:	5038                	lw	a4,96(s0)
    6752:	00092783          	lw	a5,0(s2)
    6756:	c6f712e3          	bne	a4,a5,63ba <tcp_input+0x5e0>
    675a:	8522                	mv	a0,s0
    675c:	809fe0ef          	jal	ra,4f64 <tcp_pcb_purge>
    6760:	8ec1a783          	lw	a5,-1812(gp) # 2000030c <tcp_active_pcbs>
    6764:	f2f409e3          	beq	s0,a5,6696 <tcp_input+0x8bc>
    6768:	8ef1ae23          	sw	a5,-1796(gp) # 2000031c <tcp_tmp_pcb>
    676c:	4681                	li	a3,0
    676e:	d3b9                	beqz	a5,66b4 <tcp_input+0x8da>
    6770:	47d0                	lw	a2,12(a5)
    6772:	f4c408e3          	beq	s0,a2,66c2 <tcp_input+0x8e8>
    6776:	4685                	li	a3,1
    6778:	87b2                	mv	a5,a2
    677a:	bfd5                	j	676e <tcp_input+0x994>
    677c:	8522                	mv	a0,s0
    677e:	c73fe0ef          	jal	ra,53f0 <tcp_receive>
    6782:	000cc783          	lbu	a5,0(s9)
    6786:	8bc1                	andi	a5,a5,16
    6788:	c20789e3          	beqz	a5,63ba <tcp_input+0x5e0>
    678c:	5038                	lw	a4,96(s0)
    678e:	00092783          	lw	a5,0(s2)
    6792:	c2f714e3          	bne	a4,a5,63ba <tcp_input+0x5e0>
    6796:	000a4783          	lbu	a5,0(s4)
    679a:	0107e793          	ori	a5,a5,16
    679e:	00fa0023          	sb	a5,0(s4)
    67a2:	b921                	j	63ba <tcp_input+0x5e0>
    67a4:	8bc1                	andi	a5,a5,16
    67a6:	c785                	beqz	a5,67ce <tcp_input+0x9f4>
    67a8:	8522                	mv	a0,s0
    67aa:	c8cfc0ef          	jal	ra,2c36 <LwipRemoveTcpPcb>
    67ae:	85a2                	mv	a1,s0
    67b0:	8ec18513          	addi	a0,gp,-1812 # 2000030c <tcp_active_pcbs>
    67b4:	ffefe0ef          	jal	ra,4fb2 <tcp_pcb_remove>
    67b8:	4509                	li	a0,2
    67ba:	85a2                	mv	a1,s0
    67bc:	fbffd0ef          	jal	ra,477a <memp_free>
    67c0:	000d2503          	lw	a0,0(s10)
    67c4:	dc050ce3          	beqz	a0,659c <tcp_input+0x7c2>
    67c8:	984fe0ef          	jal	ra,494c <pbuf_free>
    67cc:	bbc1                	j	659c <tcp_input+0x7c2>
    67ce:	07445603          	lhu	a2,116(s0)
    67d2:	c619                	beqz	a2,67e0 <tcp_input+0xa06>
    67d4:	08c42783          	lw	a5,140(s0)
    67d8:	c781                	beqz	a5,67e0 <tcp_input+0xa06>
    67da:	4c08                	lw	a0,24(s0)
    67dc:	85a2                	mv	a1,s0
    67de:	9782                	jalr	a5
    67e0:	000d2603          	lw	a2,0(s10)
    67e4:	c60d                	beqz	a2,680e <tcp_input+0xa34>
    67e6:	000cc783          	lbu	a5,0(s9)
    67ea:	8ba1                	andi	a5,a5,8
    67ec:	c789                	beqz	a5,67f6 <tcp_input+0xa1c>
    67ee:	365c                	lbu	a5,13(a2)
    67f0:	0017e793          	ori	a5,a5,1
    67f4:	b65c                	sb	a5,13(a2)
    67f6:	09042783          	lw	a5,144(s0)
    67fa:	4681                	li	a3,0
    67fc:	85a2                	mv	a1,s0
    67fe:	cb95                	beqz	a5,6832 <tcp_input+0xa58>
    6800:	4c08                	lw	a0,24(s0)
    6802:	9782                	jalr	a5
    6804:	c509                	beqz	a0,680e <tcp_input+0xa34>
    6806:	000d2783          	lw	a5,0(s10)
    680a:	08f42423          	sw	a5,136(s0)
    680e:	000a4783          	lbu	a5,0(s4)
    6812:	0207f793          	andi	a5,a5,32
    6816:	cb89                	beqz	a5,6828 <tcp_input+0xa4e>
    6818:	09042783          	lw	a5,144(s0)
    681c:	4681                	li	a3,0
    681e:	4601                	li	a2,0
    6820:	85a2                	mv	a1,s0
    6822:	cf81                	beqz	a5,683a <tcp_input+0xa60>
    6824:	4c08                	lw	a0,24(s0)
    6826:	9782                	jalr	a5
    6828:	8522                	mv	a0,s0
    682a:	000ba023          	sw	zero,0(s7)
    682e:	2b5d                	jal	6de4 <tcp_output>
    6830:	b3b5                	j	659c <tcp_input+0x7c2>
    6832:	4501                	li	a0,0
    6834:	8a3fe0ef          	jal	ra,50d6 <tcp_recv_null>
    6838:	b7f1                	j	6804 <tcp_input+0xa2a>
    683a:	4501                	li	a0,0
    683c:	89bfe0ef          	jal	ra,50d6 <tcp_recv_null>
    6840:	b7e5                	j	6828 <tcp_input+0xa4e>

00006842 <tcp_output_set_header.isra.0.constprop.1>:
tcp_output_set_header.isra.0.constprop.1():
    6842:	9aff92ef          	jal	t0,1f0 <__riscv_save_0>
    6846:	892a                	mv	s2,a0
    6848:	2d4a                	lhu	a0,28(a0)
    684a:	1141                	addi	sp,sp,-16
    684c:	842e                	mv	s0,a1
    684e:	c632                	sw	a2,12(sp)
    6850:	df3fc0ef          	jal	ra,3642 <htons>
    6854:	a008                	sb	a0,0(s0)
    6856:	8121                	srli	a0,a0,0x8
    6858:	b008                	sb	a0,1(s0)
    685a:	02495503          	lhu	a0,36(s2)
    685e:	de5fc0ef          	jal	ra,3642 <htons>
    6862:	4632                	lw	a2,12(sp)
    6864:	a028                	sb	a0,2(s0)
    6866:	8121                	srli	a0,a0,0x8
    6868:	b028                	sb	a0,3(s0)
    686a:	00865793          	srli	a5,a2,0x8
    686e:	02892503          	lw	a0,40(s2)
    6872:	a050                	sb	a2,4(s0)
    6874:	b05c                	sb	a5,5(s0)
    6876:	01065793          	srli	a5,a2,0x10
    687a:	8261                	srli	a2,a2,0x18
    687c:	b070                	sb	a2,7(s0)
    687e:	a07c                	sb	a5,6(s0)
    6880:	ddffc0ef          	jal	ra,365e <htonl>
    6884:	00855793          	srli	a5,a0,0x8
    6888:	a408                	sb	a0,8(s0)
    688a:	b41c                	sb	a5,9(s0)
    688c:	3444                	lbu	s1,13(s0)
    688e:	01055793          	srli	a5,a0,0x10
    6892:	8161                	srli	a0,a0,0x18
    6894:	b428                	sb	a0,11(s0)
    6896:	2448                	lbu	a0,12(s0)
    6898:	04a2                	slli	s1,s1,0x8
    689a:	a43c                	sb	a5,10(s0)
    689c:	8cc9                	or	s1,s1,a0
    689e:	6541                	lui	a0,0x10
    68a0:	fc050513          	addi	a0,a0,-64 # ffc0 <_data_lma+0x615c>
    68a4:	d9ffc0ef          	jal	ra,3642 <htons>
    68a8:	8ce9                	and	s1,s1,a0
    68aa:	4541                	li	a0,16
    68ac:	d97fc0ef          	jal	ra,3642 <htons>
    68b0:	8d45                	or	a0,a0,s1
    68b2:	0542                	slli	a0,a0,0x10
    68b4:	8141                	srli	a0,a0,0x10
    68b6:	a448                	sb	a0,12(s0)
    68b8:	8121                	srli	a0,a0,0x8
    68ba:	b448                	sb	a0,13(s0)
    68bc:	02e95503          	lhu	a0,46(s2)
    68c0:	d83fc0ef          	jal	ra,3642 <htons>
    68c4:	02e95783          	lhu	a5,46(s2)
    68c8:	a468                	sb	a0,14(s0)
    68ca:	8121                	srli	a0,a0,0x8
    68cc:	b468                	sb	a0,15(s0)
    68ce:	02f91b23          	sh	a5,54(s2)
    68d2:	345c                	lbu	a5,13(s0)
    68d4:	2448                	lbu	a0,12(s0)
    68d6:	00040923          	sb	zero,18(s0)
    68da:	07a2                	slli	a5,a5,0x8
    68dc:	000409a3          	sb	zero,19(s0)
    68e0:	8d5d                	or	a0,a0,a5
    68e2:	d6ffc0ef          	jal	ra,3650 <ntohs>
    68e6:	6795                	lui	a5,0x5
    68e8:	03f57513          	andi	a0,a0,63
    68ec:	8d5d                	or	a0,a0,a5
    68ee:	d55fc0ef          	jal	ra,3642 <htons>
    68f2:	02e95703          	lhu	a4,46(s2)
    68f6:	02892783          	lw	a5,40(s2)
    68fa:	a448                	sb	a0,12(s0)
    68fc:	8121                	srli	a0,a0,0x8
    68fe:	b448                	sb	a0,13(s0)
    6900:	00040823          	sb	zero,16(s0)
    6904:	000408a3          	sb	zero,17(s0)
    6908:	97ba                	add	a5,a5,a4
    690a:	02f92823          	sw	a5,48(s2)
    690e:	8522                	mv	a0,s0
    6910:	0141                	addi	sp,sp,16
    6912:	903f906f          	j	214 <__riscv_restore_0>

00006916 <tcp_enqueue>:
tcp_enqueue():
    6916:	8abf92ef          	jal	t0,1c0 <__riscv_save_12>
    691a:	7179                	addi	sp,sp,-48
    691c:	c62e                	sw	a1,12(sp)
    691e:	ca3a                	sw	a4,20(sp)
    6920:	892a                	mv	s2,a0
    6922:	8ab2                	mv	s5,a2
    6924:	8b36                	mv	s6,a3
    6926:	8dbe                	mv	s11,a5
    6928:	ee01                	bnez	a2,6940 <tcp_enqueue+0x2a>
    692a:	0036f793          	andi	a5,a3,3
    692e:	00fde7b3          	or	a5,s11,a5
    6932:	5a59                	li	s4,-10
    6934:	c391                	beqz	a5,6938 <tcp_enqueue+0x22>
    6936:	c18d                	beqz	a1,6958 <tcp_enqueue+0x42>
    6938:	8552                	mv	a0,s4
    693a:	6145                	addi	sp,sp,48
    693c:	8c1f906f          	j	1fc <__riscv_restore_12>
    6940:	07655783          	lhu	a5,118(a0)
    6944:	00c7fa63          	bgeu	a5,a2,6958 <tcp_enqueue+0x42>
    6948:	02694783          	lbu	a5,38(s2)
    694c:	5a7d                	li	s4,-1
    694e:	f807e793          	ori	a5,a5,-128
    6952:	02f90323          	sb	a5,38(s2)
    6956:	b7cd                	j	6938 <tcp_enqueue+0x22>
    6958:	002d9793          	slli	a5,s11,0x2
    695c:	002df713          	andi	a4,s11,2
    6960:	8b91                	andi	a5,a5,4
    6962:	46b1                	li	a3,12
    6964:	e311                	bnez	a4,6968 <tcp_enqueue+0x52>
    6966:	4681                	li	a3,0
    6968:	97b6                	add	a5,a5,a3
    696a:	c23e                	sw	a5,4(sp)
    696c:	07092783          	lw	a5,112(s2)
    6970:	20006d37          	lui	s10,0x20006
    6974:	710d0713          	addi	a4,s10,1808 # 20006710 <WCHCfg>
    6978:	c43e                	sw	a5,8(sp)
    697a:	471c                	lw	a5,8(a4)
    697c:	4358                	lw	a4,4(a4)
    697e:	07895483          	lhu	s1,120(s2)
    6982:	078a                	slli	a5,a5,0x2
    6984:	02e7d7b3          	divu	a5,a5,a4
    6988:	710d0d13          	addi	s10,s10,1808
    698c:	faf4fee3          	bgeu	s1,a5,6948 <tcp_enqueue+0x32>
    6990:	6741                	lui	a4,0x10
    6992:	ffc70693          	addi	a3,a4,-4 # fffc <_data_lma+0x6198>
    6996:	fa96e9e3          	bltu	a3,s1,6948 <tcp_enqueue+0x32>
    699a:	4792                	lw	a5,4(sp)
    699c:	8230                	lhu	a2,4(sp)
    699e:	fc070713          	addi	a4,a4,-64
    69a2:	8389                	srli	a5,a5,0x2
    69a4:	0ff7f793          	andi	a5,a5,255
    69a8:	0795                	addi	a5,a5,5
    69aa:	c832                	sw	a2,16(sp)
    69ac:	4652                	lw	a2,20(sp)
    69ae:	07b2                	slli	a5,a5,0xc
    69b0:	07c2                	slli	a5,a5,0x10
    69b2:	d23a                	sw	a4,36(sp)
    69b4:	4cb2                	lw	s9,12(sp)
    69b6:	010b1713          	slli	a4,s6,0x10
    69ba:	83c1                	srli	a5,a5,0x10
    69bc:	8a05                	andi	a2,a2,1
    69be:	8341                	srli	a4,a4,0x10
    69c0:	cc3e                	sw	a5,24(sp)
    69c2:	8bd6                	mv	s7,s5
    69c4:	4981                	li	s3,0
    69c6:	4781                	li	a5,0
    69c8:	ce32                	sw	a2,28(sp)
    69ca:	d036                	sw	a3,32(sp)
    69cc:	d43a                	sw	a4,40(sp)
    69ce:	04095a03          	lhu	s4,64(s2)
    69d2:	4712                	lw	a4,4(sp)
    69d4:	40ea0a33          	sub	s4,s4,a4
    69d8:	014bd363          	bge	s7,s4,69de <tcp_enqueue+0xc8>
    69dc:	8a5e                	mv	s4,s7
    69de:	4511                	li	a0,4
    69e0:	d63e                	sw	a5,44(sp)
    69e2:	010a1c13          	slli	s8,s4,0x10
    69e6:	d75fd0ef          	jal	ra,475a <memp_malloc>
    69ea:	010c5c13          	srli	s8,s8,0x10
    69ee:	842a                	mv	s0,a0
    69f0:	18050663          	beqz	a0,6b7c <tcp_enqueue+0x266>
    69f4:	00052023          	sw	zero,0(a0)
    69f8:	00052223          	sw	zero,4(a0)
    69fc:	14098463          	beqz	s3,6b44 <tcp_enqueue+0x22e>
    6a00:	57b2                	lw	a5,44(sp)
    6a02:	c388                	sw	a0,0(a5)
    6a04:	47f2                	lw	a5,28(sp)
    6a06:	14078163          	beqz	a5,6b48 <tcp_enqueue+0x232>
    6a0a:	47c2                	lw	a5,16(sp)
    6a0c:	4601                	li	a2,0
    6a0e:	4501                	li	a0,0
    6a10:	00fc05b3          	add	a1,s8,a5
    6a14:	05c2                	slli	a1,a1,0x10
    6a16:	81c1                	srli	a1,a1,0x10
    6a18:	f83fd0ef          	jal	ra,499a <pbuf_alloc>
    6a1c:	c048                	sw	a0,4(s0)
    6a1e:	14050f63          	beqz	a0,6b7c <tcp_enqueue+0x266>
    6a22:	910fe0ef          	jal	ra,4b32 <pbuf_clen>
    6a26:	47b2                	lw	a5,12(sp)
    6a28:	94aa                	add	s1,s1,a0
    6a2a:	04c2                	slli	s1,s1,0x10
    6a2c:	80c1                	srli	s1,s1,0x10
    6a2e:	cf81                	beqz	a5,6a46 <tcp_enqueue+0x130>
    6a30:	405c                	lw	a5,4(s0)
    6a32:	85e6                	mv	a1,s9
    6a34:	43c8                	lw	a0,4(a5)
    6a36:	67c1                	lui	a5,0x10
    6a38:	17fd                	addi	a5,a5,-1
    6a3a:	00fa7633          	and	a2,s4,a5
    6a3e:	4792                	lw	a5,4(sp)
    6a40:	953e                	add	a0,a0,a5
    6a42:	07f010ef          	jal	ra,82c0 <memcpy>
    6a46:	405c                	lw	a5,4(s0)
    6a48:	43dc                	lw	a5,4(a5)
    6a4a:	c41c                	sw	a5,8(s0)
    6a4c:	008d2783          	lw	a5,8(s10)
    6a50:	004d2703          	lw	a4,4(s10)
    6a54:	078a                	slli	a5,a5,0x2
    6a56:	02e7d7b3          	divu	a5,a5,a4
    6a5a:	1297e163          	bltu	a5,s1,6b7c <tcp_enqueue+0x266>
    6a5e:	5782                	lw	a5,32(sp)
    6a60:	1097ee63          	bltu	a5,s1,6b7c <tcp_enqueue+0x266>
    6a64:	4048                	lw	a0,4(s0)
    6a66:	01841623          	sh	s8,12(s0)
    6a6a:	45d1                	li	a1,20
    6a6c:	e73fd0ef          	jal	ra,48de <pbuf_header>
    6a70:	10051663          	bnez	a0,6b7c <tcp_enqueue+0x266>
    6a74:	405c                	lw	a5,4(s0)
    6a76:	01c95503          	lhu	a0,28(s2)
    6a7a:	418b8bb3          	sub	s7,s7,s8
    6a7e:	43dc                	lw	a5,4(a5)
    6a80:	0bc2                	slli	s7,s7,0x10
    6a82:	010bdb93          	srli	s7,s7,0x10
    6a86:	c81c                	sw	a5,16(s0)
    6a88:	d63e                	sw	a5,44(sp)
    6a8a:	bb9fc0ef          	jal	ra,3642 <htons>
    6a8e:	57b2                	lw	a5,44(sp)
    6a90:	a388                	sb	a0,0(a5)
    6a92:	8121                	srli	a0,a0,0x8
    6a94:	b388                	sb	a0,1(a5)
    6a96:	481c                	lw	a5,16(s0)
    6a98:	02495503          	lhu	a0,36(s2)
    6a9c:	d63e                	sw	a5,44(sp)
    6a9e:	ba5fc0ef          	jal	ra,3642 <htons>
    6aa2:	57b2                	lw	a5,44(sp)
    6aa4:	a3a8                	sb	a0,2(a5)
    6aa6:	8121                	srli	a0,a0,0x8
    6aa8:	b3a8                	sb	a0,3(a5)
    6aaa:	481c                	lw	a5,16(s0)
    6aac:	4522                	lw	a0,8(sp)
    6aae:	d63e                	sw	a5,44(sp)
    6ab0:	baffc0ef          	jal	ra,365e <htonl>
    6ab4:	57b2                	lw	a5,44(sp)
    6ab6:	00855713          	srli	a4,a0,0x8
    6aba:	b3d8                	sb	a4,5(a5)
    6abc:	01055713          	srli	a4,a0,0x10
    6ac0:	a3f8                	sb	a4,6(a5)
    6ac2:	4818                	lw	a4,16(s0)
    6ac4:	a3c8                	sb	a0,4(a5)
    6ac6:	8161                	srli	a0,a0,0x18
    6ac8:	b3e8                	sb	a0,7(a5)
    6aca:	375c                	lbu	a5,13(a4)
    6acc:	2748                	lbu	a0,12(a4)
    6ace:	00070923          	sb	zero,18(a4)
    6ad2:	07a2                	slli	a5,a5,0x8
    6ad4:	8fc9                	or	a5,a5,a0
    6ad6:	5512                	lw	a0,36(sp)
    6ad8:	000709a3          	sb	zero,19(a4)
    6adc:	d63e                	sw	a5,44(sp)
    6ade:	b65fc0ef          	jal	ra,3642 <htons>
    6ae2:	57b2                	lw	a5,44(sp)
    6ae4:	8fe9                	and	a5,a5,a0
    6ae6:	5522                	lw	a0,40(sp)
    6ae8:	d63e                	sw	a5,44(sp)
    6aea:	b59fc0ef          	jal	ra,3642 <htons>
    6aee:	57b2                	lw	a5,44(sp)
    6af0:	8d5d                	or	a0,a0,a5
    6af2:	0542                	slli	a0,a0,0x10
    6af4:	481c                	lw	a5,16(s0)
    6af6:	8141                	srli	a0,a0,0x10
    6af8:	00855713          	srli	a4,a0,0x8
    6afc:	b7d8                	sb	a4,13(a5)
    6afe:	a7c8                	sb	a0,12(a5)
    6b00:	01b40723          	sb	s11,14(s0)
    6b04:	b4dfc0ef          	jal	ra,3650 <ntohs>
    6b08:	481c                	lw	a5,16(s0)
    6b0a:	03f57513          	andi	a0,a0,63
    6b0e:	d63e                	sw	a5,44(sp)
    6b10:	47e2                	lw	a5,24(sp)
    6b12:	8d5d                	or	a0,a0,a5
    6b14:	b2ffc0ef          	jal	ra,3642 <htons>
    6b18:	57b2                	lw	a5,44(sp)
    6b1a:	a7c8                	sb	a0,12(a5)
    6b1c:	8121                	srli	a0,a0,0x8
    6b1e:	b7c8                	sb	a0,13(a5)
    6b20:	67c1                	lui	a5,0x10
    6b22:	17fd                	addi	a5,a5,-1
    6b24:	00fa7a33          	and	s4,s4,a5
    6b28:	47a2                	lw	a5,8(sp)
    6b2a:	9cd2                	add	s9,s9,s4
    6b2c:	97d2                	add	a5,a5,s4
    6b2e:	c43e                	sw	a5,8(sp)
    6b30:	87a2                	mv	a5,s0
    6b32:	e80b9ee3          	bnez	s7,69ce <tcp_enqueue+0xb8>
    6b36:	07c92a03          	lw	s4,124(s2)
    6b3a:	060a1963          	bnez	s4,6bac <tcp_enqueue+0x296>
    6b3e:	07392e23          	sw	s3,124(s2)
    6b42:	a251                	j	6cc6 <tcp_enqueue+0x3b0>
    6b44:	89aa                	mv	s3,a0
    6b46:	bd7d                	j	6a04 <tcp_enqueue+0xee>
    6b48:	45c2                	lw	a1,16(sp)
    6b4a:	4601                	li	a2,0
    6b4c:	4501                	li	a0,0
    6b4e:	e4dfd0ef          	jal	ra,499a <pbuf_alloc>
    6b52:	c048                	sw	a0,4(s0)
    6b54:	c505                	beqz	a0,6b7c <tcp_enqueue+0x266>
    6b56:	fddfd0ef          	jal	ra,4b32 <pbuf_clen>
    6b5a:	94aa                	add	s1,s1,a0
    6b5c:	04c2                	slli	s1,s1,0x10
    6b5e:	80c1                	srli	s1,s1,0x10
    6b60:	ee0b86e3          	beqz	s7,6a4c <tcp_enqueue+0x136>
    6b64:	85e2                	mv	a1,s8
    6b66:	4605                	li	a2,1
    6b68:	450d                	li	a0,3
    6b6a:	e31fd0ef          	jal	ra,499a <pbuf_alloc>
    6b6e:	85aa                	mv	a1,a0
    6b70:	4048                	lw	a0,4(s0)
    6b72:	e195                	bnez	a1,6b96 <tcp_enqueue+0x280>
    6b74:	dd9fd0ef          	jal	ra,494c <pbuf_free>
    6b78:	00042223          	sw	zero,4(s0)
    6b7c:	02694783          	lbu	a5,38(s2)
    6b80:	5a7d                	li	s4,-1
    6b82:	f807e793          	ori	a5,a5,-128
    6b86:	02f90323          	sb	a5,38(s2)
    6b8a:	da0987e3          	beqz	s3,6938 <tcp_enqueue+0x22>
    6b8e:	854e                	mv	a0,s3
    6b90:	b84fe0ef          	jal	ra,4f14 <tcp_segs_free>
    6b94:	b355                	j	6938 <tcp_enqueue+0x22>
    6b96:	0195a223          	sw	s9,4(a1)
    6b9a:	0485                	addi	s1,s1,1
    6b9c:	04c2                	slli	s1,s1,0x10
    6b9e:	01942423          	sw	s9,8(s0)
    6ba2:	80c1                	srli	s1,s1,0x10
    6ba4:	fabfd0ef          	jal	ra,4b4e <pbuf_cat>
    6ba8:	b555                	j	6a4c <tcp_enqueue+0x136>
    6baa:	8a3e                	mv	s4,a5
    6bac:	000a2783          	lw	a5,0(s4)
    6bb0:	ffed                	bnez	a5,6baa <tcp_enqueue+0x294>
    6bb2:	010a2783          	lw	a5,16(s4)
    6bb6:	00ca5b83          	lhu	s7,12(s4)
    6bba:	27c8                	lbu	a0,12(a5)
    6bbc:	37dc                	lbu	a5,13(a5)
    6bbe:	07a2                	slli	a5,a5,0x8
    6bc0:	8d5d                	or	a0,a0,a5
    6bc2:	a8ffc0ef          	jal	ra,3650 <ntohs>
    6bc6:	890d                	andi	a0,a0,3
    6bc8:	00a03533          	snez	a0,a0
    6bcc:	955e                	add	a0,a0,s7
    6bce:	18050563          	beqz	a0,6d58 <tcp_enqueue+0x442>
    6bd2:	010a2783          	lw	a5,16(s4)
    6bd6:	27c8                	lbu	a0,12(a5)
    6bd8:	37dc                	lbu	a5,13(a5)
    6bda:	07a2                	slli	a5,a5,0x8
    6bdc:	8d5d                	or	a0,a0,a5
    6bde:	a73fc0ef          	jal	ra,3650 <ntohs>
    6be2:	890d                	andi	a0,a0,3
    6be4:	16051a63          	bnez	a0,6d58 <tcp_enqueue+0x442>
    6be8:	003b7793          	andi	a5,s6,3
    6bec:	c781                	beqz	a5,6bf4 <tcp_enqueue+0x2de>
    6bee:	4785                	li	a5,1
    6bf0:	16fb1463          	bne	s6,a5,6d58 <tcp_enqueue+0x442>
    6bf4:	00c9d703          	lhu	a4,12(s3)
    6bf8:	00ca5783          	lhu	a5,12(s4)
    6bfc:	97ba                	add	a5,a5,a4
    6bfe:	04095703          	lhu	a4,64(s2)
    6c02:	14f74b63          	blt	a4,a5,6d58 <tcp_enqueue+0x442>
    6c06:	00ea4703          	lbu	a4,14(s4)
    6c0a:	00e9c783          	lbu	a5,14(s3)
    6c0e:	14f71563          	bne	a4,a5,6d58 <tcp_enqueue+0x442>
    6c12:	010a2703          	lw	a4,16(s4)
    6c16:	3348                	lbu	a0,5(a4)
    6c18:	235c                	lbu	a5,4(a4)
    6c1a:	0522                	slli	a0,a0,0x8
    6c1c:	8d5d                	or	a0,a0,a5
    6c1e:	237c                	lbu	a5,6(a4)
    6c20:	07c2                	slli	a5,a5,0x10
    6c22:	8fc9                	or	a5,a5,a0
    6c24:	3368                	lbu	a0,7(a4)
    6c26:	0562                	slli	a0,a0,0x18
    6c28:	8d5d                	or	a0,a0,a5
    6c2a:	a59fc0ef          	jal	ra,3682 <ntohl>
    6c2e:	0109a703          	lw	a4,16(s3)
    6c32:	00ca5b83          	lhu	s7,12(s4)
    6c36:	235c                	lbu	a5,4(a4)
    6c38:	9baa                	add	s7,s7,a0
    6c3a:	3348                	lbu	a0,5(a4)
    6c3c:	0522                	slli	a0,a0,0x8
    6c3e:	8d5d                	or	a0,a0,a5
    6c40:	237c                	lbu	a5,6(a4)
    6c42:	07c2                	slli	a5,a5,0x10
    6c44:	8fc9                	or	a5,a5,a0
    6c46:	3368                	lbu	a0,7(a4)
    6c48:	0562                	slli	a0,a0,0x18
    6c4a:	8d5d                	or	a0,a0,a5
    6c4c:	a37fc0ef          	jal	ra,3682 <ntohl>
    6c50:	10ab9463          	bne	s7,a0,6d58 <tcp_enqueue+0x442>
    6c54:	47c2                	lw	a5,16(sp)
    6c56:	55b1                	li	a1,-20
    6c58:	0049a503          	lw	a0,4(s3)
    6c5c:	8d9d                	sub	a1,a1,a5
    6c5e:	05c2                	slli	a1,a1,0x10
    6c60:	85c1                	srai	a1,a1,0x10
    6c62:	c7dfd0ef          	jal	ra,48de <pbuf_header>
    6c66:	f0051be3          	bnez	a0,6b7c <tcp_enqueue+0x266>
    6c6a:	0049a503          	lw	a0,4(s3)
    6c6e:	253e                	lhu	a5,10(a0)
    6c70:	eb99                	bnez	a5,6c86 <tcp_enqueue+0x370>
    6c72:	411c                	lw	a5,0(a0)
    6c74:	14fd                	addi	s1,s1,-1
    6c76:	04c2                	slli	s1,s1,0x10
    6c78:	00f9a223          	sw	a5,4(s3)
    6c7c:	00052023          	sw	zero,0(a0)
    6c80:	80c1                	srli	s1,s1,0x10
    6c82:	ccbfd0ef          	jal	ra,494c <pbuf_free>
    6c86:	001b7793          	andi	a5,s6,1
    6c8a:	c7cd                	beqz	a5,6d34 <tcp_enqueue+0x41e>
    6c8c:	010a2783          	lw	a5,16(s4)
    6c90:	00d7cb83          	lbu	s7,13(a5) # 1000d <_data_lma+0x61a9>
    6c94:	27c8                	lbu	a0,12(a5)
    6c96:	0ba2                	slli	s7,s7,0x8
    6c98:	00abebb3          	or	s7,s7,a0
    6c9c:	4505                	li	a0,1
    6c9e:	9a5fc0ef          	jal	ra,3642 <htons>
    6ca2:	010a2783          	lw	a5,16(s4)
    6ca6:	00abe533          	or	a0,s7,a0
    6caa:	0542                	slli	a0,a0,0x10
    6cac:	8141                	srli	a0,a0,0x10
    6cae:	a7c8                	sb	a0,12(a5)
    6cb0:	8121                	srli	a0,a0,0x8
    6cb2:	b7c8                	sb	a0,13(a5)
    6cb4:	00899563          	bne	s3,s0,6cbe <tcp_enqueue+0x3a8>
    6cb8:	00ca5c03          	lhu	s8,12(s4)
    6cbc:	8452                	mv	s0,s4
    6cbe:	85ce                	mv	a1,s3
    6cc0:	4511                	li	a0,4
    6cc2:	ab9fd0ef          	jal	ra,477a <memp_free>
    6cc6:	003b7793          	andi	a5,s6,3
    6cca:	c789                	beqz	a5,6cd4 <tcp_enqueue+0x3be>
    6ccc:	0a85                	addi	s5,s5,1
    6cce:	0ac2                	slli	s5,s5,0x10
    6cd0:	010ada93          	srli	s5,s5,0x10
    6cd4:	001b7b13          	andi	s6,s6,1
    6cd8:	000b0863          	beqz	s6,6ce8 <tcp_enqueue+0x3d2>
    6cdc:	02694783          	lbu	a5,38(s2)
    6ce0:	0207e793          	ori	a5,a5,32
    6ce4:	02f90323          	sb	a5,38(s2)
    6ce8:	07092783          	lw	a5,112(s2)
    6cec:	06991c23          	sh	s1,120(s2)
    6cf0:	4a01                	li	s4,0
    6cf2:	97d6                	add	a5,a5,s5
    6cf4:	06f92823          	sw	a5,112(s2)
    6cf8:	07695783          	lhu	a5,118(s2)
    6cfc:	41578ab3          	sub	s5,a5,s5
    6d00:	07591b23          	sh	s5,118(s2)
    6d04:	c20c0ae3          	beqz	s8,6938 <tcp_enqueue+0x22>
    6d08:	481c                	lw	a5,16(s0)
    6d0a:	c20787e3          	beqz	a5,6938 <tcp_enqueue+0x22>
    6d0e:	4752                	lw	a4,20(sp)
    6d10:	8b09                	andi	a4,a4,2
    6d12:	c20713e3          	bnez	a4,6938 <tcp_enqueue+0x22>
    6d16:	37c4                	lbu	s1,13(a5)
    6d18:	27c8                	lbu	a0,12(a5)
    6d1a:	04a2                	slli	s1,s1,0x8
    6d1c:	8cc9                	or	s1,s1,a0
    6d1e:	4521                	li	a0,8
    6d20:	923fc0ef          	jal	ra,3642 <htons>
    6d24:	481c                	lw	a5,16(s0)
    6d26:	8d45                	or	a0,a0,s1
    6d28:	0542                	slli	a0,a0,0x10
    6d2a:	8141                	srli	a0,a0,0x10
    6d2c:	a7c8                	sb	a0,12(a5)
    6d2e:	8121                	srli	a0,a0,0x8
    6d30:	b7c8                	sb	a0,13(a5)
    6d32:	b119                	j	6938 <tcp_enqueue+0x22>
    6d34:	0049a583          	lw	a1,4(s3)
    6d38:	004a2503          	lw	a0,4(s4)
    6d3c:	e13fd0ef          	jal	ra,4b4e <pbuf_cat>
    6d40:	00c9d703          	lhu	a4,12(s3)
    6d44:	00ca5783          	lhu	a5,12(s4)
    6d48:	97ba                	add	a5,a5,a4
    6d4a:	00fa1623          	sh	a5,12(s4)
    6d4e:	0009a783          	lw	a5,0(s3)
    6d52:	00fa2023          	sw	a5,0(s4)
    6d56:	bfb9                	j	6cb4 <tcp_enqueue+0x39e>
    6d58:	013a2023          	sw	s3,0(s4)
    6d5c:	b7ad                	j	6cc6 <tcp_enqueue+0x3b0>

00006d5e <tcp_send_ctrl>:
tcp_send_ctrl():
    6d5e:	c92f92ef          	jal	t0,1f0 <__riscv_save_0>
    6d62:	86ae                	mv	a3,a1
    6d64:	4781                	li	a5,0
    6d66:	4705                	li	a4,1
    6d68:	4601                	li	a2,0
    6d6a:	4581                	li	a1,0
    6d6c:	babff0ef          	jal	ra,6916 <tcp_enqueue>
    6d70:	ca4f906f          	j	214 <__riscv_restore_0>

00006d74 <tcp_send_empty_ack>:
tcp_send_empty_ack():
    6d74:	c62f92ef          	jal	t0,1d6 <__riscv_save_4>
    6d78:	842a                	mv	s0,a0
    6d7a:	4601                	li	a2,0
    6d7c:	45d1                	li	a1,20
    6d7e:	4505                	li	a0,1
    6d80:	c1bfd0ef          	jal	ra,499a <pbuf_alloc>
    6d84:	cd31                	beqz	a0,6de0 <tcp_send_empty_ack+0x6c>
    6d86:	02644783          	lbu	a5,38(s0)
    6d8a:	84aa                	mv	s1,a0
    6d8c:	5028                	lw	a0,96(s0)
    6d8e:	9bf1                	andi	a5,a5,-4
    6d90:	02f40323          	sb	a5,38(s0)
    6d94:	8cbfc0ef          	jal	ra,365e <htonl>
    6d98:	40cc                	lw	a1,4(s1)
    6d9a:	862a                	mv	a2,a0
    6d9c:	8522                	mv	a0,s0
    6d9e:	aa5ff0ef          	jal	ra,6842 <tcp_output_set_header.isra.0.constprop.1>
    6da2:	249a                	lhu	a4,8(s1)
    6da4:	00440913          	addi	s2,s0,4
    6da8:	89aa                	mv	s3,a0
    6daa:	4699                	li	a3,6
    6dac:	864a                	mv	a2,s2
    6dae:	85a2                	mv	a1,s0
    6db0:	8526                	mv	a0,s1
    6db2:	557000ef          	jal	ra,7b08 <inet_chksum_pseudo>
    6db6:	00a98823          	sb	a0,16(s3)
    6dba:	8121                	srli	a0,a0,0x8
    6dbc:	00a988a3          	sb	a0,17(s3)
    6dc0:	2438                	lbu	a4,10(s0)
    6dc2:	3434                	lbu	a3,11(s0)
    6dc4:	4799                	li	a5,6
    6dc6:	864a                	mv	a2,s2
    6dc8:	85a2                	mv	a1,s0
    6dca:	8526                	mv	a0,s1
    6dcc:	d03fc0ef          	jal	ra,3ace <ip_output>
    6dd0:	8526                	mv	a0,s1
    6dd2:	b7bfd0ef          	jal	ra,494c <pbuf_free>
    6dd6:	4501                	li	a0,0
    6dd8:	020403a3          	sb	zero,39(s0)
    6ddc:	c2ef906f          	j	20a <__riscv_restore_4>
    6de0:	5579                	li	a0,-2
    6de2:	bfed                	j	6ddc <tcp_send_empty_ack+0x68>

00006de4 <tcp_output>:
tcp_output():
    6de4:	91c1a783          	lw	a5,-1764(gp) # 2000033c <tcp_input_pcb>
    6de8:	36a78063          	beq	a5,a0,7148 <tcp_output+0x364>
    6dec:	bd4f92ef          	jal	t0,1c0 <__riscv_save_12>
    6df0:	06455783          	lhu	a5,100(a0)
    6df4:	05a55a03          	lhu	s4,90(a0)
    6df8:	0147f363          	bgeu	a5,s4,6dfe <tcp_output+0x1a>
    6dfc:	8a3e                	mv	s4,a5
    6dfe:	02654783          	lbu	a5,38(a0)
    6e02:	0a42                	slli	s4,s4,0x10
    6e04:	842a                	mv	s0,a0
    6e06:	8b89                	andi	a5,a5,2
    6e08:	010a5a13          	srli	s4,s4,0x10
    6e0c:	5d64                	lw	s1,124(a0)
    6e0e:	cb95                	beqz	a5,6e42 <tcp_output+0x5e>
    6e10:	e491                	bnez	s1,6e1c <tcp_output+0x38>
    6e12:	8522                	mv	a0,s0
    6e14:	f61ff0ef          	jal	ra,6d74 <tcp_send_empty_ack>
    6e18:	be4f906f          	j	1fc <__riscv_restore_12>
    6e1c:	4898                	lw	a4,16(s1)
    6e1e:	3348                	lbu	a0,5(a4)
    6e20:	235c                	lbu	a5,4(a4)
    6e22:	0522                	slli	a0,a0,0x8
    6e24:	8d5d                	or	a0,a0,a5
    6e26:	237c                	lbu	a5,6(a4)
    6e28:	07c2                	slli	a5,a5,0x10
    6e2a:	8fc9                	or	a5,a5,a0
    6e2c:	3368                	lbu	a0,7(a4)
    6e2e:	0562                	slli	a0,a0,0x18
    6e30:	8d5d                	or	a0,a0,a5
    6e32:	851fc0ef          	jal	ra,3682 <ntohl>
    6e36:	24de                	lhu	a5,12(s1)
    6e38:	4878                	lw	a4,84(s0)
    6e3a:	8f99                	sub	a5,a5,a4
    6e3c:	953e                	add	a0,a0,a5
    6e3e:	fcaa6ae3          	bltu	s4,a0,6e12 <tcp_output+0x2e>
    6e42:	08042983          	lw	s3,128(s0)
    6e46:	08099663          	bnez	s3,6ed2 <tcp_output+0xee>
    6e4a:	20006ab7          	lui	s5,0x20006
    6e4e:	4b89                	li	s7,2
    6e50:	710a8a93          	addi	s5,s5,1808 # 20006710 <WCHCfg>
    6e54:	02040c37          	lui	s8,0x2040
    6e58:	00440b13          	addi	s6,s0,4
    6e5c:	5cfd                	li	s9,-1
    6e5e:	c0ad                	beqz	s1,6ec0 <tcp_output+0xdc>
    6e60:	4898                	lw	a4,16(s1)
    6e62:	3348                	lbu	a0,5(a4)
    6e64:	235c                	lbu	a5,4(a4)
    6e66:	0522                	slli	a0,a0,0x8
    6e68:	8d5d                	or	a0,a0,a5
    6e6a:	237c                	lbu	a5,6(a4)
    6e6c:	07c2                	slli	a5,a5,0x10
    6e6e:	8fc9                	or	a5,a5,a0
    6e70:	3368                	lbu	a0,7(a4)
    6e72:	0562                	slli	a0,a0,0x18
    6e74:	8d5d                	or	a0,a0,a5
    6e76:	80dfc0ef          	jal	ra,3682 <ntohl>
    6e7a:	24de                	lhu	a5,12(s1)
    6e7c:	4878                	lw	a4,84(s0)
    6e7e:	8f99                	sub	a5,a5,a4
    6e80:	953e                	add	a0,a0,a5
    6e82:	04aa7c63          	bgeu	s4,a0,6eda <tcp_output+0xf6>
    6e86:	0b044783          	lbu	a5,176(s0)
    6e8a:	eb9d                	bnez	a5,6ec0 <tcp_output+0xdc>
    6e8c:	4898                	lw	a4,16(s1)
    6e8e:	3348                	lbu	a0,5(a4)
    6e90:	235c                	lbu	a5,4(a4)
    6e92:	0522                	slli	a0,a0,0x8
    6e94:	8d5d                	or	a0,a0,a5
    6e96:	237c                	lbu	a5,6(a4)
    6e98:	07c2                	slli	a5,a5,0x10
    6e9a:	8fc9                	or	a5,a5,a0
    6e9c:	3368                	lbu	a0,7(a4)
    6e9e:	0562                	slli	a0,a0,0x18
    6ea0:	8d5d                	or	a0,a0,a5
    6ea2:	fe0fc0ef          	jal	ra,3682 <ntohl>
    6ea6:	24de                	lhu	a5,12(s1)
    6ea8:	4878                	lw	a4,84(s0)
    6eaa:	8f99                	sub	a5,a5,a4
    6eac:	953e                	add	a0,a0,a5
    6eae:	06445783          	lhu	a5,100(s0)
    6eb2:	00a7f763          	bgeu	a5,a0,6ec0 <tcp_output+0xdc>
    6eb6:	4785                	li	a5,1
    6eb8:	0a042623          	sw	zero,172(s0)
    6ebc:	0af40823          	sb	a5,176(s0)
    6ec0:	02644783          	lbu	a5,38(s0)
    6ec4:	4501                	li	a0,0
    6ec6:	07f7f793          	andi	a5,a5,127
    6eca:	02f40323          	sb	a5,38(s0)
    6ece:	b7a9                	j	6e18 <tcp_output+0x34>
    6ed0:	89be                	mv	s3,a5
    6ed2:	0009a783          	lw	a5,0(s3)
    6ed6:	ffed                	bnez	a5,6ed0 <tcp_output+0xec>
    6ed8:	bf8d                	j	6e4a <tcp_output+0x66>
    6eda:	08042783          	lw	a5,128(s0)
    6ede:	c395                	beqz	a5,6f02 <tcp_output+0x11e>
    6ee0:	02644783          	lbu	a5,38(s0)
    6ee4:	0447f713          	andi	a4,a5,68
    6ee8:	ef09                	bnez	a4,6f02 <tcp_output+0x11e>
    6eea:	5c78                	lw	a4,124(s0)
    6eec:	cb01                	beqz	a4,6efc <tcp_output+0x118>
    6eee:	4314                	lw	a3,0(a4)
    6ef0:	ea89                	bnez	a3,6f02 <tcp_output+0x11e>
    6ef2:	2756                	lhu	a3,12(a4)
    6ef4:	04045703          	lhu	a4,64(s0)
    6ef8:	00e6f563          	bgeu	a3,a4,6f02 <tcp_output+0x11e>
    6efc:	0a07f793          	andi	a5,a5,160
    6f00:	d3d9                	beqz	a5,6e86 <tcp_output+0xa2>
    6f02:	409c                	lw	a5,0(s1)
    6f04:	dc7c                	sw	a5,124(s0)
    6f06:	481c                	lw	a5,16(s0)
    6f08:	03778963          	beq	a5,s7,6f3a <tcp_output+0x156>
    6f0c:	489c                	lw	a5,16(s1)
    6f0e:	00d7c903          	lbu	s2,13(a5)
    6f12:	27c8                	lbu	a0,12(a5)
    6f14:	0922                	slli	s2,s2,0x8
    6f16:	00a96933          	or	s2,s2,a0
    6f1a:	4541                	li	a0,16
    6f1c:	f26fc0ef          	jal	ra,3642 <htons>
    6f20:	489c                	lw	a5,16(s1)
    6f22:	00a96533          	or	a0,s2,a0
    6f26:	0542                	slli	a0,a0,0x10
    6f28:	8141                	srli	a0,a0,0x10
    6f2a:	a7c8                	sb	a0,12(a5)
    6f2c:	8121                	srli	a0,a0,0x8
    6f2e:	b7c8                	sb	a0,13(a5)
    6f30:	02644783          	lbu	a5,38(s0)
    6f34:	9bf1                	andi	a5,a5,-4
    6f36:	02f40323          	sb	a5,38(s0)
    6f3a:	5408                	lw	a0,40(s0)
    6f3c:	0104a903          	lw	s2,16(s1)
    6f40:	f1efc0ef          	jal	ra,365e <htonl>
    6f44:	00855793          	srli	a5,a0,0x8
    6f48:	00a90423          	sb	a0,8(s2)
    6f4c:	00f904a3          	sb	a5,9(s2)
    6f50:	01055793          	srli	a5,a0,0x10
    6f54:	8161                	srli	a0,a0,0x18
    6f56:	00a905a3          	sb	a0,11(s2)
    6f5a:	346a                	lhu	a0,46(s0)
    6f5c:	00f90523          	sb	a5,10(s2)
    6f60:	0104a903          	lw	s2,16(s1)
    6f64:	edefc0ef          	jal	ra,3642 <htons>
    6f68:	347a                	lhu	a4,46(s0)
    6f6a:	541c                	lw	a5,40(s0)
    6f6c:	00a90723          	sb	a0,14(s2)
    6f70:	8121                	srli	a0,a0,0x8
    6f72:	00a907a3          	sb	a0,15(s2)
    6f76:	97ba                	add	a5,a5,a4
    6f78:	b87a                	sh	a4,54(s0)
    6f7a:	d81c                	sw	a5,48(s0)
    6f7c:	24fc                	lbu	a5,14(s1)
    6f7e:	8b85                	andi	a5,a5,1
    6f80:	cb99                	beqz	a5,6f96 <tcp_output+0x1b2>
    6f82:	004aa503          	lw	a0,4(s5)
    6f86:	0104a903          	lw	s2,16(s1)
    6f8a:	00ac6533          	or	a0,s8,a0
    6f8e:	ed0fc0ef          	jal	ra,365e <htonl>
    6f92:	00a92a23          	sw	a0,20(s2)
    6f96:	401c                	lw	a5,0(s0)
    6f98:	e799                	bnez	a5,6fa6 <tcp_output+0x1c2>
    6f9a:	855a                	mv	a0,s6
    6f9c:	ef2fc0ef          	jal	ra,368e <ip_route>
    6fa0:	c559                	beqz	a0,702e <tcp_output+0x24a>
    6fa2:	415c                	lw	a5,4(a0)
    6fa4:	c01c                	sw	a5,0(s0)
    6fa6:	03e41783          	lh	a5,62(s0)
    6faa:	01979463          	bne	a5,s9,6fb2 <tcp_output+0x1ce>
    6fae:	02041f23          	sh	zero,62(s0)
    6fb2:	407c                	lw	a5,68(s0)
    6fb4:	e395                	bnez	a5,6fd8 <tcp_output+0x1f4>
    6fb6:	8f81a783          	lw	a5,-1800(gp) # 20000318 <tcp_ticks>
    6fba:	4898                	lw	a4,16(s1)
    6fbc:	c07c                	sw	a5,68(s0)
    6fbe:	3348                	lbu	a0,5(a4)
    6fc0:	235c                	lbu	a5,4(a4)
    6fc2:	0522                	slli	a0,a0,0x8
    6fc4:	8d5d                	or	a0,a0,a5
    6fc6:	237c                	lbu	a5,6(a4)
    6fc8:	07c2                	slli	a5,a5,0x10
    6fca:	8fc9                	or	a5,a5,a0
    6fcc:	3368                	lbu	a0,7(a4)
    6fce:	0562                	slli	a0,a0,0x18
    6fd0:	8d5d                	or	a0,a0,a5
    6fd2:	eb0fc0ef          	jal	ra,3682 <ntohl>
    6fd6:	c428                	sw	a0,72(s0)
    6fd8:	40c8                	lw	a0,4(s1)
    6fda:	0104a903          	lw	s2,16(s1)
    6fde:	4699                	li	a3,6
    6fe0:	4158                	lw	a4,4(a0)
    6fe2:	01252223          	sw	s2,4(a0)
    6fe6:	865a                	mv	a2,s6
    6fe8:	40e90733          	sub	a4,s2,a4
    6fec:	01071793          	slli	a5,a4,0x10
    6ff0:	253a                	lhu	a4,10(a0)
    6ff2:	83c1                	srli	a5,a5,0x10
    6ff4:	85a2                	mv	a1,s0
    6ff6:	8f1d                	sub	a4,a4,a5
    6ff8:	a53a                	sh	a4,10(a0)
    6ffa:	251a                	lhu	a4,8(a0)
    6ffc:	8f1d                	sub	a4,a4,a5
    6ffe:	0742                	slli	a4,a4,0x10
    7000:	8341                	srli	a4,a4,0x10
    7002:	a51a                	sh	a4,8(a0)
    7004:	00090823          	sb	zero,16(s2)
    7008:	000908a3          	sb	zero,17(s2)
    700c:	2fd000ef          	jal	ra,7b08 <inet_chksum_pseudo>
    7010:	00a90823          	sb	a0,16(s2)
    7014:	8121                	srli	a0,a0,0x8
    7016:	00a908a3          	sb	a0,17(s2)
    701a:	2438                	lbu	a4,10(s0)
    701c:	3434                	lbu	a3,11(s0)
    701e:	40c8                	lw	a0,4(s1)
    7020:	4799                	li	a5,6
    7022:	865a                	mv	a2,s6
    7024:	85a2                	mv	a1,s0
    7026:	aa9fc0ef          	jal	ra,3ace <ip_output>
    702a:	020403a3          	sb	zero,39(s0)
    702e:	4898                	lw	a4,16(s1)
    7030:	3348                	lbu	a0,5(a4)
    7032:	235c                	lbu	a5,4(a4)
    7034:	0522                	slli	a0,a0,0x8
    7036:	8d5d                	or	a0,a0,a5
    7038:	237c                	lbu	a5,6(a4)
    703a:	07c2                	slli	a5,a5,0x10
    703c:	8fc9                	or	a5,a5,a0
    703e:	3368                	lbu	a0,7(a4)
    7040:	0562                	slli	a0,a0,0x18
    7042:	8d5d                	or	a0,a0,a5
    7044:	e3efc0ef          	jal	ra,3682 <ntohl>
    7048:	489c                	lw	a5,16(s1)
    704a:	892a                	mv	s2,a0
    704c:	00c4dd83          	lhu	s11,12(s1)
    7050:	27c8                	lbu	a0,12(a5)
    7052:	37dc                	lbu	a5,13(a5)
    7054:	07a2                	slli	a5,a5,0x8
    7056:	8d5d                	or	a0,a0,a5
    7058:	df8fc0ef          	jal	ra,3650 <ntohs>
    705c:	890d                	andi	a0,a0,3
    705e:	00a03533          	snez	a0,a0
    7062:	503c                	lw	a5,96(s0)
    7064:	956e                	add	a0,a0,s11
    7066:	954a                	add	a0,a0,s2
    7068:	8f89                	sub	a5,a5,a0
    706a:	0007d363          	bgez	a5,7070 <tcp_output+0x28c>
    706e:	d028                	sw	a0,96(s0)
    7070:	489c                	lw	a5,16(s1)
    7072:	00c4d903          	lhu	s2,12(s1)
    7076:	27c8                	lbu	a0,12(a5)
    7078:	37dc                	lbu	a5,13(a5)
    707a:	07a2                	slli	a5,a5,0x8
    707c:	8d5d                	or	a0,a0,a5
    707e:	dd2fc0ef          	jal	ra,3650 <ntohs>
    7082:	890d                	andi	a0,a0,3
    7084:	00a03533          	snez	a0,a0
    7088:	954a                	add	a0,a0,s2
    708a:	c95d                	beqz	a0,7140 <tcp_output+0x35c>
    708c:	08042783          	lw	a5,128(s0)
    7090:	0004a023          	sw	zero,0(s1)
    7094:	e789                	bnez	a5,709e <tcp_output+0x2ba>
    7096:	08942023          	sw	s1,128(s0)
    709a:	89a6                	mv	s3,s1
    709c:	a899                	j	70f2 <tcp_output+0x30e>
    709e:	4898                	lw	a4,16(s1)
    70a0:	3348                	lbu	a0,5(a4)
    70a2:	235c                	lbu	a5,4(a4)
    70a4:	0522                	slli	a0,a0,0x8
    70a6:	8d5d                	or	a0,a0,a5
    70a8:	237c                	lbu	a5,6(a4)
    70aa:	07c2                	slli	a5,a5,0x10
    70ac:	8fc9                	or	a5,a5,a0
    70ae:	3368                	lbu	a0,7(a4)
    70b0:	0562                	slli	a0,a0,0x18
    70b2:	8d5d                	or	a0,a0,a5
    70b4:	dcefc0ef          	jal	ra,3682 <ntohl>
    70b8:	0109a703          	lw	a4,16(s3)
    70bc:	892a                	mv	s2,a0
    70be:	3348                	lbu	a0,5(a4)
    70c0:	235c                	lbu	a5,4(a4)
    70c2:	0522                	slli	a0,a0,0x8
    70c4:	8d5d                	or	a0,a0,a5
    70c6:	237c                	lbu	a5,6(a4)
    70c8:	07c2                	slli	a5,a5,0x10
    70ca:	8fc9                	or	a5,a5,a0
    70cc:	3368                	lbu	a0,7(a4)
    70ce:	0562                	slli	a0,a0,0x18
    70d0:	8d5d                	or	a0,a0,a5
    70d2:	db0fc0ef          	jal	ra,3682 <ntohl>
    70d6:	40a90533          	sub	a0,s2,a0
    70da:	06055063          	bgez	a0,713a <tcp_output+0x356>
    70de:	08040913          	addi	s2,s0,128
    70e2:	00092783          	lw	a5,0(s2)
    70e6:	eb81                	bnez	a5,70f6 <tcp_output+0x312>
    70e8:	00092783          	lw	a5,0(s2)
    70ec:	c09c                	sw	a5,0(s1)
    70ee:	00992023          	sw	s1,0(s2)
    70f2:	5c64                	lw	s1,124(s0)
    70f4:	b3ad                	j	6e5e <tcp_output+0x7a>
    70f6:	4b98                	lw	a4,16(a5)
    70f8:	3348                	lbu	a0,5(a4)
    70fa:	235c                	lbu	a5,4(a4)
    70fc:	0522                	slli	a0,a0,0x8
    70fe:	8d5d                	or	a0,a0,a5
    7100:	237c                	lbu	a5,6(a4)
    7102:	07c2                	slli	a5,a5,0x10
    7104:	8fc9                	or	a5,a5,a0
    7106:	3368                	lbu	a0,7(a4)
    7108:	0562                	slli	a0,a0,0x18
    710a:	8d5d                	or	a0,a0,a5
    710c:	d76fc0ef          	jal	ra,3682 <ntohl>
    7110:	4898                	lw	a4,16(s1)
    7112:	8daa                	mv	s11,a0
    7114:	3348                	lbu	a0,5(a4)
    7116:	235c                	lbu	a5,4(a4)
    7118:	0522                	slli	a0,a0,0x8
    711a:	8d5d                	or	a0,a0,a5
    711c:	237c                	lbu	a5,6(a4)
    711e:	07c2                	slli	a5,a5,0x10
    7120:	8fc9                	or	a5,a5,a0
    7122:	3368                	lbu	a0,7(a4)
    7124:	0562                	slli	a0,a0,0x18
    7126:	8d5d                	or	a0,a0,a5
    7128:	d5afc0ef          	jal	ra,3682 <ntohl>
    712c:	40ad8533          	sub	a0,s11,a0
    7130:	fa055ce3          	bgez	a0,70e8 <tcp_output+0x304>
    7134:	00092903          	lw	s2,0(s2)
    7138:	b76d                	j	70e2 <tcp_output+0x2fe>
    713a:	0099a023          	sw	s1,0(s3)
    713e:	bfb1                	j	709a <tcp_output+0x2b6>
    7140:	8526                	mv	a0,s1
    7142:	da9fd0ef          	jal	ra,4eea <tcp_seg_free>
    7146:	b775                	j	70f2 <tcp_output+0x30e>
    7148:	4501                	li	a0,0
    714a:	8082                	ret

0000714c <tcp_rst>:
tcp_rst():
    714c:	88af92ef          	jal	t0,1d6 <__riscv_save_4>
    7150:	1141                	addi	sp,sp,-16
    7152:	8aaa                	mv	s5,a0
    7154:	84ae                	mv	s1,a1
    7156:	89b2                	mv	s3,a2
    7158:	45d1                	li	a1,20
    715a:	4601                	li	a2,0
    715c:	4505                	li	a0,1
    715e:	8a36                	mv	s4,a3
    7160:	c63a                	sw	a4,12(sp)
    7162:	8b3e                	mv	s6,a5
    7164:	837fd0ef          	jal	ra,499a <pbuf_alloc>
    7168:	0e050363          	beqz	a0,724e <tcp_rst+0x102>
    716c:	4732                	lw	a4,12(sp)
    716e:	4140                	lw	s0,4(a0)
    7170:	892a                	mv	s2,a0
    7172:	853a                	mv	a0,a4
    7174:	ccefc0ef          	jal	ra,3642 <htons>
    7178:	a008                	sb	a0,0(s0)
    717a:	8121                	srli	a0,a0,0x8
    717c:	b008                	sb	a0,1(s0)
    717e:	855a                	mv	a0,s6
    7180:	cc2fc0ef          	jal	ra,3642 <htons>
    7184:	a028                	sb	a0,2(s0)
    7186:	8121                	srli	a0,a0,0x8
    7188:	b028                	sb	a0,3(s0)
    718a:	8556                	mv	a0,s5
    718c:	cd2fc0ef          	jal	ra,365e <htonl>
    7190:	00855793          	srli	a5,a0,0x8
    7194:	a048                	sb	a0,4(s0)
    7196:	b05c                	sb	a5,5(s0)
    7198:	01055793          	srli	a5,a0,0x10
    719c:	8161                	srli	a0,a0,0x18
    719e:	a07c                	sb	a5,6(s0)
    71a0:	b068                	sb	a0,7(s0)
    71a2:	8526                	mv	a0,s1
    71a4:	cbafc0ef          	jal	ra,365e <htonl>
    71a8:	00855793          	srli	a5,a0,0x8
    71ac:	a408                	sb	a0,8(s0)
    71ae:	b41c                	sb	a5,9(s0)
    71b0:	3444                	lbu	s1,13(s0)
    71b2:	01055793          	srli	a5,a0,0x10
    71b6:	8161                	srli	a0,a0,0x18
    71b8:	b428                	sb	a0,11(s0)
    71ba:	2448                	lbu	a0,12(s0)
    71bc:	04a2                	slli	s1,s1,0x8
    71be:	a43c                	sb	a5,10(s0)
    71c0:	8cc9                	or	s1,s1,a0
    71c2:	6541                	lui	a0,0x10
    71c4:	fc050513          	addi	a0,a0,-64 # ffc0 <_data_lma+0x615c>
    71c8:	c7afc0ef          	jal	ra,3642 <htons>
    71cc:	8ce9                	and	s1,s1,a0
    71ce:	4551                	li	a0,20
    71d0:	c72fc0ef          	jal	ra,3642 <htons>
    71d4:	8d45                	or	a0,a0,s1
    71d6:	0542                	slli	a0,a0,0x10
    71d8:	8141                	srli	a0,a0,0x10
    71da:	200067b7          	lui	a5,0x20006
    71de:	a448                	sb	a0,12(s0)
    71e0:	8121                	srli	a0,a0,0x8
    71e2:	b448                	sb	a0,13(s0)
    71e4:	7147d503          	lhu	a0,1812(a5) # 20006714 <WCHCfg+0x4>
    71e8:	c5afc0ef          	jal	ra,3642 <htons>
    71ec:	a468                	sb	a0,14(s0)
    71ee:	345c                	lbu	a5,13(s0)
    71f0:	8121                	srli	a0,a0,0x8
    71f2:	b468                	sb	a0,15(s0)
    71f4:	2448                	lbu	a0,12(s0)
    71f6:	07a2                	slli	a5,a5,0x8
    71f8:	00040923          	sb	zero,18(s0)
    71fc:	8d5d                	or	a0,a0,a5
    71fe:	000409a3          	sb	zero,19(s0)
    7202:	c4efc0ef          	jal	ra,3650 <ntohs>
    7206:	6795                	lui	a5,0x5
    7208:	03f57513          	andi	a0,a0,63
    720c:	8d5d                	or	a0,a0,a5
    720e:	c34fc0ef          	jal	ra,3642 <htons>
    7212:	00895703          	lhu	a4,8(s2)
    7216:	a448                	sb	a0,12(s0)
    7218:	8121                	srli	a0,a0,0x8
    721a:	b448                	sb	a0,13(s0)
    721c:	4699                	li	a3,6
    721e:	8652                	mv	a2,s4
    7220:	85ce                	mv	a1,s3
    7222:	00040823          	sb	zero,16(s0)
    7226:	000408a3          	sb	zero,17(s0)
    722a:	854a                	mv	a0,s2
    722c:	0dd000ef          	jal	ra,7b08 <inet_chksum_pseudo>
    7230:	a808                	sb	a0,16(s0)
    7232:	8121                	srli	a0,a0,0x8
    7234:	b808                	sb	a0,17(s0)
    7236:	4799                	li	a5,6
    7238:	4701                	li	a4,0
    723a:	08000693          	li	a3,128
    723e:	8652                	mv	a2,s4
    7240:	85ce                	mv	a1,s3
    7242:	854a                	mv	a0,s2
    7244:	88bfc0ef          	jal	ra,3ace <ip_output>
    7248:	854a                	mv	a0,s2
    724a:	f02fd0ef          	jal	ra,494c <pbuf_free>
    724e:	0141                	addi	sp,sp,16
    7250:	fbbf806f          	j	20a <__riscv_restore_4>

00007254 <tcp_rexmit>:
tcp_rexmit():
    7254:	f83f82ef          	jal	t0,1d6 <__riscv_save_4>
    7258:	08052483          	lw	s1,128(a0)
    725c:	c495                	beqz	s1,7288 <tcp_rexmit+0x34>
    725e:	409c                	lw	a5,0(s1)
    7260:	842a                	mv	s0,a0
    7262:	07c50913          	addi	s2,a0,124
    7266:	08f52023          	sw	a5,128(a0)
    726a:	00092783          	lw	a5,0(s2)
    726e:	ef99                	bnez	a5,728c <tcp_rexmit+0x38>
    7270:	00092783          	lw	a5,0(s2)
    7274:	c09c                	sw	a5,0(s1)
    7276:	00992023          	sw	s1,0(s2)
    727a:	05244783          	lbu	a5,82(s0)
    727e:	04042223          	sw	zero,68(s0)
    7282:	0785                	addi	a5,a5,1
    7284:	04f40923          	sb	a5,82(s0)
    7288:	f83f806f          	j	20a <__riscv_restore_4>
    728c:	4b98                	lw	a4,16(a5)
    728e:	3348                	lbu	a0,5(a4)
    7290:	235c                	lbu	a5,4(a4)
    7292:	0522                	slli	a0,a0,0x8
    7294:	8d5d                	or	a0,a0,a5
    7296:	237c                	lbu	a5,6(a4)
    7298:	07c2                	slli	a5,a5,0x10
    729a:	8fc9                	or	a5,a5,a0
    729c:	3368                	lbu	a0,7(a4)
    729e:	0562                	slli	a0,a0,0x18
    72a0:	8d5d                	or	a0,a0,a5
    72a2:	be0fc0ef          	jal	ra,3682 <ntohl>
    72a6:	4898                	lw	a4,16(s1)
    72a8:	89aa                	mv	s3,a0
    72aa:	3348                	lbu	a0,5(a4)
    72ac:	235c                	lbu	a5,4(a4)
    72ae:	0522                	slli	a0,a0,0x8
    72b0:	8d5d                	or	a0,a0,a5
    72b2:	237c                	lbu	a5,6(a4)
    72b4:	07c2                	slli	a5,a5,0x10
    72b6:	8fc9                	or	a5,a5,a0
    72b8:	3368                	lbu	a0,7(a4)
    72ba:	0562                	slli	a0,a0,0x18
    72bc:	8d5d                	or	a0,a0,a5
    72be:	bc4fc0ef          	jal	ra,3682 <ntohl>
    72c2:	40a98533          	sub	a0,s3,a0
    72c6:	fa0555e3          	bgez	a0,7270 <tcp_rexmit+0x1c>
    72ca:	00092903          	lw	s2,0(s2)
    72ce:	bf71                	j	726a <tcp_rexmit+0x16>

000072d0 <tcp_rexmit_fast>:
tcp_rexmit_fast():
    72d0:	08052783          	lw	a5,128(a0)
    72d4:	cfb1                	beqz	a5,7330 <tcp_rexmit_fast+0x60>
    72d6:	f1bf82ef          	jal	t0,1f0 <__riscv_save_0>
    72da:	02654783          	lbu	a5,38(a0)
    72de:	842a                	mv	s0,a0
    72e0:	8b91                	andi	a5,a5,4
    72e2:	e7a9                	bnez	a5,732c <tcp_rexmit_fast+0x5c>
    72e4:	f71ff0ef          	jal	ra,7254 <tcp_rexmit>
    72e8:	05a45683          	lhu	a3,90(s0)
    72ec:	06445783          	lhu	a5,100(s0)
    72f0:	0016d713          	srli	a4,a3,0x1
    72f4:	00d7f463          	bgeu	a5,a3,72fc <tcp_rexmit_fast+0x2c>
    72f8:	0017d713          	srli	a4,a5,0x1
    72fc:	04045783          	lhu	a5,64(s0)
    7300:	04e41e23          	sh	a4,92(s0)
    7304:	00179693          	slli	a3,a5,0x1
    7308:	00d75463          	bge	a4,a3,7310 <tcp_rexmit_fast+0x40>
    730c:	04d41e23          	sh	a3,92(s0)
    7310:	470d                	li	a4,3
    7312:	02e787b3          	mul	a5,a5,a4
    7316:	05c45703          	lhu	a4,92(s0)
    731a:	97ba                	add	a5,a5,a4
    731c:	04f41d23          	sh	a5,90(s0)
    7320:	02644783          	lbu	a5,38(s0)
    7324:	0047e793          	ori	a5,a5,4
    7328:	02f40323          	sb	a5,38(s0)
    732c:	ee9f806f          	j	214 <__riscv_restore_0>
    7330:	8082                	ret

00007332 <udp_input>:
udp_input():
    7332:	e8ff82ef          	jal	t0,1c0 <__riscv_save_12>
    7336:	4140                	lw	s0,4(a0)
    7338:	2506                	lhu	s1,8(a0)
    733a:	892a                	mv	s2,a0
    733c:	301c                	lbu	a5,1(s0)
    733e:	2008                	lbu	a0,0(s0)
    7340:	1141                	addi	sp,sp,-16
    7342:	07a2                	slli	a5,a5,0x8
    7344:	8d5d                	or	a0,a0,a5
    7346:	8a2e                	mv	s4,a1
    7348:	b08fc0ef          	jal	ra,3650 <ntohs>
    734c:	8121                	srli	a0,a0,0x8
    734e:	893d                	andi	a0,a0,15
    7350:	0509                	addi	a0,a0,2
    7352:	050a                	slli	a0,a0,0x2
    7354:	02a4c263          	blt	s1,a0,7378 <udp_input+0x46>
    7358:	301c                	lbu	a5,1(s0)
    735a:	2008                	lbu	a0,0(s0)
    735c:	07a2                	slli	a5,a5,0x8
    735e:	8d5d                	or	a0,a0,a5
    7360:	af0fc0ef          	jal	ra,3650 <ntohs>
    7364:	00655593          	srli	a1,a0,0x6
    7368:	03c5f593          	andi	a1,a1,60
    736c:	40b005b3          	neg	a1,a1
    7370:	854a                	mv	a0,s2
    7372:	d6cfd0ef          	jal	ra,48de <pbuf_header>
    7376:	c519                	beqz	a0,7384 <udp_input+0x52>
    7378:	854a                	mv	a0,s2
    737a:	dd2fd0ef          	jal	ra,494c <pbuf_free>
    737e:	0141                	addi	sp,sp,16
    7380:	e7df806f          	j	1fc <__riscv_restore_12>
    7384:	00492a83          	lw	s5,4(s2)
    7388:	01040c13          	addi	s8,s0,16
    738c:	85d2                	mv	a1,s4
    738e:	8562                	mv	a0,s8
    7390:	f74fc0ef          	jal	ra,3b04 <ip_addr_isbroadcast>
    7394:	001ac783          	lbu	a5,1(s5)
    7398:	8b2a                	mv	s6,a0
    739a:	000ac503          	lbu	a0,0(s5)
    739e:	07a2                	slli	a5,a5,0x8
    73a0:	8d5d                	or	a0,a0,a5
    73a2:	aaefc0ef          	jal	ra,3650 <ntohs>
    73a6:	003ac783          	lbu	a5,3(s5)
    73aa:	8baa                	mv	s7,a0
    73ac:	002ac503          	lbu	a0,2(s5)
    73b0:	07a2                	slli	a5,a5,0x8
    73b2:	8d5d                	or	a0,a0,a5
    73b4:	a9cfc0ef          	jal	ra,3650 <ntohs>
    73b8:	04400793          	li	a5,68
    73bc:	86aa                	mv	a3,a0
    73be:	06f51d63          	bne	a0,a5,7438 <udp_input+0x106>
    73c2:	04300793          	li	a5,67
    73c6:	12fb9963          	bne	s7,a5,74f8 <udp_input+0x1c6>
    73ca:	020a2783          	lw	a5,32(s4)
    73ce:	12078563          	beqz	a5,74f8 <udp_input+0x1c6>
    73d2:	43c4                	lw	s1,4(a5)
    73d4:	12048263          	beqz	s1,74f8 <udp_input+0x1c6>
    73d8:	40d4                	lw	a3,4(s1)
    73da:	ce89                	beqz	a3,73f4 <udp_input+0xc2>
    73dc:	3458                	lbu	a4,13(s0)
    73de:	245c                	lbu	a5,12(s0)
    73e0:	0722                	slli	a4,a4,0x8
    73e2:	8f5d                	or	a4,a4,a5
    73e4:	247c                	lbu	a5,14(s0)
    73e6:	07c2                	slli	a5,a5,0x10
    73e8:	8f5d                	or	a4,a4,a5
    73ea:	347c                	lbu	a5,15(s0)
    73ec:	07e2                	slli	a5,a5,0x18
    73ee:	8fd9                	or	a5,a5,a4
    73f0:	10f69463          	bne	a3,a5,74f8 <udp_input+0x1c6>
    73f4:	007ac783          	lbu	a5,7(s5)
    73f8:	006ac703          	lbu	a4,6(s5)
    73fc:	07a2                	slli	a5,a5,0x8
    73fe:	8fd9                	or	a5,a5,a4
    7400:	cb99                	beqz	a5,7416 <udp_input+0xe4>
    7402:	00895703          	lhu	a4,8(s2)
    7406:	46c5                	li	a3,17
    7408:	8662                	mv	a2,s8
    740a:	00c40593          	addi	a1,s0,12
    740e:	854a                	mv	a0,s2
    7410:	6f8000ef          	jal	ra,7b08 <inet_chksum_pseudo>
    7414:	f135                	bnez	a0,7378 <udp_input+0x46>
    7416:	55e1                	li	a1,-8
    7418:	854a                	mv	a0,s2
    741a:	cc4fd0ef          	jal	ra,48de <pbuf_header>
    741e:	fd29                	bnez	a0,7378 <udp_input+0x46>
    7420:	0e048c63          	beqz	s1,7518 <udp_input+0x1e6>
    7424:	4c9c                	lw	a5,24(s1)
    7426:	dba9                	beqz	a5,7378 <udp_input+0x46>
    7428:	4cc8                	lw	a0,28(s1)
    742a:	875e                	mv	a4,s7
    742c:	00c40693          	addi	a3,s0,12
    7430:	864a                	mv	a2,s2
    7432:	85a6                	mv	a1,s1
    7434:	9782                	jalr	a5
    7436:	b7a1                	j	737e <udp_input+0x4c>
    7438:	9281a483          	lw	s1,-1752(gp) # 20000348 <udp_pcbs>
    743c:	4d01                	li	s10,0
    743e:	4d81                	li	s11,0
    7440:	92818c93          	addi	s9,gp,-1752 # 20000348 <udp_pcbs>
    7444:	76c00613          	li	a2,1900
    7448:	e489                	bnez	s1,7452 <udp_input+0x120>
    744a:	0a0d0763          	beqz	s10,74f8 <udp_input+0x1c6>
    744e:	84ea                	mv	s1,s10
    7450:	b755                	j	73f4 <udp_input+0xc2>
    7452:	28be                	lhu	a5,18(s1)
    7454:	08d79c63          	bne	a5,a3,74ec <udp_input+0x1ba>
    7458:	4098                	lw	a4,0(s1)
    745a:	040b1563          	bnez	s6,74a4 <udp_input+0x172>
    745e:	e339                	bnez	a4,74a4 <udp_input+0x172>
    7460:	000d1663          	bnez	s10,746c <udp_input+0x13a>
    7464:	289c                	lbu	a5,16(s1)
    7466:	8b91                	andi	a5,a5,4
    7468:	e391                	bnez	a5,746c <udp_input+0x13a>
    746a:	8d26                	mv	s10,s1
    746c:	28de                	lhu	a5,20(s1)
    746e:	09779263          	bne	a5,s7,74f2 <udp_input+0x1c0>
    7472:	40cc                	lw	a1,4(s1)
    7474:	cd89                	beqz	a1,748e <udp_input+0x15c>
    7476:	3458                	lbu	a4,13(s0)
    7478:	245c                	lbu	a5,12(s0)
    747a:	0722                	slli	a4,a4,0x8
    747c:	8f5d                	or	a4,a4,a5
    747e:	247c                	lbu	a5,14(s0)
    7480:	07c2                	slli	a5,a5,0x10
    7482:	8f5d                	or	a4,a4,a5
    7484:	347c                	lbu	a5,15(s0)
    7486:	07e2                	slli	a5,a5,0x18
    7488:	8fd9                	or	a5,a5,a4
    748a:	06f59463          	bne	a1,a5,74f2 <udp_input+0x1c0>
    748e:	f60d83e3          	beqz	s11,73f4 <udp_input+0xc2>
    7492:	44dc                	lw	a5,12(s1)
    7494:	00fda623          	sw	a5,12(s11)
    7498:	000ca783          	lw	a5,0(s9)
    749c:	009ca023          	sw	s1,0(s9)
    74a0:	c4dc                	sw	a5,12(s1)
    74a2:	bf89                	j	73f4 <udp_input+0xc2>
    74a4:	381c                	lbu	a5,17(s0)
    74a6:	01044983          	lbu	s3,16(s0)
    74aa:	07a2                	slli	a5,a5,0x8
    74ac:	0137e7b3          	or	a5,a5,s3
    74b0:	01244983          	lbu	s3,18(s0)
    74b4:	09c2                	slli	s3,s3,0x10
    74b6:	00f9e7b3          	or	a5,s3,a5
    74ba:	01344983          	lbu	s3,19(s0)
    74be:	09e2                	slli	s3,s3,0x18
    74c0:	00f9e9b3          	or	s3,s3,a5
    74c4:	f8e98ee3          	beq	s3,a4,7460 <udp_input+0x12e>
    74c8:	f0000537          	lui	a0,0xf0000
    74cc:	c636                	sw	a3,12(sp)
    74ce:	9b4fc0ef          	jal	ra,3682 <ntohl>
    74d2:	00a9f9b3          	and	s3,s3,a0
    74d6:	e0000537          	lui	a0,0xe0000
    74da:	9a8fc0ef          	jal	ra,3682 <ntohl>
    74de:	46b2                	lw	a3,12(sp)
    74e0:	76c00613          	li	a2,1900
    74e4:	f6a98ee3          	beq	s3,a0,7460 <udp_input+0x12e>
    74e8:	f60b1ce3          	bnez	s6,7460 <udp_input+0x12e>
    74ec:	8da6                	mv	s11,s1
    74ee:	44c4                	lw	s1,12(s1)
    74f0:	bfa1                	j	7448 <udp_input+0x116>
    74f2:	fec69de3          	bne	a3,a2,74ec <udp_input+0x1ba>
    74f6:	bdfd                	j	73f4 <udp_input+0xc2>
    74f8:	3818                	lbu	a4,17(s0)
    74fa:	281c                	lbu	a5,16(s0)
    74fc:	0722                	slli	a4,a4,0x8
    74fe:	8f5d                	or	a4,a4,a5
    7500:	283c                	lbu	a5,18(s0)
    7502:	07c2                	slli	a5,a5,0x10
    7504:	8f5d                	or	a4,a4,a5
    7506:	383c                	lbu	a5,19(s0)
    7508:	07e2                	slli	a5,a5,0x18
    750a:	8fd9                	or	a5,a5,a4
    750c:	004a2703          	lw	a4,4(s4)
    7510:	e6f714e3          	bne	a4,a5,7378 <udp_input+0x46>
    7514:	4481                	li	s1,0
    7516:	bdf9                	j	73f4 <udp_input+0xc2>
    7518:	e60b10e3          	bnez	s6,7378 <udp_input+0x46>
    751c:	381c                	lbu	a5,17(s0)
    751e:	2804                	lbu	s1,16(s0)
    7520:	f0000537          	lui	a0,0xf0000
    7524:	07a2                	slli	a5,a5,0x8
    7526:	8fc5                	or	a5,a5,s1
    7528:	2824                	lbu	s1,18(s0)
    752a:	04c2                	slli	s1,s1,0x10
    752c:	8fc5                	or	a5,a5,s1
    752e:	3824                	lbu	s1,19(s0)
    7530:	04e2                	slli	s1,s1,0x18
    7532:	8cdd                	or	s1,s1,a5
    7534:	94efc0ef          	jal	ra,3682 <ntohl>
    7538:	8ce9                	and	s1,s1,a0
    753a:	e0000537          	lui	a0,0xe0000
    753e:	944fc0ef          	jal	ra,3682 <ntohl>
    7542:	e2a48be3          	beq	s1,a0,7378 <udp_input+0x46>
    7546:	301c                	lbu	a5,1(s0)
    7548:	2008                	lbu	a0,0(s0)
    754a:	07a2                	slli	a5,a5,0x8
    754c:	8d5d                	or	a0,a0,a5
    754e:	902fc0ef          	jal	ra,3650 <ntohs>
    7552:	00855593          	srli	a1,a0,0x8
    7556:	89bd                	andi	a1,a1,15
    7558:	0589                	addi	a1,a1,2
    755a:	058a                	slli	a1,a1,0x2
    755c:	854a                	mv	a0,s2
    755e:	b80fd0ef          	jal	ra,48de <pbuf_header>
    7562:	458d                	li	a1,3
    7564:	854a                	mv	a0,s2
    7566:	2b01                	jal	7a76 <icmp_dest_unreach>
    7568:	bd01                	j	7378 <udp_input+0x46>

0000756a <udp_bind>:
udp_bind():
    756a:	9281a883          	lw	a7,-1752(gp) # 20000348 <udp_pcbs>
    756e:	86aa                	mv	a3,a0
    7570:	4301                	li	t1,0
    7572:	87c6                	mv	a5,a7
    7574:	92818813          	addi	a6,gp,-1752 # 20000348 <udp_pcbs>
    7578:	e79d                	bnez	a5,75a6 <udp_bind+0x3c>
    757a:	c999                	beqz	a1,7590 <udp_bind+0x26>
    757c:	3198                	lbu	a4,1(a1)
    757e:	219c                	lbu	a5,0(a1)
    7580:	0722                	slli	a4,a4,0x8
    7582:	8f5d                	or	a4,a4,a5
    7584:	21bc                	lbu	a5,2(a1)
    7586:	07c2                	slli	a5,a5,0x10
    7588:	8f5d                	or	a4,a4,a5
    758a:	31bc                	lbu	a5,3(a1)
    758c:	07e2                	slli	a5,a5,0x18
    758e:	8fd9                	or	a5,a5,a4
    7590:	c29c                	sw	a5,0(a3)
    7592:	c625                	beqz	a2,75fa <udp_bind+0x90>
    7594:	aab2                	sh	a2,18(a3)
    7596:	4501                	li	a0,0
    7598:	00031663          	bnez	t1,75a4 <udp_bind+0x3a>
    759c:	0116a623          	sw	a7,12(a3)
    75a0:	00d82023          	sw	a3,0(a6)
    75a4:	8082                	ret
    75a6:	02d78b63          	beq	a5,a3,75dc <udp_bind+0x72>
    75aa:	2bba                	lhu	a4,18(a5)
    75ac:	02c71663          	bne	a4,a2,75d8 <udp_bind+0x6e>
    75b0:	0007ae03          	lw	t3,0(a5) # 5000 <tcp_pcb_remove+0x4e>
    75b4:	000e1463          	bnez	t3,75bc <udp_bind+0x52>
    75b8:	5555                	li	a0,-11
    75ba:	8082                	ret
    75bc:	ddf5                	beqz	a1,75b8 <udp_bind+0x4e>
    75be:	3188                	lbu	a0,1(a1)
    75c0:	2198                	lbu	a4,0(a1)
    75c2:	0522                	slli	a0,a0,0x8
    75c4:	8d59                	or	a0,a0,a4
    75c6:	21b8                	lbu	a4,2(a1)
    75c8:	0742                	slli	a4,a4,0x10
    75ca:	8d59                	or	a0,a0,a4
    75cc:	31b8                	lbu	a4,3(a1)
    75ce:	0762                	slli	a4,a4,0x18
    75d0:	8f49                	or	a4,a4,a0
    75d2:	d37d                	beqz	a4,75b8 <udp_bind+0x4e>
    75d4:	feee02e3          	beq	t3,a4,75b8 <udp_bind+0x4e>
    75d8:	47dc                	lw	a5,12(a5)
    75da:	bf79                	j	7578 <udp_bind+0xe>
    75dc:	4305                	li	t1,1
    75de:	bfed                	j	75d8 <udp_bind+0x6e>
    75e0:	2bae                	lhu	a1,18(a5)
    75e2:	00c59a63          	bne	a1,a2,75f6 <udp_bind+0x8c>
    75e6:	0605                	addi	a2,a2,1
    75e8:	0642                	slli	a2,a2,0x10
    75ea:	8241                	srli	a2,a2,0x10
    75ec:	87c6                	mv	a5,a7
    75ee:	d3dd                	beqz	a5,7594 <udp_bind+0x2a>
    75f0:	fee618e3          	bne	a2,a4,75e0 <udp_bind+0x76>
    75f4:	b7d1                	j	75b8 <udp_bind+0x4e>
    75f6:	47dc                	lw	a5,12(a5)
    75f8:	bfdd                	j	75ee <udp_bind+0x84>
    75fa:	6721                	lui	a4,0x8
    75fc:	87c6                	mv	a5,a7
    75fe:	6605                	lui	a2,0x1
    7600:	177d                	addi	a4,a4,-1
    7602:	b7f5                	j	75ee <udp_bind+0x84>

00007604 <udp_sendto_if>:
udp_sendto_if():
    7604:	bd3f82ef          	jal	t0,1d6 <__riscv_save_4>
    7608:	293e                	lhu	a5,18(a0)
    760a:	892a                	mv	s2,a0
    760c:	89ae                	mv	s3,a1
    760e:	8ab2                	mv	s5,a2
    7610:	8b36                	mv	s6,a3
    7612:	8a3a                	mv	s4,a4
    7614:	c7ad                	beqz	a5,767e <udp_sendto_if+0x7a>
    7616:	45a1                	li	a1,8
    7618:	854e                	mv	a0,s3
    761a:	ac4fd0ef          	jal	ra,48de <pbuf_header>
    761e:	84ce                	mv	s1,s3
    7620:	cd01                	beqz	a0,7638 <udp_sendto_if+0x34>
    7622:	4601                	li	a2,0
    7624:	45a1                	li	a1,8
    7626:	4505                	li	a0,1
    7628:	b72fd0ef          	jal	ra,499a <pbuf_alloc>
    762c:	84aa                	mv	s1,a0
    762e:	547d                	li	s0,-1
    7630:	cd29                	beqz	a0,768a <udp_sendto_if+0x86>
    7632:	85ce                	mv	a1,s3
    7634:	d36fd0ef          	jal	ra,4b6a <pbuf_chain>
    7638:	01295503          	lhu	a0,18(s2)
    763c:	40c0                	lw	s0,4(s1)
    763e:	804fc0ef          	jal	ra,3642 <htons>
    7642:	a008                	sb	a0,0(s0)
    7644:	8121                	srli	a0,a0,0x8
    7646:	b008                	sb	a0,1(s0)
    7648:	855a                	mv	a0,s6
    764a:	ff9fb0ef          	jal	ra,3642 <htons>
    764e:	00092783          	lw	a5,0(s2)
    7652:	a028                	sb	a0,2(s0)
    7654:	8121                	srli	a0,a0,0x8
    7656:	b028                	sb	a0,3(s0)
    7658:	00040323          	sb	zero,6(s0)
    765c:	000403a3          	sb	zero,7(s0)
    7660:	004a0b13          	addi	s6,s4,4
    7664:	c795                	beqz	a5,7690 <udp_sendto_if+0x8c>
    7666:	004a2703          	lw	a4,4(s4)
    766a:	8b4a                	mv	s6,s2
    766c:	02e78263          	beq	a5,a4,7690 <udp_sendto_if+0x8c>
    7670:	545d                	li	s0,-9
    7672:	01348c63          	beq	s1,s3,768a <udp_sendto_if+0x86>
    7676:	8526                	mv	a0,s1
    7678:	ad4fd0ef          	jal	ra,494c <pbuf_free>
    767c:	a039                	j	768a <udp_sendto_if+0x86>
    767e:	4601                	li	a2,0
    7680:	85aa                	mv	a1,a0
    7682:	ee9ff0ef          	jal	ra,756a <udp_bind>
    7686:	842a                	mv	s0,a0
    7688:	d559                	beqz	a0,7616 <udp_sendto_if+0x12>
    768a:	8522                	mv	a0,s0
    768c:	b7ff806f          	j	20a <__riscv_restore_4>
    7690:	248a                	lhu	a0,8(s1)
    7692:	fb1fb0ef          	jal	ra,3642 <htons>
    7696:	a048                	sb	a0,4(s0)
    7698:	8121                	srli	a0,a0,0x8
    769a:	b048                	sb	a0,5(s0)
    769c:	01094783          	lbu	a5,16(s2)
    76a0:	8b85                	andi	a5,a5,1
    76a2:	eb99                	bnez	a5,76b8 <udp_sendto_if+0xb4>
    76a4:	249a                	lhu	a4,8(s1)
    76a6:	46c5                	li	a3,17
    76a8:	8656                	mv	a2,s5
    76aa:	85da                	mv	a1,s6
    76ac:	8526                	mv	a0,s1
    76ae:	29a9                	jal	7b08 <inet_chksum_pseudo>
    76b0:	c10d                	beqz	a0,76d2 <udp_sendto_if+0xce>
    76b2:	a068                	sb	a0,6(s0)
    76b4:	8121                	srli	a0,a0,0x8
    76b6:	b068                	sb	a0,7(s0)
    76b8:	00a94703          	lbu	a4,10(s2)
    76bc:	00b94683          	lbu	a3,11(s2)
    76c0:	8852                	mv	a6,s4
    76c2:	47c5                	li	a5,17
    76c4:	8656                	mv	a2,s5
    76c6:	85da                	mv	a1,s6
    76c8:	8526                	mv	a0,s1
    76ca:	aaafc0ef          	jal	ra,3974 <ip_output_if>
    76ce:	842a                	mv	s0,a0
    76d0:	b74d                	j	7672 <udp_sendto_if+0x6e>
    76d2:	57fd                	li	a5,-1
    76d4:	a07c                	sb	a5,6(s0)
    76d6:	b07c                	sb	a5,7(s0)
    76d8:	b7c5                	j	76b8 <udp_sendto_if+0xb4>

000076da <udp_sendto>:
udp_sendto():
    76da:	b17f82ef          	jal	t0,1f0 <__riscv_save_0>
    76de:	1141                	addi	sp,sp,-16
    76e0:	842a                	mv	s0,a0
    76e2:	8532                	mv	a0,a2
    76e4:	c62e                	sw	a1,12(sp)
    76e6:	c436                	sw	a3,8(sp)
    76e8:	c232                	sw	a2,4(sp)
    76ea:	fa5fb0ef          	jal	ra,368e <ip_route>
    76ee:	c919                	beqz	a0,7704 <udp_sendto+0x2a>
    76f0:	46a2                	lw	a3,8(sp)
    76f2:	4612                	lw	a2,4(sp)
    76f4:	45b2                	lw	a1,12(sp)
    76f6:	872a                	mv	a4,a0
    76f8:	8522                	mv	a0,s0
    76fa:	f0bff0ef          	jal	ra,7604 <udp_sendto_if>
    76fe:	0141                	addi	sp,sp,16
    7700:	b15f806f          	j	214 <__riscv_restore_0>
    7704:	5571                	li	a0,-4
    7706:	bfe5                	j	76fe <udp_sendto+0x24>

00007708 <udp_connect>:
udp_connect():
    7708:	ae9f82ef          	jal	t0,1f0 <__riscv_save_0>
    770c:	293e                	lhu	a5,18(a0)
    770e:	842a                	mv	s0,a0
    7710:	84ae                	mv	s1,a1
    7712:	8932                	mv	s2,a2
    7714:	cbb1                	beqz	a5,7768 <udp_connect+0x60>
    7716:	4781                	li	a5,0
    7718:	c899                	beqz	s1,772e <udp_connect+0x26>
    771a:	3098                	lbu	a4,1(s1)
    771c:	209c                	lbu	a5,0(s1)
    771e:	0722                	slli	a4,a4,0x8
    7720:	8f5d                	or	a4,a4,a5
    7722:	20bc                	lbu	a5,2(s1)
    7724:	07c2                	slli	a5,a5,0x10
    7726:	8f5d                	or	a4,a4,a5
    7728:	30bc                	lbu	a5,3(s1)
    772a:	07e2                	slli	a5,a5,0x18
    772c:	8fd9                	or	a5,a5,a4
    772e:	2818                	lbu	a4,16(s0)
    7730:	c05c                	sw	a5,4(s0)
    7732:	01241a23          	sh	s2,20(s0)
    7736:	00476713          	ori	a4,a4,4
    773a:	a818                	sb	a4,16(s0)
    773c:	4018                	lw	a4,0(s0)
    773e:	ef05                	bnez	a4,7776 <udp_connect+0x6e>
    7740:	cf85                	beqz	a5,7778 <udp_connect+0x70>
    7742:	00440513          	addi	a0,s0,4
    7746:	f49fb0ef          	jal	ra,368e <ip_route>
    774a:	87aa                	mv	a5,a0
    774c:	5571                	li	a0,-4
    774e:	c395                	beqz	a5,7772 <udp_connect+0x6a>
    7750:	43dc                	lw	a5,4(a5)
    7752:	c01c                	sw	a5,0(s0)
    7754:	9281a683          	lw	a3,-1752(gp) # 20000348 <udp_pcbs>
    7758:	92818793          	addi	a5,gp,-1752 # 20000348 <udp_pcbs>
    775c:	8736                	mv	a4,a3
    775e:	e305                	bnez	a4,777e <udp_connect+0x76>
    7760:	c454                	sw	a3,12(s0)
    7762:	c380                	sw	s0,0(a5)
    7764:	4501                	li	a0,0
    7766:	a031                	j	7772 <udp_connect+0x6a>
    7768:	4601                	li	a2,0
    776a:	85aa                	mv	a1,a0
    776c:	dffff0ef          	jal	ra,756a <udp_bind>
    7770:	d15d                	beqz	a0,7716 <udp_connect+0xe>
    7772:	aa3f806f          	j	214 <__riscv_restore_0>
    7776:	fff9                	bnez	a5,7754 <udp_connect+0x4c>
    7778:	00042023          	sw	zero,0(s0)
    777c:	bfe1                	j	7754 <udp_connect+0x4c>
    777e:	fe8703e3          	beq	a4,s0,7764 <udp_connect+0x5c>
    7782:	4758                	lw	a4,12(a4)
    7784:	bfe9                	j	775e <udp_connect+0x56>

00007786 <udp_recv>:
udp_recv():
    7786:	cd0c                	sw	a1,24(a0)
    7788:	cd50                	sw	a2,28(a0)
    778a:	8082                	ret

0000778c <udp_new>:
udp_new():
    778c:	a65f82ef          	jal	t0,1f0 <__riscv_save_0>
    7790:	4505                	li	a0,1
    7792:	fc9fc0ef          	jal	ra,475a <memp_malloc>
    7796:	842a                	mv	s0,a0
    7798:	c909                	beqz	a0,77aa <udp_new+0x1e>
    779a:	02000613          	li	a2,32
    779e:	4581                	li	a1,0
    77a0:	a81f80ef          	jal	ra,220 <memset>
    77a4:	f8000793          	li	a5,-128
    77a8:	b43c                	sb	a5,11(s0)
    77aa:	8522                	mv	a0,s0
    77ac:	a69f806f          	j	214 <__riscv_restore_0>

000077b0 <icmp_send_response.isra.0>:
icmp_send_response.isra.0():
    77b0:	a27f82ef          	jal	t0,1d6 <__riscv_save_4>
    77b4:	842a                	mv	s0,a0
    77b6:	8a2e                	mv	s4,a1
    77b8:	89b2                	mv	s3,a2
    77ba:	02400593          	li	a1,36
    77be:	4601                	li	a2,0
    77c0:	4505                	li	a0,1
    77c2:	9d8fd0ef          	jal	ra,499a <pbuf_alloc>
    77c6:	cd31                	beqz	a0,7822 <icmp_send_response.isra.0+0x72>
    77c8:	00042903          	lw	s2,0(s0)
    77cc:	4140                	lw	s0,4(a0)
    77ce:	84aa                	mv	s1,a0
    77d0:	4671                	li	a2,28
    77d2:	85ca                	mv	a1,s2
    77d4:	01440023          	sb	s4,0(s0)
    77d8:	013400a3          	sb	s3,1(s0)
    77dc:	00040223          	sb	zero,4(s0)
    77e0:	000402a3          	sb	zero,5(s0)
    77e4:	00040323          	sb	zero,6(s0)
    77e8:	000403a3          	sb	zero,7(s0)
    77ec:	00840513          	addi	a0,s0,8
    77f0:	2d1000ef          	jal	ra,82c0 <memcpy>
    77f4:	24ae                	lhu	a1,10(s1)
    77f6:	00040123          	sb	zero,2(s0)
    77fa:	000401a3          	sb	zero,3(s0)
    77fe:	8522                	mv	a0,s0
    7800:	2909                	jal	7c12 <inet_chksum>
    7802:	a028                	sb	a0,2(s0)
    7804:	8121                	srli	a0,a0,0x8
    7806:	b028                	sb	a0,3(s0)
    7808:	4785                	li	a5,1
    780a:	4701                	li	a4,0
    780c:	08000693          	li	a3,128
    7810:	00c90613          	addi	a2,s2,12
    7814:	4581                	li	a1,0
    7816:	8526                	mv	a0,s1
    7818:	ab6fc0ef          	jal	ra,3ace <ip_output>
    781c:	8526                	mv	a0,s1
    781e:	92efd0ef          	jal	ra,494c <pbuf_free>
    7822:	9e9f806f          	j	20a <__riscv_restore_4>

00007826 <icmp_input>:
icmp_input():
    7826:	9a3f82ef          	jal	t0,1c8 <__riscv_save_10>
    782a:	4140                	lw	s0,4(a0)
    782c:	84aa                	mv	s1,a0
    782e:	1141                	addi	sp,sp,-16
    7830:	301c                	lbu	a5,1(s0)
    7832:	2008                	lbu	a0,0(s0)
    7834:	89ae                	mv	s3,a1
    7836:	07a2                	slli	a5,a5,0x8
    7838:	8d5d                	or	a0,a0,a5
    783a:	e17fb0ef          	jal	ra,3650 <ntohs>
    783e:	00655913          	srli	s2,a0,0x6
    7842:	03c97913          	andi	s2,s2,60
    7846:	41200ab3          	neg	s5,s2
    784a:	0ac2                	slli	s5,s5,0x10
    784c:	410ada93          	srai	s5,s5,0x10
    7850:	85d6                	mv	a1,s5
    7852:	8526                	mv	a0,s1
    7854:	88afd0ef          	jal	ra,48de <pbuf_header>
    7858:	e139                	bnez	a0,789e <icmp_input+0x78>
    785a:	249e                	lhu	a5,8(s1)
    785c:	468d                	li	a3,3
    785e:	04f6f063          	bgeu	a3,a5,789e <icmp_input+0x78>
    7862:	40dc                	lw	a5,4(s1)
    7864:	2398                	lbu	a4,0(a5)
    7866:	04d71263          	bne	a4,a3,78aa <icmp_input+0x84>
    786a:	2798                	lbu	a4,8(a5)
    786c:	00878693          	addi	a3,a5,8
    7870:	3f88                	lbu	a0,25(a5)
    7872:	8b3d                	andi	a4,a4,15
    7874:	070a                	slli	a4,a4,0x2
    7876:	9736                	add	a4,a4,a3
    7878:	232c                	lbu	a1,2(a4)
    787a:	00374803          	lbu	a6,3(a4) # 8003 <print+0x14f>
    787e:	2f98                	lbu	a4,24(a5)
    7880:	0522                	slli	a0,a0,0x8
    7882:	3394                	lbu	a3,1(a5)
    7884:	8d59                	or	a0,a0,a4
    7886:	2fb8                	lbu	a4,26(a5)
    7888:	3b90                	lbu	a2,17(a5)
    788a:	05a2                	slli	a1,a1,0x8
    788c:	0742                	slli	a4,a4,0x10
    788e:	8f49                	or	a4,a4,a0
    7890:	3fa8                	lbu	a0,27(a5)
    7892:	0105e5b3          	or	a1,a1,a6
    7896:	0562                	slli	a0,a0,0x18
    7898:	8d59                	or	a0,a0,a4
    789a:	c52fb0ef          	jal	ra,2cec <LwipUnreachPort>
    789e:	8526                	mv	a0,s1
    78a0:	8acfd0ef          	jal	ra,494c <pbuf_free>
    78a4:	0141                	addi	sp,sp,16
    78a6:	95bf806f          	j	200 <__riscv_restore_10>
    78aa:	47a1                	li	a5,8
    78ac:	fef719e3          	bne	a4,a5,789e <icmp_input+0x78>
    78b0:	381c                	lbu	a5,17(s0)
    78b2:	01044a03          	lbu	s4,16(s0)
    78b6:	f0000537          	lui	a0,0xf0000
    78ba:	07a2                	slli	a5,a5,0x8
    78bc:	0147e7b3          	or	a5,a5,s4
    78c0:	01244a03          	lbu	s4,18(s0)
    78c4:	4b01                	li	s6,0
    78c6:	0a42                	slli	s4,s4,0x10
    78c8:	00fa67b3          	or	a5,s4,a5
    78cc:	01344a03          	lbu	s4,19(s0)
    78d0:	0a62                	slli	s4,s4,0x18
    78d2:	00fa6a33          	or	s4,s4,a5
    78d6:	dadfb0ef          	jal	ra,3682 <ntohl>
    78da:	8c2a                	mv	s8,a0
    78dc:	e0000537          	lui	a0,0xe0000
    78e0:	da3fb0ef          	jal	ra,3682 <ntohl>
    78e4:	8baa                	mv	s7,a0
    78e6:	85ce                	mv	a1,s3
    78e8:	01040513          	addi	a0,s0,16
    78ec:	a18fc0ef          	jal	ra,3b04 <ip_addr_isbroadcast>
    78f0:	e519                	bnez	a0,78fe <icmp_input+0xd8>
    78f2:	018a7533          	and	a0,s4,s8
    78f6:	41750533          	sub	a0,a0,s7
    78fa:	00a03b33          	snez	s6,a0
    78fe:	be0fb0ef          	jal	ra,2cde <QueryPingEnable>
    7902:	dd51                	beqz	a0,789e <icmp_input+0x78>
    7904:	f80b0de3          	beqz	s6,789e <icmp_input+0x78>
    7908:	249a                	lhu	a4,8(s1)
    790a:	479d                	li	a5,7
    790c:	f8e7f9e3          	bgeu	a5,a4,789e <icmp_input+0x78>
    7910:	8526                	mv	a0,s1
    7912:	2e11                	jal	7c26 <inet_chksum_pbuf>
    7914:	f549                	bnez	a0,789e <icmp_input+0x78>
    7916:	0942                	slli	s2,s2,0x10
    7918:	02200593          	li	a1,34
    791c:	8526                	mv	a0,s1
    791e:	41095913          	srai	s2,s2,0x10
    7922:	fbdfc0ef          	jal	ra,48de <pbuf_header>
    7926:	12050463          	beqz	a0,7a4e <icmp_input+0x228>
    792a:	85ca                	mv	a1,s2
    792c:	8526                	mv	a0,s1
    792e:	fb1fc0ef          	jal	ra,48de <pbuf_header>
    7932:	f535                	bnez	a0,789e <icmp_input+0x78>
    7934:	248e                	lhu	a1,8(s1)
    7936:	4601                	li	a2,0
    7938:	4509                	li	a0,2
    793a:	860fd0ef          	jal	ra,499a <pbuf_alloc>
    793e:	8a2a                	mv	s4,a0
    7940:	dd39                	beqz	a0,789e <icmp_input+0x78>
    7942:	85a6                	mv	a1,s1
    7944:	a3afd0ef          	jal	ra,4b7e <pbuf_copy>
    7948:	f939                	bnez	a0,789e <icmp_input+0x78>
    794a:	85d6                	mv	a1,s5
    794c:	8552                	mv	a0,s4
    794e:	004a2403          	lw	s0,4(s4)
    7952:	f8dfc0ef          	jal	ra,48de <pbuf_header>
    7956:	f521                	bnez	a0,789e <icmp_input+0x78>
    7958:	8526                	mv	a0,s1
    795a:	ff3fc0ef          	jal	ra,494c <pbuf_free>
    795e:	84d2                	mv	s1,s4
    7960:	3458                	lbu	a4,13(s0)
    7962:	245c                	lbu	a5,12(s0)
    7964:	3814                	lbu	a3,17(s0)
    7966:	0722                	slli	a4,a4,0x8
    7968:	8f5d                	or	a4,a4,a5
    796a:	247c                	lbu	a5,14(s0)
    796c:	06a2                	slli	a3,a3,0x8
    796e:	0044aa03          	lw	s4,4(s1)
    7972:	07c2                	slli	a5,a5,0x10
    7974:	8f5d                	or	a4,a4,a5
    7976:	347c                	lbu	a5,15(s0)
    7978:	653d                	lui	a0,0xf
    797a:	7ff50513          	addi	a0,a0,2047 # f7ff <_data_lma+0x599b>
    797e:	07e2                	slli	a5,a5,0x18
    7980:	8fd9                	or	a5,a5,a4
    7982:	2818                	lbu	a4,16(s0)
    7984:	a81c                	sb	a5,16(s0)
    7986:	8ed9                	or	a3,a3,a4
    7988:	2838                	lbu	a4,18(s0)
    798a:	0742                	slli	a4,a4,0x10
    798c:	8ed9                	or	a3,a3,a4
    798e:	3838                	lbu	a4,19(s0)
    7990:	0762                	slli	a4,a4,0x18
    7992:	8f55                	or	a4,a4,a3
    7994:	00875693          	srli	a3,a4,0x8
    7998:	a458                	sb	a4,12(s0)
    799a:	b454                	sb	a3,13(s0)
    799c:	01075693          	srli	a3,a4,0x10
    79a0:	8361                	srli	a4,a4,0x18
    79a2:	b478                	sb	a4,15(s0)
    79a4:	0087d713          	srli	a4,a5,0x8
    79a8:	b818                	sb	a4,17(s0)
    79aa:	0107d713          	srli	a4,a5,0x10
    79ae:	83e1                	srli	a5,a5,0x18
    79b0:	a474                	sb	a3,14(s0)
    79b2:	a838                	sb	a4,18(s0)
    79b4:	b83c                	sb	a5,19(s0)
    79b6:	003a4a83          	lbu	s5,3(s4)
    79ba:	002a4783          	lbu	a5,2(s4)
    79be:	000a0023          	sb	zero,0(s4)
    79c2:	0aa2                	slli	s5,s5,0x8
    79c4:	00faeab3          	or	s5,s5,a5
    79c8:	c7bfb0ef          	jal	ra,3642 <htons>
    79cc:	08aae963          	bltu	s5,a0,7a5e <icmp_input+0x238>
    79d0:	6505                	lui	a0,0x1
    79d2:	80050513          	addi	a0,a0,-2048 # 800 <__stack_size>
    79d6:	c6dfb0ef          	jal	ra,3642 <htons>
    79da:	003a4783          	lbu	a5,3(s4)
    79de:	002a4703          	lbu	a4,2(s4)
    79e2:	07a2                	slli	a5,a5,0x8
    79e4:	8fd9                	or	a5,a5,a4
    79e6:	0785                	addi	a5,a5,1
    79e8:	953e                	add	a0,a0,a5
    79ea:	0542                	slli	a0,a0,0x10
    79ec:	8141                	srli	a0,a0,0x10
    79ee:	00aa0123          	sb	a0,2(s4)
    79f2:	8121                	srli	a0,a0,0x8
    79f4:	00aa01a3          	sb	a0,3(s4)
    79f8:	341c                	lbu	a5,9(s0)
    79fa:	2408                	lbu	a0,8(s0)
    79fc:	07a2                	slli	a5,a5,0x8
    79fe:	8d5d                	or	a0,a0,a5
    7a00:	c51fb0ef          	jal	ra,3650 <ntohs>
    7a04:	67a1                	lui	a5,0x8
    7a06:	0ff57513          	andi	a0,a0,255
    7a0a:	8d5d                	or	a0,a0,a5
    7a0c:	c37fb0ef          	jal	ra,3642 <htons>
    7a10:	a408                	sb	a0,8(s0)
    7a12:	8121                	srli	a0,a0,0x8
    7a14:	b408                	sb	a0,9(s0)
    7a16:	45d1                	li	a1,20
    7a18:	00040523          	sb	zero,10(s0)
    7a1c:	000405a3          	sb	zero,11(s0)
    7a20:	8522                	mv	a0,s0
    7a22:	2ac5                	jal	7c12 <inet_chksum>
    7a24:	a428                	sb	a0,10(s0)
    7a26:	8121                	srli	a0,a0,0x8
    7a28:	b428                	sb	a0,11(s0)
    7a2a:	85ca                	mv	a1,s2
    7a2c:	8526                	mv	a0,s1
    7a2e:	eb1fc0ef          	jal	ra,48de <pbuf_header>
    7a32:	e60516e3          	bnez	a0,789e <icmp_input+0x78>
    7a36:	884e                	mv	a6,s3
    7a38:	4785                	li	a5,1
    7a3a:	4701                	li	a4,0
    7a3c:	08000693          	li	a3,128
    7a40:	4601                	li	a2,0
    7a42:	00c40593          	addi	a1,s0,12
    7a46:	8526                	mv	a0,s1
    7a48:	f2dfb0ef          	jal	ra,3974 <ip_output_if>
    7a4c:	bd89                	j	789e <icmp_input+0x78>
    7a4e:	fde00593          	li	a1,-34
    7a52:	8526                	mv	a0,s1
    7a54:	e8bfc0ef          	jal	ra,48de <pbuf_header>
    7a58:	f00504e3          	beqz	a0,7960 <icmp_input+0x13a>
    7a5c:	b589                	j	789e <icmp_input+0x78>
    7a5e:	6505                	lui	a0,0x1
    7a60:	80050513          	addi	a0,a0,-2048 # 800 <__stack_size>
    7a64:	bdffb0ef          	jal	ra,3642 <htons>
    7a68:	003a4783          	lbu	a5,3(s4)
    7a6c:	002a4703          	lbu	a4,2(s4)
    7a70:	07a2                	slli	a5,a5,0x8
    7a72:	8fd9                	or	a5,a5,a4
    7a74:	bf95                	j	79e8 <icmp_input+0x1c2>

00007a76 <icmp_dest_unreach>:
icmp_dest_unreach():
    7a76:	f7af82ef          	jal	t0,1f0 <__riscv_save_0>
    7a7a:	0ff5f613          	andi	a2,a1,255
    7a7e:	0511                	addi	a0,a0,4
    7a80:	458d                	li	a1,3
    7a82:	d2fff0ef          	jal	ra,77b0 <icmp_send_response.isra.0>
    7a86:	f8ef806f          	j	214 <__riscv_restore_0>

00007a8a <lwip_standard_chksum>:
lwip_standard_chksum():
    7a8a:	f66f82ef          	jal	t0,1f0 <__riscv_save_0>
    7a8e:	00b50833          	add	a6,a0,a1
    7a92:	0842                	slli	a6,a6,0x10
    7a94:	86aa                	mv	a3,a0
    7a96:	4701                	li	a4,0
    7a98:	01085813          	srli	a6,a6,0x10
    7a9c:	4885                	li	a7,1
    7a9e:	40d807b3          	sub	a5,a6,a3
    7aa2:	07c2                	slli	a5,a5,0x10
    7aa4:	83c1                	srli	a5,a5,0x10
    7aa6:	04f8e463          	bltu	a7,a5,7aee <lwip_standard_chksum+0x64>
    7aaa:	0015d793          	srli	a5,a1,0x1
    7aae:	00179693          	slli	a3,a5,0x1
    7ab2:	9536                	add	a0,a0,a3
    7ab4:	56f9                	li	a3,-2
    7ab6:	02d787b3          	mul	a5,a5,a3
    7aba:	95be                	add	a1,a1,a5
    7abc:	05c2                	slli	a1,a1,0x10
    7abe:	81c1                	srli	a1,a1,0x10
    7ac0:	c581                	beqz	a1,7ac8 <lwip_standard_chksum+0x3e>
    7ac2:	211c                	lbu	a5,0(a0)
    7ac4:	07a2                	slli	a5,a5,0x8
    7ac6:	973e                	add	a4,a4,a5
    7ac8:	6541                	lui	a0,0x10
    7aca:	fff50693          	addi	a3,a0,-1 # ffff <_data_lma+0x619b>
    7ace:	01075793          	srli	a5,a4,0x10
    7ad2:	8f75                	and	a4,a4,a3
    7ad4:	00e78533          	add	a0,a5,a4
    7ad8:	77c1                	lui	a5,0xffff0
    7ada:	8fe9                	and	a5,a5,a0
    7adc:	c399                	beqz	a5,7ae2 <lwip_standard_chksum+0x58>
    7ade:	8d75                	and	a0,a0,a3
    7ae0:	0505                	addi	a0,a0,1
    7ae2:	0542                	slli	a0,a0,0x10
    7ae4:	8141                	srli	a0,a0,0x10
    7ae6:	b5dfb0ef          	jal	ra,3642 <htons>
    7aea:	f2af806f          	j	214 <__riscv_restore_0>
    7aee:	329c                	lbu	a5,1(a3)
    7af0:	2290                	lbu	a2,0(a3)
    7af2:	0689                	addi	a3,a3,2
    7af4:	07a2                	slli	a5,a5,0x8
    7af6:	8fd1                	or	a5,a5,a2
    7af8:	00879613          	slli	a2,a5,0x8
    7afc:	83a1                	srli	a5,a5,0x8
    7afe:	8fd1                	or	a5,a5,a2
    7b00:	07c2                	slli	a5,a5,0x10
    7b02:	83c1                	srli	a5,a5,0x10
    7b04:	973e                	add	a4,a4,a5
    7b06:	bf61                	j	7a9e <lwip_standard_chksum+0x14>

00007b08 <inet_chksum_pseudo>:
inet_chksum_pseudo():
    7b08:	ec0f82ef          	jal	t0,1c8 <__riscv_save_10>
    7b0c:	200067b7          	lui	a5,0x20006
    7b10:	7247a783          	lw	a5,1828(a5) # 20006724 <WCHCfg+0x14>
    7b14:	84ba                	mv	s1,a4
    7b16:	1141                	addi	sp,sp,-16
    7b18:	00579713          	slli	a4,a5,0x5
    7b1c:	0e074963          	bltz	a4,7c0e <inet_chksum_pseudo+0x106>
    7b20:	6b41                	lui	s6,0x10
    7b22:	892a                	mv	s2,a0
    7b24:	8aae                	mv	s5,a1
    7b26:	8a32                	mv	s4,a2
    7b28:	4981                	li	s3,0
    7b2a:	4401                	li	s0,0
    7b2c:	1b7d                	addi	s6,s6,-1
    7b2e:	4b85                	li	s7,1
    7b30:	08091e63          	bnez	s2,7bcc <inet_chksum_pseudo+0xc4>
    7b34:	00098b63          	beqz	s3,7b4a <inet_chksum_pseudo+0x42>
    7b38:	6741                	lui	a4,0x10
    7b3a:	00841793          	slli	a5,s0,0x8
    7b3e:	177d                	addi	a4,a4,-1
    7b40:	8021                	srli	s0,s0,0x8
    7b42:	8ff9                	and	a5,a5,a4
    7b44:	0ff47413          	andi	s0,s0,255
    7b48:	8c5d                	or	s0,s0,a5
    7b4a:	001ac503          	lbu	a0,1(s5)
    7b4e:	000ac783          	lbu	a5,0(s5)
    7b52:	000a4703          	lbu	a4,0(s4)
    7b56:	0522                	slli	a0,a0,0x8
    7b58:	8d5d                	or	a0,a0,a5
    7b5a:	002ac783          	lbu	a5,2(s5)
    7b5e:	003a4603          	lbu	a2,3(s4)
    7b62:	6941                	lui	s2,0x10
    7b64:	07c2                	slli	a5,a5,0x10
    7b66:	8d5d                	or	a0,a0,a5
    7b68:	003ac783          	lbu	a5,3(s5)
    7b6c:	0662                	slli	a2,a2,0x18
    7b6e:	197d                	addi	s2,s2,-1
    7b70:	07e2                	slli	a5,a5,0x18
    7b72:	8fc9                	or	a5,a5,a0
    7b74:	001a4503          	lbu	a0,1(s4)
    7b78:	0522                	slli	a0,a0,0x8
    7b7a:	8f49                	or	a4,a4,a0
    7b7c:	002a4503          	lbu	a0,2(s4)
    7b80:	0542                	slli	a0,a0,0x10
    7b82:	8d59                	or	a0,a0,a4
    7b84:	8e49                	or	a2,a2,a0
    7b86:	01267533          	and	a0,a2,s2
    7b8a:	8241                	srli	a2,a2,0x10
    7b8c:	0127f733          	and	a4,a5,s2
    7b90:	9532                	add	a0,a0,a2
    7b92:	953a                	add	a0,a0,a4
    7b94:	83c1                	srli	a5,a5,0x10
    7b96:	953e                	add	a0,a0,a5
    7b98:	942a                	add	s0,s0,a0
    7b9a:	8536                	mv	a0,a3
    7b9c:	aa7fb0ef          	jal	ra,3642 <htons>
    7ba0:	942a                	add	s0,s0,a0
    7ba2:	8526                	mv	a0,s1
    7ba4:	a9ffb0ef          	jal	ra,3642 <htons>
    7ba8:	9522                	add	a0,a0,s0
    7baa:	01055413          	srli	s0,a0,0x10
    7bae:	01257533          	and	a0,a0,s2
    7bb2:	942a                	add	s0,s0,a0
    7bb4:	01045513          	srli	a0,s0,0x10
    7bb8:	01247433          	and	s0,s0,s2
    7bbc:	9522                	add	a0,a0,s0
    7bbe:	fff54513          	not	a0,a0
    7bc2:	0542                	slli	a0,a0,0x10
    7bc4:	8141                	srli	a0,a0,0x10
    7bc6:	0141                	addi	sp,sp,16
    7bc8:	e38f806f          	j	200 <__riscv_restore_10>
    7bcc:	00a95583          	lhu	a1,10(s2) # 1000a <_data_lma+0x61a6>
    7bd0:	00492503          	lw	a0,4(s2)
    7bd4:	c636                	sw	a3,12(sp)
    7bd6:	eb5ff0ef          	jal	ra,7a8a <lwip_standard_chksum>
    7bda:	942a                	add	s0,s0,a0
    7bdc:	01045793          	srli	a5,s0,0x10
    7be0:	01647433          	and	s0,s0,s6
    7be4:	943e                	add	s0,s0,a5
    7be6:	00a95783          	lhu	a5,10(s2)
    7bea:	46b2                	lw	a3,12(sp)
    7bec:	8b85                	andi	a5,a5,1
    7bee:	cf89                	beqz	a5,7c08 <inet_chksum_pseudo+0x100>
    7bf0:	00841793          	slli	a5,s0,0x8
    7bf4:	8021                	srli	s0,s0,0x8
    7bf6:	413b89b3          	sub	s3,s7,s3
    7bfa:	0167f7b3          	and	a5,a5,s6
    7bfe:	0ff47413          	andi	s0,s0,255
    7c02:	0ff9f993          	andi	s3,s3,255
    7c06:	8c5d                	or	s0,s0,a5
    7c08:	00092903          	lw	s2,0(s2)
    7c0c:	b715                	j	7b30 <inet_chksum_pseudo+0x28>
    7c0e:	4501                	li	a0,0
    7c10:	bf5d                	j	7bc6 <inet_chksum_pseudo+0xbe>

00007c12 <inet_chksum>:
inet_chksum():
    7c12:	ddef82ef          	jal	t0,1f0 <__riscv_save_0>
    7c16:	e75ff0ef          	jal	ra,7a8a <lwip_standard_chksum>
    7c1a:	fff54513          	not	a0,a0
    7c1e:	0542                	slli	a0,a0,0x10
    7c20:	8141                	srli	a0,a0,0x10
    7c22:	df2f806f          	j	214 <__riscv_restore_0>

00007c26 <inet_chksum_pbuf>:
inet_chksum_pbuf():
    7c26:	db0f82ef          	jal	t0,1d6 <__riscv_save_4>
    7c2a:	69c1                	lui	s3,0x10
    7c2c:	84aa                	mv	s1,a0
    7c2e:	4901                	li	s2,0
    7c30:	4401                	li	s0,0
    7c32:	19fd                	addi	s3,s3,-1
    7c34:	4a05                	li	s4,1
    7c36:	e095                	bnez	s1,7c5a <inet_chksum_pbuf+0x34>
    7c38:	00090b63          	beqz	s2,7c4e <inet_chksum_pbuf+0x28>
    7c3c:	6741                	lui	a4,0x10
    7c3e:	00841793          	slli	a5,s0,0x8
    7c42:	177d                	addi	a4,a4,-1
    7c44:	8021                	srli	s0,s0,0x8
    7c46:	8ff9                	and	a5,a5,a4
    7c48:	0ff47413          	andi	s0,s0,255
    7c4c:	8c5d                	or	s0,s0,a5
    7c4e:	fff44513          	not	a0,s0
    7c52:	0542                	slli	a0,a0,0x10
    7c54:	8141                	srli	a0,a0,0x10
    7c56:	db4f806f          	j	20a <__riscv_restore_4>
    7c5a:	24ae                	lhu	a1,10(s1)
    7c5c:	40c8                	lw	a0,4(s1)
    7c5e:	e2dff0ef          	jal	ra,7a8a <lwip_standard_chksum>
    7c62:	942a                	add	s0,s0,a0
    7c64:	01045793          	srli	a5,s0,0x10
    7c68:	01347433          	and	s0,s0,s3
    7c6c:	943e                	add	s0,s0,a5
    7c6e:	24be                	lhu	a5,10(s1)
    7c70:	8b85                	andi	a5,a5,1
    7c72:	cf89                	beqz	a5,7c8c <inet_chksum_pbuf+0x66>
    7c74:	00841793          	slli	a5,s0,0x8
    7c78:	8021                	srli	s0,s0,0x8
    7c7a:	412a0933          	sub	s2,s4,s2
    7c7e:	0137f7b3          	and	a5,a5,s3
    7c82:	0ff47413          	andi	s0,s0,255
    7c86:	0ff97913          	andi	s2,s2,255
    7c8a:	8c5d                	or	s0,s0,a5
    7c8c:	4084                	lw	s1,0(s1)
    7c8e:	b765                	j	7c36 <inet_chksum_pbuf+0x10>

00007c90 <printchar>:
printchar():
    7c90:	1101                	addi	sp,sp,-32
    7c92:	ce06                	sw	ra,28(sp)
    7c94:	c62e                	sw	a1,12(sp)
    7c96:	cd0d                	beqz	a0,7cd0 <printchar+0x40>
    7c98:	4118                	lw	a4,0(a0)
    7c9a:	87aa                	mv	a5,a0
    7c9c:	c305                	beqz	a4,7cbc <printchar+0x2c>
    7c9e:	4158                	lw	a4,4(a0)
    7ca0:	557d                	li	a0,-1
    7ca2:	cb11                	beqz	a4,7cb6 <printchar+0x26>
    7ca4:	4685                	li	a3,1
    7ca6:	00d71b63          	bne	a4,a3,7cbc <printchar+0x2c>
    7caa:	4798                	lw	a4,8(a5)
    7cac:	00070023          	sb	zero,0(a4) # 10000 <_data_lma+0x619c>
    7cb0:	0007a223          	sw	zero,4(a5)
    7cb4:	4505                	li	a0,1
    7cb6:	40f2                	lw	ra,28(sp)
    7cb8:	6105                	addi	sp,sp,32
    7cba:	8082                	ret
    7cbc:	4798                	lw	a4,8(a5)
    7cbe:	46b2                	lw	a3,12(sp)
    7cc0:	a314                	sb	a3,0(a4)
    7cc2:	4798                	lw	a4,8(a5)
    7cc4:	0705                	addi	a4,a4,1
    7cc6:	c798                	sw	a4,8(a5)
    7cc8:	43d8                	lw	a4,4(a5)
    7cca:	177d                	addi	a4,a4,-1
    7ccc:	c3d8                	sw	a4,4(a5)
    7cce:	b7dd                	j	7cb4 <printchar+0x24>
    7cd0:	4605                	li	a2,1
    7cd2:	006c                	addi	a1,sp,12
    7cd4:	daafa0ef          	jal	ra,227e <_write>
    7cd8:	bff1                	j	7cb4 <printchar+0x24>

00007cda <prints>:
prints():
    7cda:	7179                	addi	sp,sp,-48
    7cdc:	d422                	sw	s0,40(sp)
    7cde:	d226                	sw	s1,36(sp)
    7ce0:	ce4e                	sw	s3,28(sp)
    7ce2:	cc52                	sw	s4,24(sp)
    7ce4:	ca56                	sw	s5,20(sp)
    7ce6:	d606                	sw	ra,44(sp)
    7ce8:	d04a                	sw	s2,32(sp)
    7cea:	c85a                	sw	s6,16(sp)
    7cec:	8a2a                	mv	s4,a0
    7cee:	8aae                	mv	s5,a1
    7cf0:	8432                	mv	s0,a2
    7cf2:	4481                	li	s1,0
    7cf4:	02000993          	li	s3,32
    7cf8:	02064463          	bltz	a2,7d20 <prints+0x46>
    7cfc:	009a87b3          	add	a5,s5,s1
    7d00:	00078783          	lb	a5,0(a5)
    7d04:	e39d                	bnez	a5,7d2a <prints+0x50>
    7d06:	0284d663          	bge	s1,s0,7d32 <prints+0x58>
    7d0a:	02e4d263          	bge	s1,a4,7d2e <prints+0x54>
    7d0e:	8c19                	sub	s0,s0,a4
    7d10:	0026f793          	andi	a5,a3,2
    7d14:	02000993          	li	s3,32
    7d18:	c781                	beqz	a5,7d20 <prints+0x46>
    7d1a:	e319                	bnez	a4,7d20 <prints+0x46>
    7d1c:	03000993          	li	s3,48
    7d20:	8a85                	andi	a3,a3,1
    7d22:	4901                	li	s2,0
    7d24:	ea85                	bnez	a3,7d54 <prints+0x7a>
    7d26:	8922                	mv	s2,s0
    7d28:	a831                	j	7d44 <prints+0x6a>
    7d2a:	0485                	addi	s1,s1,1
    7d2c:	bfc1                	j	7cfc <prints+0x22>
    7d2e:	8c05                	sub	s0,s0,s1
    7d30:	b7c5                	j	7d10 <prints+0x36>
    7d32:	4401                	li	s0,0
    7d34:	bff1                	j	7d10 <prints+0x36>
    7d36:	85ce                	mv	a1,s3
    7d38:	8552                	mv	a0,s4
    7d3a:	c63a                	sw	a4,12(sp)
    7d3c:	f55ff0ef          	jal	ra,7c90 <printchar>
    7d40:	4732                	lw	a4,12(sp)
    7d42:	197d                	addi	s2,s2,-1
    7d44:	ff2049e3          	bgtz	s2,7d36 <prints+0x5c>
    7d48:	8922                	mv	s2,s0
    7d4a:	00045363          	bgez	s0,7d50 <prints+0x76>
    7d4e:	4901                	li	s2,0
    7d50:	41240433          	sub	s0,s0,s2
    7d54:	02e4cb63          	blt	s1,a4,7d8a <prints+0xb0>
    7d58:	84ca                	mv	s1,s2
    7d5a:	412487b3          	sub	a5,s1,s2
    7d5e:	97d6                	add	a5,a5,s5
    7d60:	00078583          	lb	a1,0(a5)
    7d64:	e1a1                	bnez	a1,7da4 <prints+0xca>
    7d66:	8922                	mv	s2,s0
    7d68:	05204363          	bgtz	s2,7dae <prints+0xd4>
    7d6c:	00045363          	bgez	s0,7d72 <prints+0x98>
    7d70:	4401                	li	s0,0
    7d72:	00940533          	add	a0,s0,s1
    7d76:	50b2                	lw	ra,44(sp)
    7d78:	5422                	lw	s0,40(sp)
    7d7a:	5492                	lw	s1,36(sp)
    7d7c:	5902                	lw	s2,32(sp)
    7d7e:	49f2                	lw	s3,28(sp)
    7d80:	4a62                	lw	s4,24(sp)
    7d82:	4ad2                	lw	s5,20(sp)
    7d84:	4b42                	lw	s6,16(sp)
    7d86:	6145                	addi	sp,sp,48
    7d88:	8082                	ret
    7d8a:	409704b3          	sub	s1,a4,s1
    7d8e:	8b26                	mv	s6,s1
    7d90:	03000593          	li	a1,48
    7d94:	8552                	mv	a0,s4
    7d96:	1b7d                	addi	s6,s6,-1
    7d98:	ef9ff0ef          	jal	ra,7c90 <printchar>
    7d9c:	fe0b1ae3          	bnez	s6,7d90 <prints+0xb6>
    7da0:	9926                	add	s2,s2,s1
    7da2:	bf5d                	j	7d58 <prints+0x7e>
    7da4:	8552                	mv	a0,s4
    7da6:	eebff0ef          	jal	ra,7c90 <printchar>
    7daa:	0485                	addi	s1,s1,1
    7dac:	b77d                	j	7d5a <prints+0x80>
    7dae:	85ce                	mv	a1,s3
    7db0:	8552                	mv	a0,s4
    7db2:	edfff0ef          	jal	ra,7c90 <printchar>
    7db6:	197d                	addi	s2,s2,-1
    7db8:	bf45                	j	7d68 <prints+0x8e>

00007dba <printInt>:
printInt():
    7dba:	715d                	addi	sp,sp,-80
    7dbc:	c2a6                	sw	s1,68(sp)
    7dbe:	dc52                	sw	s4,56(sp)
    7dc0:	c686                	sw	ra,76(sp)
    7dc2:	c4a2                	sw	s0,72(sp)
    7dc4:	c0ca                	sw	s2,64(sp)
    7dc6:	de4e                	sw	s3,60(sp)
    7dc8:	da56                	sw	s5,52(sp)
    7dca:	84ba                	mv	s1,a4
    7dcc:	8a3e                	mv	s4,a5
    7dce:	e19d                	bnez	a1,7df4 <printInt+0x3a>
    7dd0:	03000793          	li	a5,48
    7dd4:	4701                	li	a4,0
    7dd6:	86d2                	mv	a3,s4
    7dd8:	8626                	mv	a2,s1
    7dda:	082c                	addi	a1,sp,24
    7ddc:	84fc                	sh	a5,24(sp)
    7dde:	efdff0ef          	jal	ra,7cda <prints>
    7de2:	40b6                	lw	ra,76(sp)
    7de4:	4426                	lw	s0,72(sp)
    7de6:	4496                	lw	s1,68(sp)
    7de8:	4906                	lw	s2,64(sp)
    7dea:	59f2                	lw	s3,60(sp)
    7dec:	5a62                	lw	s4,56(sp)
    7dee:	5ad2                	lw	s5,52(sp)
    7df0:	6161                	addi	sp,sp,80
    7df2:	8082                	ret
    7df4:	892a                	mv	s2,a0
    7df6:	8436                	mv	s0,a3
    7df8:	8ac6                	mv	s5,a7
    7dfa:	ca91                	beqz	a3,7e0e <printInt+0x54>
    7dfc:	47a9                	li	a5,10
    7dfe:	4401                	li	s0,0
    7e00:	00f61763          	bne	a2,a5,7e0e <printInt+0x54>
    7e04:	0005d563          	bgez	a1,7e0e <printInt+0x54>
    7e08:	40b005b3          	neg	a1,a1
    7e0c:	4405                	li	s0,1
    7e0e:	020107a3          	sb	zero,47(sp)
    7e12:	02f10793          	addi	a5,sp,47
    7e16:	46a5                	li	a3,9
    7e18:	fc680513          	addi	a0,a6,-58
    7e1c:	02c5f733          	remu	a4,a1,a2
    7e20:	00e6d363          	bge	a3,a4,7e26 <printInt+0x6c>
    7e24:	972a                	add	a4,a4,a0
    7e26:	03070713          	addi	a4,a4,48
    7e2a:	fee78fa3          	sb	a4,-1(a5)
    7e2e:	fff78993          	addi	s3,a5,-1
    7e32:	02c5d733          	divu	a4,a1,a2
    7e36:	04c5fb63          	bgeu	a1,a2,7e8c <printInt+0xd2>
    7e3a:	cc09                	beqz	s0,7e54 <printInt+0x9a>
    7e3c:	c8b9                	beqz	s1,7e92 <printInt+0xd8>
    7e3e:	002a7713          	andi	a4,s4,2
    7e42:	cb21                	beqz	a4,7e92 <printInt+0xd8>
    7e44:	02d00593          	li	a1,45
    7e48:	854a                	mv	a0,s2
    7e4a:	c642                	sw	a6,12(sp)
    7e4c:	e45ff0ef          	jal	ra,7c90 <printchar>
    7e50:	4832                	lw	a6,12(sp)
    7e52:	14fd                	addi	s1,s1,-1
    7e54:	004a7793          	andi	a5,s4,4
    7e58:	c38d                	beqz	a5,7e7a <printInt+0xc0>
    7e5a:	06100793          	li	a5,97
    7e5e:	03000593          	li	a1,48
    7e62:	854a                	mv	a0,s2
    7e64:	02f81f63          	bne	a6,a5,7ea2 <printInt+0xe8>
    7e68:	e29ff0ef          	jal	ra,7c90 <printchar>
    7e6c:	07800593          	li	a1,120
    7e70:	854a                	mv	a0,s2
    7e72:	e1fff0ef          	jal	ra,7c90 <printchar>
    7e76:	0409                	addi	s0,s0,2
    7e78:	14f9                	addi	s1,s1,-2
    7e7a:	8756                	mv	a4,s5
    7e7c:	86d2                	mv	a3,s4
    7e7e:	8626                	mv	a2,s1
    7e80:	85ce                	mv	a1,s3
    7e82:	854a                	mv	a0,s2
    7e84:	e57ff0ef          	jal	ra,7cda <prints>
    7e88:	9522                	add	a0,a0,s0
    7e8a:	bfa1                	j	7de2 <printInt+0x28>
    7e8c:	85ba                	mv	a1,a4
    7e8e:	87ce                	mv	a5,s3
    7e90:	b771                	j	7e1c <printInt+0x62>
    7e92:	02d00713          	li	a4,45
    7e96:	fee98fa3          	sb	a4,-1(s3) # ffff <_data_lma+0x619b>
    7e9a:	4401                	li	s0,0
    7e9c:	ffe78993          	addi	s3,a5,-2
    7ea0:	bf55                	j	7e54 <printInt+0x9a>
    7ea2:	defff0ef          	jal	ra,7c90 <printchar>
    7ea6:	05800593          	li	a1,88
    7eaa:	b7d9                	j	7e70 <printInt+0xb6>

00007eac <printLongLongInt>:
printLongLongInt():
    7eac:	4501                	li	a0,0
    7eae:	8082                	ret

00007eb0 <printDouble>:
printDouble():
    7eb0:	4501                	li	a0,0
    7eb2:	8082                	ret

00007eb4 <print>:
print():
    7eb4:	7139                	addi	sp,sp,-64
    7eb6:	d05a                	sw	s6,32(sp)
    7eb8:	0000ab37          	lui	s6,0xa
    7ebc:	dc22                	sw	s0,56(sp)
    7ebe:	da26                	sw	s1,52(sp)
    7ec0:	d84a                	sw	s2,48(sp)
    7ec2:	d64e                	sw	s3,44(sp)
    7ec4:	d452                	sw	s4,40(sp)
    7ec6:	d256                	sw	s5,36(sp)
    7ec8:	ce5e                	sw	s7,28(sp)
    7eca:	cc62                	sw	s8,24(sp)
    7ecc:	de06                	sw	ra,60(sp)
    7ece:	ca66                	sw	s9,20(sp)
    7ed0:	89aa                	mv	s3,a0
    7ed2:	892e                	mv	s2,a1
    7ed4:	8432                	mv	s0,a2
    7ed6:	4a01                	li	s4,0
    7ed8:	4481                	li	s1,0
    7eda:	02500b93          	li	s7,37
    7ede:	02b00a93          	li	s5,43
    7ee2:	4c29                	li	s8,10
    7ee4:	cc8b0b13          	addi	s6,s6,-824 # 9cc8 <ErrTable+0x50>
    7ee8:	00090583          	lb	a1,0(s2)
    7eec:	e58d                	bnez	a1,7f16 <print+0x62>
    7eee:	00098663          	beqz	s3,7efa <print+0x46>
    7ef2:	4581                	li	a1,0
    7ef4:	854e                	mv	a0,s3
    7ef6:	d9bff0ef          	jal	ra,7c90 <printchar>
    7efa:	50f2                	lw	ra,60(sp)
    7efc:	5462                	lw	s0,56(sp)
    7efe:	8526                	mv	a0,s1
    7f00:	5942                	lw	s2,48(sp)
    7f02:	54d2                	lw	s1,52(sp)
    7f04:	59b2                	lw	s3,44(sp)
    7f06:	5a22                	lw	s4,40(sp)
    7f08:	5a92                	lw	s5,36(sp)
    7f0a:	5b02                	lw	s6,32(sp)
    7f0c:	4bf2                	lw	s7,28(sp)
    7f0e:	4c62                	lw	s8,24(sp)
    7f10:	4cd2                	lw	s9,20(sp)
    7f12:	6121                	addi	sp,sp,64
    7f14:	8082                	ret
    7f16:	01758863          	beq	a1,s7,7f26 <print+0x72>
    7f1a:	854e                	mv	a0,s3
    7f1c:	d75ff0ef          	jal	ra,7c90 <printchar>
    7f20:	0485                	addi	s1,s1,1
    7f22:	0905                	addi	s2,s2,1
    7f24:	b7d1                	j	7ee8 <print+0x34>
    7f26:	00190783          	lb	a5,1(s2)
    7f2a:	00190c93          	addi	s9,s2,1
    7f2e:	01779a63          	bne	a5,s7,7f42 <print+0x8e>
    7f32:	02500593          	li	a1,37
    7f36:	854e                	mv	a0,s3
    7f38:	d59ff0ef          	jal	ra,7c90 <printchar>
    7f3c:	0485                	addi	s1,s1,1
    7f3e:	8966                	mv	s2,s9
    7f40:	b7cd                	j	7f22 <print+0x6e>
    7f42:	d7d5                	beqz	a5,7eee <print+0x3a>
    7f44:	05578763          	beq	a5,s5,7f92 <print+0xde>
    7f48:	00fac863          	blt	s5,a5,7f58 <print+0xa4>
    7f4c:	02300713          	li	a4,35
    7f50:	04e78463          	beq	a5,a4,7f98 <print+0xe4>
    7f54:	4781                	li	a5,0
    7f56:	a005                	j	7f76 <print+0xc2>
    7f58:	02d00713          	li	a4,45
    7f5c:	00e78a63          	beq	a5,a4,7f70 <print+0xbc>
    7f60:	03000713          	li	a4,48
    7f64:	fee798e3          	bne	a5,a4,7f54 <print+0xa0>
    7f68:	00290c93          	addi	s9,s2,2
    7f6c:	4789                	li	a5,2
    7f6e:	a021                	j	7f76 <print+0xc2>
    7f70:	00290c93          	addi	s9,s2,2
    7f74:	4785                	li	a5,1
    7f76:	000c8703          	lb	a4,0(s9)
    7f7a:	05570363          	beq	a4,s5,7fc0 <print+0x10c>
    7f7e:	02eac163          	blt	s5,a4,7fa0 <print+0xec>
    7f82:	02300693          	li	a3,35
    7f86:	02d70b63          	beq	a4,a3,7fbc <print+0x108>
    7f8a:	8966                	mv	s2,s9
    7f8c:	4601                	li	a2,0
    7f8e:	45a5                	li	a1,9
    7f90:	a835                	j	7fcc <print+0x118>
    7f92:	00290c93          	addi	s9,s2,2
    7f96:	bf7d                	j	7f54 <print+0xa0>
    7f98:	00290c93          	addi	s9,s2,2
    7f9c:	4791                	li	a5,4
    7f9e:	bfe1                	j	7f76 <print+0xc2>
    7fa0:	02d00693          	li	a3,45
    7fa4:	00d70963          	beq	a4,a3,7fb6 <print+0x102>
    7fa8:	03000693          	li	a3,48
    7fac:	fcd71fe3          	bne	a4,a3,7f8a <print+0xd6>
    7fb0:	0027e793          	ori	a5,a5,2
    7fb4:	a031                	j	7fc0 <print+0x10c>
    7fb6:	0c85                	addi	s9,s9,1
    7fb8:	4785                	li	a5,1
    7fba:	bfc1                	j	7f8a <print+0xd6>
    7fbc:	0047e793          	ori	a5,a5,4
    7fc0:	0c85                	addi	s9,s9,1
    7fc2:	b7e1                	j	7f8a <print+0xd6>
    7fc4:	03860633          	mul	a2,a2,s8
    7fc8:	0905                	addi	s2,s2,1
    7fca:	9636                	add	a2,a2,a3
    7fcc:	00090703          	lb	a4,0(s2)
    7fd0:	fd070693          	addi	a3,a4,-48
    7fd4:	0ff6f513          	andi	a0,a3,255
    7fd8:	fea5f6e3          	bgeu	a1,a0,7fc4 <print+0x110>
    7fdc:	02e00593          	li	a1,46
    7fe0:	4699                	li	a3,6
    7fe2:	00b71e63          	bne	a4,a1,7ffe <print+0x14a>
    7fe6:	0905                	addi	s2,s2,1
    7fe8:	4681                	li	a3,0
    7fea:	45a5                	li	a1,9
    7fec:	00090703          	lb	a4,0(s2)
    7ff0:	fd070713          	addi	a4,a4,-48
    7ff4:	0ff77513          	andi	a0,a4,255
    7ff8:	02a5f563          	bgeu	a1,a0,8022 <print+0x16e>
    7ffc:	8a36                	mv	s4,a3
    7ffe:	00090703          	lb	a4,0(s2)
    8002:	06a00593          	li	a1,106
    8006:	0ab70163          	beq	a4,a1,80a8 <print+0x1f4>
    800a:	02e5c163          	blt	a1,a4,802c <print+0x178>
    800e:	04c00593          	li	a1,76
    8012:	08b70b63          	beq	a4,a1,80a8 <print+0x1f4>
    8016:	06800593          	li	a1,104
    801a:	08b70063          	beq	a4,a1,809a <print+0x1e6>
    801e:	4581                	li	a1,0
    8020:	a02d                	j	804a <print+0x196>
    8022:	038686b3          	mul	a3,a3,s8
    8026:	0905                	addi	s2,s2,1
    8028:	96ba                	add	a3,a3,a4
    802a:	b7c9                	j	7fec <print+0x138>
    802c:	07400593          	li	a1,116
    8030:	06b70c63          	beq	a4,a1,80a8 <print+0x1f4>
    8034:	07a00593          	li	a1,122
    8038:	06b70863          	beq	a4,a1,80a8 <print+0x1f4>
    803c:	06c00513          	li	a0,108
    8040:	4581                	li	a1,0
    8042:	00a71463          	bne	a4,a0,804a <print+0x196>
    8046:	0905                	addi	s2,s2,1
    8048:	4591                	li	a1,4
    804a:	00090703          	lb	a4,0(s2)
    804e:	06000513          	li	a0,96
    8052:	06100813          	li	a6,97
    8056:	00e54463          	blt	a0,a4,805e <print+0x1aa>
    805a:	04100813          	li	a6,65
    805e:	06700513          	li	a0,103
    8062:	06e54063          	blt	a0,a4,80c2 <print+0x20e>
    8066:	06500513          	li	a0,101
    806a:	14a75563          	bge	a4,a0,81b4 <print+0x300>
    806e:	04700513          	li	a0,71
    8072:	02e54d63          	blt	a0,a4,80ac <print+0x1f8>
    8076:	04500593          	li	a1,69
    807a:	12b75d63          	bge	a4,a1,81b4 <print+0x300>
    807e:	04300693          	li	a3,67
    8082:	ead710e3          	bne	a4,a3,7f22 <print+0x6e>
    8086:	4018                	lw	a4,0(s0)
    8088:	00440c93          	addi	s9,s0,4
    808c:	000106a3          	sb	zero,13(sp)
    8090:	8658                	sb	a4,12(sp)
    8092:	86be                	mv	a3,a5
    8094:	4701                	li	a4,0
    8096:	006c                	addi	a1,sp,12
    8098:	a041                	j	8118 <print+0x264>
    809a:	00190503          	lb	a0,1(s2)
    809e:	4581                	li	a1,0
    80a0:	fae515e3          	bne	a0,a4,804a <print+0x196>
    80a4:	0909                	addi	s2,s2,2
    80a6:	b755                	j	804a <print+0x196>
    80a8:	0905                	addi	s2,s2,1
    80aa:	bf95                	j	801e <print+0x16a>
    80ac:	06300693          	li	a3,99
    80b0:	fcd70be3          	beq	a4,a3,8086 <print+0x1d2>
    80b4:	06e6c663          	blt	a3,a4,8120 <print+0x26c>
    80b8:	05800693          	li	a3,88
    80bc:	02d70363          	beq	a4,a3,80e2 <print+0x22e>
    80c0:	b58d                	j	7f22 <print+0x6e>
    80c2:	07300693          	li	a3,115
    80c6:	04d70163          	beq	a4,a3,8108 <print+0x254>
    80ca:	02e6c863          	blt	a3,a4,80fa <print+0x246>
    80ce:	06f00693          	li	a3,111
    80d2:	0ad70e63          	beq	a4,a3,818e <print+0x2da>
    80d6:	07000693          	li	a3,112
    80da:	0047e793          	ori	a5,a5,4
    80de:	e4d712e3          	bne	a4,a3,7f22 <print+0x6e>
    80e2:	cdd9                	beqz	a1,8180 <print+0x2cc>
    80e4:	041d                	addi	s0,s0,7
    80e6:	ff847593          	andi	a1,s0,-8
    80ea:	88c2                	mv	a7,a6
    80ec:	00858413          	addi	s0,a1,8
    80f0:	883e                	mv	a6,a5
    80f2:	4701                	li	a4,0
    80f4:	87b2                	mv	a5,a2
    80f6:	46c1                	li	a3,16
    80f8:	a83d                	j	8136 <print+0x282>
    80fa:	07500693          	li	a3,117
    80fe:	06d70063          	beq	a4,a3,815e <print+0x2aa>
    8102:	07800693          	li	a3,120
    8106:	bf5d                	j	80bc <print+0x208>
    8108:	4018                	lw	a4,0(s0)
    810a:	00440c93          	addi	s9,s0,4
    810e:	85da                	mv	a1,s6
    8110:	c311                	beqz	a4,8114 <print+0x260>
    8112:	85ba                	mv	a1,a4
    8114:	8752                	mv	a4,s4
    8116:	86be                	mv	a3,a5
    8118:	854e                	mv	a0,s3
    811a:	bc1ff0ef          	jal	ra,7cda <prints>
    811e:	a82d                	j	8158 <print+0x2a4>
    8120:	c195                	beqz	a1,8144 <print+0x290>
    8122:	041d                	addi	s0,s0,7
    8124:	ff847593          	andi	a1,s0,-8
    8128:	88c2                	mv	a7,a6
    812a:	00858413          	addi	s0,a1,8
    812e:	883e                	mv	a6,a5
    8130:	4705                	li	a4,1
    8132:	87b2                	mv	a5,a2
    8134:	46a9                	li	a3,10
    8136:	41d0                	lw	a2,4(a1)
    8138:	418c                	lw	a1,0(a1)
    813a:	854e                	mv	a0,s3
    813c:	d71ff0ef          	jal	ra,7eac <printLongLongInt>
    8140:	94aa                	add	s1,s1,a0
    8142:	b3c5                	j	7f22 <print+0x6e>
    8144:	00440c93          	addi	s9,s0,4
    8148:	88d2                	mv	a7,s4
    814a:	8732                	mv	a4,a2
    814c:	4685                	li	a3,1
    814e:	4629                	li	a2,10
    8150:	400c                	lw	a1,0(s0)
    8152:	854e                	mv	a0,s3
    8154:	c67ff0ef          	jal	ra,7dba <printInt>
    8158:	94aa                	add	s1,s1,a0
    815a:	8466                	mv	s0,s9
    815c:	b3d9                	j	7f22 <print+0x6e>
    815e:	c999                	beqz	a1,8174 <print+0x2c0>
    8160:	041d                	addi	s0,s0,7
    8162:	ff847593          	andi	a1,s0,-8
    8166:	88c2                	mv	a7,a6
    8168:	00858413          	addi	s0,a1,8
    816c:	883e                	mv	a6,a5
    816e:	4701                	li	a4,0
    8170:	87b2                	mv	a5,a2
    8172:	b7c9                	j	8134 <print+0x280>
    8174:	00440c93          	addi	s9,s0,4
    8178:	88d2                	mv	a7,s4
    817a:	8732                	mv	a4,a2
    817c:	4681                	li	a3,0
    817e:	bfc1                	j	814e <print+0x29a>
    8180:	8732                	mv	a4,a2
    8182:	00440c93          	addi	s9,s0,4
    8186:	88d2                	mv	a7,s4
    8188:	4681                	li	a3,0
    818a:	4641                	li	a2,16
    818c:	b7d1                	j	8150 <print+0x29c>
    818e:	cd81                	beqz	a1,81a6 <print+0x2f2>
    8190:	041d                	addi	s0,s0,7
    8192:	ff847593          	andi	a1,s0,-8
    8196:	88c2                	mv	a7,a6
    8198:	00858413          	addi	s0,a1,8
    819c:	883e                	mv	a6,a5
    819e:	4701                	li	a4,0
    81a0:	87b2                	mv	a5,a2
    81a2:	46a1                	li	a3,8
    81a4:	bf49                	j	8136 <print+0x282>
    81a6:	8732                	mv	a4,a2
    81a8:	00440c93          	addi	s9,s0,4
    81ac:	88d2                	mv	a7,s4
    81ae:	4681                	li	a3,0
    81b0:	4621                	li	a2,8
    81b2:	bf79                	j	8150 <print+0x29c>
    81b4:	041d                	addi	s0,s0,7
    81b6:	ff847593          	andi	a1,s0,-8
    81ba:	00858413          	addi	s0,a1,8
    81be:	8732                	mv	a4,a2
    81c0:	41d0                	lw	a2,4(a1)
    81c2:	418c                	lw	a1,0(a1)
    81c4:	88c2                	mv	a7,a6
    81c6:	854e                	mv	a0,s3
    81c8:	883e                	mv	a6,a5
    81ca:	87b6                	mv	a5,a3
    81cc:	46a9                	li	a3,10
    81ce:	ce3ff0ef          	jal	ra,7eb0 <printDouble>
    81d2:	b7bd                	j	8140 <print+0x28c>

000081d4 <printf>:
printf():
    81d4:	7139                	addi	sp,sp,-64
    81d6:	d22e                	sw	a1,36(sp)
    81d8:	d432                	sw	a2,40(sp)
    81da:	85aa                	mv	a1,a0
    81dc:	1050                	addi	a2,sp,36
    81de:	4501                	li	a0,0
    81e0:	ce06                	sw	ra,28(sp)
    81e2:	d636                	sw	a3,44(sp)
    81e4:	d83a                	sw	a4,48(sp)
    81e6:	da3e                	sw	a5,52(sp)
    81e8:	dc42                	sw	a6,56(sp)
    81ea:	de46                	sw	a7,60(sp)
    81ec:	c632                	sw	a2,12(sp)
    81ee:	cc7ff0ef          	jal	ra,7eb4 <print>
    81f2:	40f2                	lw	ra,28(sp)
    81f4:	6121                	addi	sp,sp,64
    81f6:	8082                	ret

000081f8 <sprintf>:
sprintf():
    81f8:	7139                	addi	sp,sp,-64
    81fa:	d432                	sw	a2,40(sp)
    81fc:	da3e                	sw	a5,52(sp)
    81fe:	c62a                	sw	a0,12(sp)
    8200:	1030                	addi	a2,sp,40
    8202:	57fd                	li	a5,-1
    8204:	0048                	addi	a0,sp,4
    8206:	ce06                	sw	ra,28(sp)
    8208:	d636                	sw	a3,44(sp)
    820a:	d83a                	sw	a4,48(sp)
    820c:	dc42                	sw	a6,56(sp)
    820e:	de46                	sw	a7,60(sp)
    8210:	c202                	sw	zero,4(sp)
    8212:	c43e                	sw	a5,8(sp)
    8214:	c032                	sw	a2,0(sp)
    8216:	c9fff0ef          	jal	ra,7eb4 <print>
    821a:	40f2                	lw	ra,28(sp)
    821c:	6121                	addi	sp,sp,64
    821e:	8082                	ret

00008220 <puts>:
puts():
    8220:	1101                	addi	sp,sp,-32
    8222:	cc22                	sw	s0,24(sp)
    8224:	ca26                	sw	s1,20(sp)
    8226:	ce06                	sw	ra,28(sp)
    8228:	211c                	lbu	a5,0(a0)
    822a:	84aa                	mv	s1,a0
    822c:	4401                	li	s0,0
    822e:	87dc                	sb	a5,15(sp)
    8230:	00f10783          	lb	a5,15(sp)
    8234:	0405                	addi	s0,s0,1
    8236:	ef99                	bnez	a5,8254 <puts+0x34>
    8238:	47a9                	li	a5,10
    823a:	00f10593          	addi	a1,sp,15
    823e:	4605                	li	a2,1
    8240:	4501                	li	a0,0
    8242:	87dc                	sb	a5,15(sp)
    8244:	83afa0ef          	jal	ra,227e <_write>
    8248:	8522                	mv	a0,s0
    824a:	40f2                	lw	ra,28(sp)
    824c:	4462                	lw	s0,24(sp)
    824e:	44d2                	lw	s1,20(sp)
    8250:	6105                	addi	sp,sp,32
    8252:	8082                	ret
    8254:	4605                	li	a2,1
    8256:	00f10593          	addi	a1,sp,15
    825a:	4501                	li	a0,0
    825c:	822fa0ef          	jal	ra,227e <_write>
    8260:	008487b3          	add	a5,s1,s0
    8264:	239c                	lbu	a5,0(a5)
    8266:	87dc                	sb	a5,15(sp)
    8268:	b7e1                	j	8230 <puts+0x10>

0000826a <atoi>:
atoi():
    826a:	4629                	li	a2,10
    826c:	4581                	li	a1,0
    826e:	a181                	j	86ae <strtol>

00008270 <__locale_ctype_ptr_l>:
__locale_ctype_ptr_l():
    8270:	0ec52503          	lw	a0,236(a0)
    8274:	8082                	ret

00008276 <__locale_ctype_ptr>:
__locale_ctype_ptr():
    8276:	84418793          	addi	a5,gp,-1980 # 20000264 <_impure_ptr>
    827a:	439c                	lw	a5,0(a5)
    827c:	539c                	lw	a5,32(a5)
    827e:	e789                	bnez	a5,8288 <__locale_ctype_ptr+0x12>
    8280:	1fff8797          	auipc	a5,0x1fff8
    8284:	dd078793          	addi	a5,a5,-560 # 20000050 <__global_locale>
    8288:	0ec7a503          	lw	a0,236(a5)
    828c:	8082                	ret

0000828e <__ascii_mbtowc>:
__ascii_mbtowc():
    828e:	ed91                	bnez	a1,82aa <__ascii_mbtowc+0x1c>
    8290:	1141                	addi	sp,sp,-16
    8292:	006c                	addi	a1,sp,12
    8294:	4501                	li	a0,0
    8296:	ca01                	beqz	a2,82a6 <__ascii_mbtowc+0x18>
    8298:	5579                	li	a0,-2
    829a:	c691                	beqz	a3,82a6 <__ascii_mbtowc+0x18>
    829c:	221c                	lbu	a5,0(a2)
    829e:	c19c                	sw	a5,0(a1)
    82a0:	2208                	lbu	a0,0(a2)
    82a2:	00a03533          	snez	a0,a0
    82a6:	0141                	addi	sp,sp,16
    82a8:	8082                	ret
    82aa:	4501                	li	a0,0
    82ac:	ca09                	beqz	a2,82be <__ascii_mbtowc+0x30>
    82ae:	5579                	li	a0,-2
    82b0:	c699                	beqz	a3,82be <__ascii_mbtowc+0x30>
    82b2:	221c                	lbu	a5,0(a2)
    82b4:	c19c                	sw	a5,0(a1)
    82b6:	2208                	lbu	a0,0(a2)
    82b8:	00a03533          	snez	a0,a0
    82bc:	8082                	ret
    82be:	8082                	ret

000082c0 <memcpy>:
memcpy():
    82c0:	00a5c7b3          	xor	a5,a1,a0
    82c4:	8b8d                	andi	a5,a5,3
    82c6:	00c50733          	add	a4,a0,a2
    82ca:	e781                	bnez	a5,82d2 <memcpy+0x12>
    82cc:	478d                	li	a5,3
    82ce:	00c7ed63          	bltu	a5,a2,82e8 <memcpy+0x28>
    82d2:	87aa                	mv	a5,a0
    82d4:	08e57e63          	bgeu	a0,a4,8370 <memcpy+0xb0>
    82d8:	2194                	lbu	a3,0(a1)
    82da:	0785                	addi	a5,a5,1
    82dc:	0585                	addi	a1,a1,1
    82de:	fed78fa3          	sb	a3,-1(a5)
    82e2:	fee7ebe3          	bltu	a5,a4,82d8 <memcpy+0x18>
    82e6:	8082                	ret
    82e8:	00357693          	andi	a3,a0,3
    82ec:	87aa                	mv	a5,a0
    82ee:	ca89                	beqz	a3,8300 <memcpy+0x40>
    82f0:	2194                	lbu	a3,0(a1)
    82f2:	0785                	addi	a5,a5,1
    82f4:	0585                	addi	a1,a1,1
    82f6:	fed78fa3          	sb	a3,-1(a5)
    82fa:	0037f693          	andi	a3,a5,3
    82fe:	bfc5                	j	82ee <memcpy+0x2e>
    8300:	ffc77693          	andi	a3,a4,-4
    8304:	fe068613          	addi	a2,a3,-32
    8308:	06c7f063          	bgeu	a5,a2,8368 <memcpy+0xa8>
    830c:	0005a383          	lw	t2,0(a1)
    8310:	0045a283          	lw	t0,4(a1)
    8314:	0085af83          	lw	t6,8(a1)
    8318:	00c5af03          	lw	t5,12(a1)
    831c:	0105ae83          	lw	t4,16(a1)
    8320:	0145ae03          	lw	t3,20(a1)
    8324:	0185a303          	lw	t1,24(a1)
    8328:	01c5a883          	lw	a7,28(a1)
    832c:	02458593          	addi	a1,a1,36
    8330:	0077a023          	sw	t2,0(a5)
    8334:	ffc5a803          	lw	a6,-4(a1)
    8338:	0057a223          	sw	t0,4(a5)
    833c:	01f7a423          	sw	t6,8(a5)
    8340:	01e7a623          	sw	t5,12(a5)
    8344:	01d7a823          	sw	t4,16(a5)
    8348:	01c7aa23          	sw	t3,20(a5)
    834c:	0067ac23          	sw	t1,24(a5)
    8350:	0117ae23          	sw	a7,28(a5)
    8354:	02478793          	addi	a5,a5,36
    8358:	ff07ae23          	sw	a6,-4(a5)
    835c:	b775                	j	8308 <memcpy+0x48>
    835e:	4190                	lw	a2,0(a1)
    8360:	0791                	addi	a5,a5,4
    8362:	0591                	addi	a1,a1,4
    8364:	fec7ae23          	sw	a2,-4(a5)
    8368:	fed7ebe3          	bltu	a5,a3,835e <memcpy+0x9e>
    836c:	f6e7e6e3          	bltu	a5,a4,82d8 <memcpy+0x18>
    8370:	8082                	ret

00008372 <memmove>:
memmove():
    8372:	04a5f163          	bgeu	a1,a0,83b4 <memmove+0x42>
    8376:	00c586b3          	add	a3,a1,a2
    837a:	02d57d63          	bgeu	a0,a3,83b4 <memmove+0x42>
    837e:	fff64593          	not	a1,a2
    8382:	4781                	li	a5,0
    8384:	17fd                	addi	a5,a5,-1
    8386:	00f59363          	bne	a1,a5,838c <memmove+0x1a>
    838a:	8082                	ret
    838c:	00f68733          	add	a4,a3,a5
    8390:	00074803          	lbu	a6,0(a4)
    8394:	00c78733          	add	a4,a5,a2
    8398:	972a                	add	a4,a4,a0
    839a:	01070023          	sb	a6,0(a4)
    839e:	b7dd                	j	8384 <memmove+0x12>
    83a0:	00f58733          	add	a4,a1,a5
    83a4:	2314                	lbu	a3,0(a4)
    83a6:	00f50733          	add	a4,a0,a5
    83aa:	0785                	addi	a5,a5,1
    83ac:	a314                	sb	a3,0(a4)
    83ae:	fef619e3          	bne	a2,a5,83a0 <memmove+0x2e>
    83b2:	8082                	ret
    83b4:	4781                	li	a5,0
    83b6:	bfe5                	j	83ae <memmove+0x3c>

000083b8 <siscanf>:
sscanf():
    83b8:	7171                	addi	sp,sp,-176
    83ba:	d33e                	sw	a5,164(sp)
    83bc:	20400793          	li	a5,516
    83c0:	c706                	sw	ra,140(sp)
    83c2:	c62e                	sw	a1,12(sp)
    83c4:	cd32                	sw	a2,152(sp)
    83c6:	cf36                	sw	a3,156(sp)
    83c8:	d13a                	sw	a4,160(sp)
    83ca:	d542                	sw	a6,168(sp)
    83cc:	d746                	sw	a7,172(sp)
    83ce:	02f11223          	sh	a5,36(sp)
    83d2:	cc2a                	sw	a0,24(sp)
    83d4:	d42a                	sw	a0,40(sp)
    83d6:	20b9                	jal	8424 <strlen>
    83d8:	00000797          	auipc	a5,0x0
    83dc:	03078793          	addi	a5,a5,48 # 8408 <__seofread>
    83e0:	de3e                	sw	a5,60(sp)
    83e2:	57fd                	li	a5,-1
    83e4:	45b2                	lw	a1,12(sp)
    83e6:	02f11323          	sh	a5,38(sp)
    83ea:	84418793          	addi	a5,gp,-1980 # 20000264 <_impure_ptr>
    83ee:	ce2a                	sw	a0,28(sp)
    83f0:	d62a                	sw	a0,44(sp)
    83f2:	4388                	lw	a0,0(a5)
    83f4:	0934                	addi	a3,sp,152
    83f6:	862e                	mv	a2,a1
    83f8:	082c                	addi	a1,sp,24
    83fa:	c682                	sw	zero,76(sp)
    83fc:	d082                	sw	zero,96(sp)
    83fe:	ca36                	sw	a3,20(sp)
    8400:	2b81                	jal	8950 <__ssvfiscanf_r>
    8402:	40ba                	lw	ra,140(sp)
    8404:	614d                	addi	sp,sp,176
    8406:	8082                	ret

00008408 <__seofread>:
__seofread():
    8408:	4501                	li	a0,0
    840a:	8082                	ret

0000840c <strchr>:
strchr():
    840c:	0ff5f593          	andi	a1,a1,255
    8410:	211c                	lbu	a5,0(a0)
    8412:	c791                	beqz	a5,841e <strchr+0x12>
    8414:	00b79363          	bne	a5,a1,841a <strchr+0xe>
    8418:	8082                	ret
    841a:	0505                	addi	a0,a0,1
    841c:	bfd5                	j	8410 <strchr+0x4>
    841e:	c191                	beqz	a1,8422 <strchr+0x16>
    8420:	4501                	li	a0,0
    8422:	8082                	ret

00008424 <strlen>:
strlen():
    8424:	87aa                	mv	a5,a0
    8426:	0785                	addi	a5,a5,1
    8428:	fff7c703          	lbu	a4,-1(a5)
    842c:	ff6d                	bnez	a4,8426 <strlen+0x2>
    842e:	40a78533          	sub	a0,a5,a0
    8432:	157d                	addi	a0,a0,-1
    8434:	8082                	ret

00008436 <strncat>:
strncat():
    8436:	87aa                	mv	a5,a0
    8438:	2398                	lbu	a4,0(a5)
    843a:	ef09                	bnez	a4,8454 <strncat+0x1e>
    843c:	167d                	addi	a2,a2,-1
    843e:	56fd                	li	a3,-1
    8440:	00d60963          	beq	a2,a3,8452 <strncat+0x1c>
    8444:	0585                	addi	a1,a1,1
    8446:	fff5c703          	lbu	a4,-1(a1)
    844a:	0785                	addi	a5,a5,1
    844c:	fee78fa3          	sb	a4,-1(a5)
    8450:	e701                	bnez	a4,8458 <strncat+0x22>
    8452:	8082                	ret
    8454:	0785                	addi	a5,a5,1
    8456:	b7cd                	j	8438 <strncat+0x2>
    8458:	e219                	bnez	a2,845e <strncat+0x28>
    845a:	00078023          	sb	zero,0(a5)
    845e:	167d                	addi	a2,a2,-1
    8460:	b7c5                	j	8440 <strncat+0xa>

00008462 <strncpy>:
strncpy():
    8462:	87aa                	mv	a5,a0
    8464:	ca09                	beqz	a2,8476 <strncpy+0x14>
    8466:	0585                	addi	a1,a1,1
    8468:	fff5c703          	lbu	a4,-1(a1)
    846c:	0785                	addi	a5,a5,1
    846e:	167d                	addi	a2,a2,-1
    8470:	fee78fa3          	sb	a4,-1(a5)
    8474:	fb65                	bnez	a4,8464 <strncpy+0x2>
    8476:	963e                	add	a2,a2,a5
    8478:	00c79363          	bne	a5,a2,847e <strncpy+0x1c>
    847c:	8082                	ret
    847e:	0785                	addi	a5,a5,1
    8480:	fe078fa3          	sb	zero,-1(a5)
    8484:	bfd5                	j	8478 <strncpy+0x16>

00008486 <strtok>:
strtok():
    8486:	1101                	addi	sp,sp,-32
    8488:	84418793          	addi	a5,gp,-1980 # 20000264 <_impure_ptr>
    848c:	cc22                	sw	s0,24(sp)
    848e:	4380                	lw	s0,0(a5)
    8490:	ca26                	sw	s1,20(sp)
    8492:	ce06                	sw	ra,28(sp)
    8494:	4c3c                	lw	a5,88(s0)
    8496:	84aa                	mv	s1,a0
    8498:	efa9                	bnez	a5,84f2 <strtok+0x6c>
    849a:	05000513          	li	a0,80
    849e:	c62e                	sw	a1,12(sp)
    84a0:	24a9                	jal	86ea <malloc>
    84a2:	45b2                	lw	a1,12(sp)
    84a4:	cc28                	sw	a0,88(s0)
    84a6:	00052023          	sw	zero,0(a0)
    84aa:	00052223          	sw	zero,4(a0)
    84ae:	00052423          	sw	zero,8(a0)
    84b2:	00052623          	sw	zero,12(a0)
    84b6:	00052823          	sw	zero,16(a0)
    84ba:	00052a23          	sw	zero,20(a0)
    84be:	00052c23          	sw	zero,24(a0)
    84c2:	02052423          	sw	zero,40(a0)
    84c6:	02052623          	sw	zero,44(a0)
    84ca:	02052823          	sw	zero,48(a0)
    84ce:	02052a23          	sw	zero,52(a0)
    84d2:	02052c23          	sw	zero,56(a0)
    84d6:	02052e23          	sw	zero,60(a0)
    84da:	04052023          	sw	zero,64(a0)
    84de:	04052223          	sw	zero,68(a0)
    84e2:	04052423          	sw	zero,72(a0)
    84e6:	04052623          	sw	zero,76(a0)
    84ea:	00050e23          	sb	zero,28(a0)
    84ee:	02052223          	sw	zero,36(a0)
    84f2:	4c30                	lw	a2,88(s0)
    84f4:	4462                	lw	s0,24(sp)
    84f6:	40f2                	lw	ra,28(sp)
    84f8:	8526                	mv	a0,s1
    84fa:	44d2                	lw	s1,20(sp)
    84fc:	4685                	li	a3,1
    84fe:	6105                	addi	sp,sp,32
    8500:	a009                	j	8502 <__strtok_r>

00008502 <__strtok_r>:
__strtok_r():
    8502:	e509                	bnez	a0,850c <__strtok_r+0xa>
    8504:	4208                	lw	a0,0(a2)
    8506:	e119                	bnez	a0,850c <__strtok_r+0xa>
    8508:	8082                	ret
    850a:	853e                	mv	a0,a5
    850c:	00150793          	addi	a5,a0,1
    8510:	fff7c803          	lbu	a6,-1(a5)
    8514:	872e                	mv	a4,a1
    8516:	0705                	addi	a4,a4,1
    8518:	fff74883          	lbu	a7,-1(a4)
    851c:	00089863          	bnez	a7,852c <__strtok_r+0x2a>
    8520:	02081063          	bnez	a6,8540 <__strtok_r+0x3e>
    8524:	00062023          	sw	zero,0(a2) # 1000 <Encoder_Task+0xbe>
    8528:	4501                	li	a0,0
    852a:	8082                	ret
    852c:	ff1815e3          	bne	a6,a7,8516 <__strtok_r+0x14>
    8530:	fee9                	bnez	a3,850a <__strtok_r+0x8>
    8532:	c21c                	sw	a5,0(a2)
    8534:	00050023          	sb	zero,0(a0)
    8538:	8082                	ret
    853a:	4781                	li	a5,0
    853c:	a839                	j	855a <__strtok_r+0x58>
    853e:	e689                	bnez	a3,8548 <__strtok_r+0x46>
    8540:	0785                	addi	a5,a5,1
    8542:	fff7c803          	lbu	a6,-1(a5)
    8546:	872e                	mv	a4,a1
    8548:	0705                	addi	a4,a4,1
    854a:	fff74683          	lbu	a3,-1(a4)
    854e:	fed818e3          	bne	a6,a3,853e <__strtok_r+0x3c>
    8552:	fe0804e3          	beqz	a6,853a <__strtok_r+0x38>
    8556:	fe078fa3          	sb	zero,-1(a5)
    855a:	c21c                	sw	a5,0(a2)
    855c:	8082                	ret

0000855e <_strtol_l.isra.0>:
_strtol_l.isra.0():
    855e:	7179                	addi	sp,sp,-48
    8560:	d04a                	sw	s2,32(sp)
    8562:	ce4e                	sw	s3,28(sp)
    8564:	d606                	sw	ra,44(sp)
    8566:	d422                	sw	s0,40(sp)
    8568:	d226                	sw	s1,36(sp)
    856a:	89aa                	mv	s3,a0
    856c:	892e                	mv	s2,a1
    856e:	00190493          	addi	s1,s2,1
    8572:	fff4c403          	lbu	s0,-1(s1)
    8576:	853a                	mv	a0,a4
    8578:	c636                	sw	a3,12(sp)
    857a:	c432                	sw	a2,8(sp)
    857c:	c22e                	sw	a1,4(sp)
    857e:	c03a                	sw	a4,0(sp)
    8580:	cf1ff0ef          	jal	ra,8270 <__locale_ctype_ptr_l>
    8584:	9522                	add	a0,a0,s0
    8586:	311c                	lbu	a5,1(a0)
    8588:	4702                	lw	a4,0(sp)
    858a:	4592                	lw	a1,4(sp)
    858c:	8ba1                	andi	a5,a5,8
    858e:	4622                	lw	a2,8(sp)
    8590:	46b2                	lw	a3,12(sp)
    8592:	e3d1                	bnez	a5,8616 <_strtol_l.isra.0+0xb8>
    8594:	02d00793          	li	a5,45
    8598:	08f41163          	bne	s0,a5,861a <_strtol_l.isra.0+0xbc>
    859c:	209c                	lbu	a5,0(s1)
    859e:	4305                	li	t1,1
    85a0:	00290493          	addi	s1,s2,2
    85a4:	c6e5                	beqz	a3,868c <_strtol_l.isra.0+0x12e>
    85a6:	4741                	li	a4,16
    85a8:	02e69063          	bne	a3,a4,85c8 <_strtol_l.isra.0+0x6a>
    85ac:	03000713          	li	a4,48
    85b0:	00e79c63          	bne	a5,a4,85c8 <_strtol_l.isra.0+0x6a>
    85b4:	209c                	lbu	a5,0(s1)
    85b6:	05800713          	li	a4,88
    85ba:	0df7f793          	andi	a5,a5,223
    85be:	0ce79263          	bne	a5,a4,8682 <_strtol_l.isra.0+0x124>
    85c2:	309c                	lbu	a5,1(s1)
    85c4:	46c1                	li	a3,16
    85c6:	0489                	addi	s1,s1,2
    85c8:	800008b7          	lui	a7,0x80000
    85cc:	00031463          	bnez	t1,85d4 <_strtol_l.isra.0+0x76>
    85d0:	fff8c893          	not	a7,a7
    85d4:	02d8ff33          	remu	t5,a7,a3
    85d8:	4801                	li	a6,0
    85da:	4501                	li	a0,0
    85dc:	4fa5                	li	t6,9
    85de:	4ee5                	li	t4,25
    85e0:	52fd                	li	t0,-1
    85e2:	02d8de33          	divu	t3,a7,a3
    85e6:	fd078713          	addi	a4,a5,-48
    85ea:	04efe363          	bltu	t6,a4,8630 <_strtol_l.isra.0+0xd2>
    85ee:	87ba                	mv	a5,a4
    85f0:	04d7de63          	bge	a5,a3,864c <_strtol_l.isra.0+0xee>
    85f4:	00580d63          	beq	a6,t0,860e <_strtol_l.isra.0+0xb0>
    85f8:	587d                	li	a6,-1
    85fa:	00ae6a63          	bltu	t3,a0,860e <_strtol_l.isra.0+0xb0>
    85fe:	00ae1463          	bne	t3,a0,8606 <_strtol_l.isra.0+0xa8>
    8602:	00ff4663          	blt	t5,a5,860e <_strtol_l.isra.0+0xb0>
    8606:	4805                	li	a6,1
    8608:	02a68533          	mul	a0,a3,a0
    860c:	953e                	add	a0,a0,a5
    860e:	0485                	addi	s1,s1,1
    8610:	fff4c783          	lbu	a5,-1(s1)
    8614:	bfc9                	j	85e6 <_strtol_l.isra.0+0x88>
    8616:	8926                	mv	s2,s1
    8618:	bf99                	j	856e <_strtol_l.isra.0+0x10>
    861a:	02b00793          	li	a5,43
    861e:	00f40563          	beq	s0,a5,8628 <_strtol_l.isra.0+0xca>
    8622:	87a2                	mv	a5,s0
    8624:	4301                	li	t1,0
    8626:	bfbd                	j	85a4 <_strtol_l.isra.0+0x46>
    8628:	209c                	lbu	a5,0(s1)
    862a:	00290493          	addi	s1,s2,2
    862e:	bfdd                	j	8624 <_strtol_l.isra.0+0xc6>
    8630:	fbf78713          	addi	a4,a5,-65
    8634:	00eee563          	bltu	t4,a4,863e <_strtol_l.isra.0+0xe0>
    8638:	fc978793          	addi	a5,a5,-55
    863c:	bf55                	j	85f0 <_strtol_l.isra.0+0x92>
    863e:	f9f78713          	addi	a4,a5,-97
    8642:	00eee563          	bltu	t4,a4,864c <_strtol_l.isra.0+0xee>
    8646:	fa978793          	addi	a5,a5,-87
    864a:	b75d                	j	85f0 <_strtol_l.isra.0+0x92>
    864c:	57fd                	li	a5,-1
    864e:	00f81f63          	bne	a6,a5,866c <_strtol_l.isra.0+0x10e>
    8652:	02200793          	li	a5,34
    8656:	00f9a023          	sw	a5,0(s3)
    865a:	8546                	mv	a0,a7
    865c:	ee19                	bnez	a2,867a <_strtol_l.isra.0+0x11c>
    865e:	50b2                	lw	ra,44(sp)
    8660:	5422                	lw	s0,40(sp)
    8662:	5492                	lw	s1,36(sp)
    8664:	5902                	lw	s2,32(sp)
    8666:	49f2                	lw	s3,28(sp)
    8668:	6145                	addi	sp,sp,48
    866a:	8082                	ret
    866c:	00030463          	beqz	t1,8674 <_strtol_l.isra.0+0x116>
    8670:	40a00533          	neg	a0,a0
    8674:	d66d                	beqz	a2,865e <_strtol_l.isra.0+0x100>
    8676:	00080463          	beqz	a6,867e <_strtol_l.isra.0+0x120>
    867a:	fff48593          	addi	a1,s1,-1
    867e:	c20c                	sw	a1,0(a2)
    8680:	bff9                	j	865e <_strtol_l.isra.0+0x100>
    8682:	03000793          	li	a5,48
    8686:	f2a9                	bnez	a3,85c8 <_strtol_l.isra.0+0x6a>
    8688:	46a1                	li	a3,8
    868a:	bf3d                	j	85c8 <_strtol_l.isra.0+0x6a>
    868c:	03000713          	li	a4,48
    8690:	f2e782e3          	beq	a5,a4,85b4 <_strtol_l.isra.0+0x56>
    8694:	46a9                	li	a3,10
    8696:	bf0d                	j	85c8 <_strtol_l.isra.0+0x6a>

00008698 <_strtol_r>:
_strtol_r():
    8698:	84418793          	addi	a5,gp,-1980 # 20000264 <_impure_ptr>
    869c:	439c                	lw	a5,0(a5)
    869e:	5398                	lw	a4,32(a5)
    86a0:	e709                	bnez	a4,86aa <_strtol_r+0x12>
    86a2:	1fff8717          	auipc	a4,0x1fff8
    86a6:	9ae70713          	addi	a4,a4,-1618 # 20000050 <__global_locale>
    86aa:	eb5ff06f          	j	855e <_strtol_l.isra.0>

000086ae <strtol>:
strtol():
    86ae:	84418793          	addi	a5,gp,-1980 # 20000264 <_impure_ptr>
    86b2:	439c                	lw	a5,0(a5)
    86b4:	86b2                	mv	a3,a2
    86b6:	5398                	lw	a4,32(a5)
    86b8:	e709                	bnez	a4,86c2 <strtol+0x14>
    86ba:	1fff8717          	auipc	a4,0x1fff8
    86be:	99670713          	addi	a4,a4,-1642 # 20000050 <__global_locale>
    86c2:	862e                	mv	a2,a1
    86c4:	85aa                	mv	a1,a0
    86c6:	853e                	mv	a0,a5
    86c8:	e97ff06f          	j	855e <_strtol_l.isra.0>

000086cc <__ascii_wctomb>:
__ascii_wctomb():
    86cc:	cd89                	beqz	a1,86e6 <__ascii_wctomb+0x1a>
    86ce:	0ff00793          	li	a5,255
    86d2:	00c7f763          	bgeu	a5,a2,86e0 <__ascii_wctomb+0x14>
    86d6:	08a00793          	li	a5,138
    86da:	c11c                	sw	a5,0(a0)
    86dc:	557d                	li	a0,-1
    86de:	8082                	ret
    86e0:	a190                	sb	a2,0(a1)
    86e2:	4505                	li	a0,1
    86e4:	8082                	ret
    86e6:	4501                	li	a0,0
    86e8:	8082                	ret

000086ea <malloc>:
malloc():
    86ea:	84418793          	addi	a5,gp,-1980 # 20000264 <_impure_ptr>
    86ee:	85aa                	mv	a1,a0
    86f0:	4388                	lw	a0,0(a5)
    86f2:	a06d                	j	879c <_malloc_r>

000086f4 <_free_r>:
_free_r():
    86f4:	c1dd                	beqz	a1,879a <_free_r+0xa6>
    86f6:	ffc5a783          	lw	a5,-4(a1)
    86fa:	1141                	addi	sp,sp,-16
    86fc:	c422                	sw	s0,8(sp)
    86fe:	c606                	sw	ra,12(sp)
    8700:	c226                	sw	s1,4(sp)
    8702:	ffc58413          	addi	s0,a1,-4
    8706:	0007d363          	bgez	a5,870c <_free_r+0x18>
    870a:	943e                	add	s0,s0,a5
    870c:	84aa                	mv	s1,a0
    870e:	3b3000ef          	jal	ra,92c0 <__malloc_lock>
    8712:	92c18793          	addi	a5,gp,-1748 # 2000034c <__malloc_free_list>
    8716:	439c                	lw	a5,0(a5)
    8718:	ef81                	bnez	a5,8730 <_free_r+0x3c>
    871a:	00042223          	sw	zero,4(s0)
    871e:	9281a623          	sw	s0,-1748(gp) # 2000034c <__malloc_free_list>
    8722:	4422                	lw	s0,8(sp)
    8724:	40b2                	lw	ra,12(sp)
    8726:	8526                	mv	a0,s1
    8728:	4492                	lw	s1,4(sp)
    872a:	0141                	addi	sp,sp,16
    872c:	3970006f          	j	92c2 <__malloc_unlock>
    8730:	00f47e63          	bgeu	s0,a5,874c <_free_r+0x58>
    8734:	4014                	lw	a3,0(s0)
    8736:	00d40733          	add	a4,s0,a3
    873a:	00e79663          	bne	a5,a4,8746 <_free_r+0x52>
    873e:	4398                	lw	a4,0(a5)
    8740:	43dc                	lw	a5,4(a5)
    8742:	9736                	add	a4,a4,a3
    8744:	c018                	sw	a4,0(s0)
    8746:	c05c                	sw	a5,4(s0)
    8748:	bfd9                	j	871e <_free_r+0x2a>
    874a:	87ba                	mv	a5,a4
    874c:	43d8                	lw	a4,4(a5)
    874e:	c319                	beqz	a4,8754 <_free_r+0x60>
    8750:	fee47de3          	bgeu	s0,a4,874a <_free_r+0x56>
    8754:	4394                	lw	a3,0(a5)
    8756:	00d78633          	add	a2,a5,a3
    875a:	00861f63          	bne	a2,s0,8778 <_free_r+0x84>
    875e:	4010                	lw	a2,0(s0)
    8760:	96b2                	add	a3,a3,a2
    8762:	c394                	sw	a3,0(a5)
    8764:	00d78633          	add	a2,a5,a3
    8768:	fac71de3          	bne	a4,a2,8722 <_free_r+0x2e>
    876c:	4310                	lw	a2,0(a4)
    876e:	4358                	lw	a4,4(a4)
    8770:	96b2                	add	a3,a3,a2
    8772:	c394                	sw	a3,0(a5)
    8774:	c3d8                	sw	a4,4(a5)
    8776:	b775                	j	8722 <_free_r+0x2e>
    8778:	00c47563          	bgeu	s0,a2,8782 <_free_r+0x8e>
    877c:	47b1                	li	a5,12
    877e:	c09c                	sw	a5,0(s1)
    8780:	b74d                	j	8722 <_free_r+0x2e>
    8782:	4010                	lw	a2,0(s0)
    8784:	00c406b3          	add	a3,s0,a2
    8788:	00d71663          	bne	a4,a3,8794 <_free_r+0xa0>
    878c:	4314                	lw	a3,0(a4)
    878e:	4358                	lw	a4,4(a4)
    8790:	96b2                	add	a3,a3,a2
    8792:	c014                	sw	a3,0(s0)
    8794:	c058                	sw	a4,4(s0)
    8796:	c3c0                	sw	s0,4(a5)
    8798:	b769                	j	8722 <_free_r+0x2e>
    879a:	8082                	ret

0000879c <_malloc_r>:
_malloc_r():
    879c:	1101                	addi	sp,sp,-32
    879e:	ca26                	sw	s1,20(sp)
    87a0:	00358493          	addi	s1,a1,3
    87a4:	98f1                	andi	s1,s1,-4
    87a6:	ce06                	sw	ra,28(sp)
    87a8:	cc22                	sw	s0,24(sp)
    87aa:	c84a                	sw	s2,16(sp)
    87ac:	c64e                	sw	s3,12(sp)
    87ae:	04a1                	addi	s1,s1,8
    87b0:	47b1                	li	a5,12
    87b2:	04f4f563          	bgeu	s1,a5,87fc <_malloc_r+0x60>
    87b6:	44b1                	li	s1,12
    87b8:	04b4e463          	bltu	s1,a1,8800 <_malloc_r+0x64>
    87bc:	892a                	mv	s2,a0
    87be:	303000ef          	jal	ra,92c0 <__malloc_lock>
    87c2:	92c18793          	addi	a5,gp,-1748 # 2000034c <__malloc_free_list>
    87c6:	4398                	lw	a4,0(a5)
    87c8:	843a                	mv	s0,a4
    87ca:	e429                	bnez	s0,8814 <_malloc_r+0x78>
    87cc:	93018793          	addi	a5,gp,-1744 # 20000350 <__malloc_sbrk_start>
    87d0:	439c                	lw	a5,0(a5)
    87d2:	e799                	bnez	a5,87e0 <_malloc_r+0x44>
    87d4:	4581                	li	a1,0
    87d6:	854a                	mv	a0,s2
    87d8:	053000ef          	jal	ra,902a <_sbrk_r>
    87dc:	92a1a823          	sw	a0,-1744(gp) # 20000350 <__malloc_sbrk_start>
    87e0:	85a6                	mv	a1,s1
    87e2:	854a                	mv	a0,s2
    87e4:	047000ef          	jal	ra,902a <_sbrk_r>
    87e8:	59fd                	li	s3,-1
    87ea:	07351963          	bne	a0,s3,885c <_malloc_r+0xc0>
    87ee:	47b1                	li	a5,12
    87f0:	00f92023          	sw	a5,0(s2)
    87f4:	854a                	mv	a0,s2
    87f6:	2cd000ef          	jal	ra,92c2 <__malloc_unlock>
    87fa:	a029                	j	8804 <_malloc_r+0x68>
    87fc:	fa04dee3          	bgez	s1,87b8 <_malloc_r+0x1c>
    8800:	47b1                	li	a5,12
    8802:	c11c                	sw	a5,0(a0)
    8804:	4501                	li	a0,0
    8806:	40f2                	lw	ra,28(sp)
    8808:	4462                	lw	s0,24(sp)
    880a:	44d2                	lw	s1,20(sp)
    880c:	4942                	lw	s2,16(sp)
    880e:	49b2                	lw	s3,12(sp)
    8810:	6105                	addi	sp,sp,32
    8812:	8082                	ret
    8814:	401c                	lw	a5,0(s0)
    8816:	8f85                	sub	a5,a5,s1
    8818:	0207cf63          	bltz	a5,8856 <_malloc_r+0xba>
    881c:	46ad                	li	a3,11
    881e:	00f6f663          	bgeu	a3,a5,882a <_malloc_r+0x8e>
    8822:	c01c                	sw	a5,0(s0)
    8824:	943e                	add	s0,s0,a5
    8826:	c004                	sw	s1,0(s0)
    8828:	a031                	j	8834 <_malloc_r+0x98>
    882a:	405c                	lw	a5,4(s0)
    882c:	02871363          	bne	a4,s0,8852 <_malloc_r+0xb6>
    8830:	92f1a623          	sw	a5,-1748(gp) # 2000034c <__malloc_free_list>
    8834:	854a                	mv	a0,s2
    8836:	28d000ef          	jal	ra,92c2 <__malloc_unlock>
    883a:	00b40513          	addi	a0,s0,11
    883e:	00440793          	addi	a5,s0,4
    8842:	9961                	andi	a0,a0,-8
    8844:	40f50733          	sub	a4,a0,a5
    8848:	df5d                	beqz	a4,8806 <_malloc_r+0x6a>
    884a:	943a                	add	s0,s0,a4
    884c:	8f89                	sub	a5,a5,a0
    884e:	c01c                	sw	a5,0(s0)
    8850:	bf5d                	j	8806 <_malloc_r+0x6a>
    8852:	c35c                	sw	a5,4(a4)
    8854:	b7c5                	j	8834 <_malloc_r+0x98>
    8856:	8722                	mv	a4,s0
    8858:	4040                	lw	s0,4(s0)
    885a:	bf85                	j	87ca <_malloc_r+0x2e>
    885c:	00350413          	addi	s0,a0,3
    8860:	9871                	andi	s0,s0,-4
    8862:	fc8502e3          	beq	a0,s0,8826 <_malloc_r+0x8a>
    8866:	40a405b3          	sub	a1,s0,a0
    886a:	854a                	mv	a0,s2
    886c:	7be000ef          	jal	ra,902a <_sbrk_r>
    8870:	fb351be3          	bne	a0,s3,8826 <_malloc_r+0x8a>
    8874:	bfad                	j	87ee <_malloc_r+0x52>

00008876 <_sungetc_r>:
_sungetc_r():
    8876:	1141                	addi	sp,sp,-16
    8878:	c606                	sw	ra,12(sp)
    887a:	c422                	sw	s0,8(sp)
    887c:	c226                	sw	s1,4(sp)
    887e:	c04a                	sw	s2,0(sp)
    8880:	57fd                	li	a5,-1
    8882:	00f59a63          	bne	a1,a5,8896 <_sungetc_r+0x20>
    8886:	54fd                	li	s1,-1
    8888:	40b2                	lw	ra,12(sp)
    888a:	4422                	lw	s0,8(sp)
    888c:	8526                	mv	a0,s1
    888e:	4902                	lw	s2,0(sp)
    8890:	4492                	lw	s1,4(sp)
    8892:	0141                	addi	sp,sp,16
    8894:	8082                	ret
    8896:	265e                	lhu	a5,12(a2)
    8898:	0ff5f913          	andi	s2,a1,255
    889c:	0ff5f493          	andi	s1,a1,255
    88a0:	fdf7f793          	andi	a5,a5,-33
    88a4:	a65e                	sh	a5,12(a2)
    88a6:	5a5c                	lw	a5,52(a2)
    88a8:	4258                	lw	a4,4(a2)
    88aa:	c785                	beqz	a5,88d2 <_sungetc_r+0x5c>
    88ac:	5e1c                	lw	a5,56(a2)
    88ae:	8432                	mv	s0,a2
    88b0:	00f75c63          	bge	a4,a5,88c8 <_sungetc_r+0x52>
    88b4:	401c                	lw	a5,0(s0)
    88b6:	fff78713          	addi	a4,a5,-1
    88ba:	c018                	sw	a4,0(s0)
    88bc:	ff278fa3          	sb	s2,-1(a5)
    88c0:	405c                	lw	a5,4(s0)
    88c2:	0785                	addi	a5,a5,1
    88c4:	c05c                	sw	a5,4(s0)
    88c6:	b7c9                	j	8888 <_sungetc_r+0x12>
    88c8:	85b2                	mv	a1,a2
    88ca:	15b000ef          	jal	ra,9224 <__submore>
    88ce:	d17d                	beqz	a0,88b4 <_sungetc_r+0x3e>
    88d0:	bf5d                	j	8886 <_sungetc_r+0x10>
    88d2:	4a14                	lw	a3,16(a2)
    88d4:	421c                	lw	a5,0(a2)
    88d6:	ce81                	beqz	a3,88ee <_sungetc_r+0x78>
    88d8:	00f6fb63          	bgeu	a3,a5,88ee <_sungetc_r+0x78>
    88dc:	fff7c683          	lbu	a3,-1(a5)
    88e0:	00969763          	bne	a3,s1,88ee <_sungetc_r+0x78>
    88e4:	17fd                	addi	a5,a5,-1
    88e6:	0705                	addi	a4,a4,1
    88e8:	c21c                	sw	a5,0(a2)
    88ea:	c258                	sw	a4,4(a2)
    88ec:	bf71                	j	8888 <_sungetc_r+0x12>
    88ee:	de5c                	sw	a5,60(a2)
    88f0:	04460793          	addi	a5,a2,68
    88f4:	da5c                	sw	a5,52(a2)
    88f6:	478d                	li	a5,3
    88f8:	de1c                	sw	a5,56(a2)
    88fa:	04660793          	addi	a5,a2,70
    88fe:	c21c                	sw	a5,0(a2)
    8900:	4785                	li	a5,1
    8902:	c238                	sw	a4,64(a2)
    8904:	05260323          	sb	s2,70(a2)
    8908:	c25c                	sw	a5,4(a2)
    890a:	bfbd                	j	8888 <_sungetc_r+0x12>

0000890c <__ssrefill_r>:
__ssrefill_r():
    890c:	1141                	addi	sp,sp,-16
    890e:	c422                	sw	s0,8(sp)
    8910:	842e                	mv	s0,a1
    8912:	59cc                	lw	a1,52(a1)
    8914:	c606                	sw	ra,12(sp)
    8916:	c19d                	beqz	a1,893c <__ssrefill_r+0x30>
    8918:	04440793          	addi	a5,s0,68
    891c:	00f58463          	beq	a1,a5,8924 <__ssrefill_r+0x18>
    8920:	dd5ff0ef          	jal	ra,86f4 <_free_r>
    8924:	403c                	lw	a5,64(s0)
    8926:	02042a23          	sw	zero,52(s0)
    892a:	c05c                	sw	a5,4(s0)
    892c:	cb81                	beqz	a5,893c <__ssrefill_r+0x30>
    892e:	5c5c                	lw	a5,60(s0)
    8930:	4501                	li	a0,0
    8932:	c01c                	sw	a5,0(s0)
    8934:	40b2                	lw	ra,12(sp)
    8936:	4422                	lw	s0,8(sp)
    8938:	0141                	addi	sp,sp,16
    893a:	8082                	ret
    893c:	481c                	lw	a5,16(s0)
    893e:	00042223          	sw	zero,4(s0)
    8942:	557d                	li	a0,-1
    8944:	c01c                	sw	a5,0(s0)
    8946:	245e                	lhu	a5,12(s0)
    8948:	0207e793          	ori	a5,a5,32
    894c:	a45e                	sh	a5,12(s0)
    894e:	b7dd                	j	8934 <__ssrefill_r+0x28>

00008950 <__ssvfiscanf_r>:
__ssvfscanf_r():
    8950:	d2010113          	addi	sp,sp,-736
    8954:	00000797          	auipc	a5,0x0
    8958:	f2278793          	addi	a5,a5,-222 # 8876 <_sungetc_r>
    895c:	2d312623          	sw	s3,716(sp)
    8960:	28f12c23          	sw	a5,664(sp)
    8964:	01c10993          	addi	s3,sp,28
    8968:	00000797          	auipc	a5,0x0
    896c:	fa478793          	addi	a5,a5,-92 # 890c <__ssrefill_r>
    8970:	2c812c23          	sw	s0,728(sp)
    8974:	2c912a23          	sw	s1,724(sp)
    8978:	2d212823          	sw	s2,720(sp)
    897c:	2d412423          	sw	s4,712(sp)
    8980:	2d512223          	sw	s5,708(sp)
    8984:	2d612023          	sw	s6,704(sp)
    8988:	2b712e23          	sw	s7,700(sp)
    898c:	2b812c23          	sw	s8,696(sp)
    8990:	2c112e23          	sw	ra,732(sp)
    8994:	2b912a23          	sw	s9,692(sp)
    8998:	2ba12823          	sw	s10,688(sp)
    899c:	2bb12623          	sw	s11,684(sp)
    89a0:	84aa                	mv	s1,a0
    89a2:	842e                	mv	s0,a1
    89a4:	12012423          	sw	zero,296(sp)
    89a8:	12012623          	sw	zero,300(sp)
    89ac:	13312823          	sw	s3,304(sp)
    89b0:	28f12e23          	sw	a5,668(sp)
    89b4:	cc36                	sw	a3,24(sp)
    89b6:	02500a13          	li	s4,37
    89ba:	02a00b13          	li	s6,42
    89be:	4ba5                	li	s7,9
    89c0:	4929                	li	s2,10
    89c2:	00001a97          	auipc	s5,0x1
    89c6:	41ea8a93          	addi	s5,s5,1054 # 9de0 <_ctype_+0x104>
    89ca:	ffff7c17          	auipc	s8,0xffff7
    89ce:	636c0c13          	addi	s8,s8,1590 # 0 <_sinit>
    89d2:	221c                	lbu	a5,0(a2)
    89d4:	c632                	sw	a2,12(sp)
    89d6:	30078b63          	beqz	a5,8cec <__ssvfiscanf_r+0x39c>
    89da:	89dff0ef          	jal	ra,8276 <__locale_ctype_ptr>
    89de:	4632                	lw	a2,12(sp)
    89e0:	00064d83          	lbu	s11,0(a2)
    89e4:	00160c93          	addi	s9,a2,1
    89e8:	956e                	add	a0,a0,s11
    89ea:	311c                	lbu	a5,1(a0)
    89ec:	8ba1                	andi	a5,a5,8
    89ee:	c3a1                	beqz	a5,8a2e <__ssvfiscanf_r+0xde>
    89f0:	405c                	lw	a5,4(s0)
    89f2:	02f05763          	blez	a5,8a20 <__ssvfiscanf_r+0xd0>
    89f6:	881ff0ef          	jal	ra,8276 <__locale_ctype_ptr>
    89fa:	401c                	lw	a5,0(s0)
    89fc:	2398                	lbu	a4,0(a5)
    89fe:	953a                	add	a0,a0,a4
    8a00:	3118                	lbu	a4,1(a0)
    8a02:	8b21                	andi	a4,a4,8
    8a04:	e319                	bnez	a4,8a0a <__ssvfiscanf_r+0xba>
    8a06:	8666                	mv	a2,s9
    8a08:	b7e9                	j	89d2 <__ssvfiscanf_r+0x82>
    8a0a:	12c12703          	lw	a4,300(sp)
    8a0e:	0785                	addi	a5,a5,1
    8a10:	c01c                	sw	a5,0(s0)
    8a12:	0705                	addi	a4,a4,1
    8a14:	12e12623          	sw	a4,300(sp)
    8a18:	4058                	lw	a4,4(s0)
    8a1a:	177d                	addi	a4,a4,-1
    8a1c:	c058                	sw	a4,4(s0)
    8a1e:	bfc9                	j	89f0 <__ssvfiscanf_r+0xa0>
    8a20:	29c12783          	lw	a5,668(sp)
    8a24:	85a2                	mv	a1,s0
    8a26:	8526                	mv	a0,s1
    8a28:	9782                	jalr	a5
    8a2a:	d571                	beqz	a0,89f6 <__ssvfiscanf_r+0xa6>
    8a2c:	bfe9                	j	8a06 <__ssvfiscanf_r+0xb6>
    8a2e:	174d9763          	bne	s11,s4,8b9c <__ssvfiscanf_r+0x24c>
    8a32:	12012223          	sw	zero,292(sp)
    8a36:	10012e23          	sw	zero,284(sp)
    8a3a:	321c                	lbu	a5,1(a2)
    8a3c:	01679763          	bne	a5,s6,8a4a <__ssvfiscanf_r+0xfa>
    8a40:	47c1                	li	a5,16
    8a42:	10f12e23          	sw	a5,284(sp)
    8a46:	00260c93          	addi	s9,a2,2
    8a4a:	000cc583          	lbu	a1,0(s9)
    8a4e:	8d66                	mv	s10,s9
    8a50:	0c85                	addi	s9,s9,1
    8a52:	fd058793          	addi	a5,a1,-48
    8a56:	06fbf063          	bgeu	s7,a5,8ab6 <__ssvfiscanf_r+0x166>
    8a5a:	460d                	li	a2,3
    8a5c:	8556                	mv	a0,s5
    8a5e:	04b000ef          	jal	ra,92a8 <memchr>
    8a62:	cd01                	beqz	a0,8a7a <__ssvfiscanf_r+0x12a>
    8a64:	41550533          	sub	a0,a0,s5
    8a68:	4785                	li	a5,1
    8a6a:	00a797b3          	sll	a5,a5,a0
    8a6e:	11c12503          	lw	a0,284(sp)
    8a72:	8d66                	mv	s10,s9
    8a74:	8d5d                	or	a0,a0,a5
    8a76:	10a12e23          	sw	a0,284(sp)
    8a7a:	000d4783          	lbu	a5,0(s10)
    8a7e:	06700713          	li	a4,103
    8a82:	001d0c93          	addi	s9,s10,1
    8a86:	08f76663          	bltu	a4,a5,8b12 <__ssvfiscanf_r+0x1c2>
    8a8a:	06500713          	li	a4,101
    8a8e:	1ae7fb63          	bgeu	a5,a4,8c44 <__ssvfiscanf_r+0x2f4>
    8a92:	04700713          	li	a4,71
    8a96:	02f76a63          	bltu	a4,a5,8aca <__ssvfiscanf_r+0x17a>
    8a9a:	04500713          	li	a4,69
    8a9e:	1ae7f363          	bgeu	a5,a4,8c44 <__ssvfiscanf_r+0x2f4>
    8aa2:	12078863          	beqz	a5,8bd2 <__ssvfiscanf_r+0x282>
    8aa6:	0f478b63          	beq	a5,s4,8b9c <__ssvfiscanf_r+0x24c>
    8aaa:	478d                	li	a5,3
    8aac:	12f12a23          	sw	a5,308(sp)
    8ab0:	13212023          	sw	s2,288(sp)
    8ab4:	a061                	j	8b3c <__ssvfiscanf_r+0x1ec>
    8ab6:	12412783          	lw	a5,292(sp)
    8aba:	02f907b3          	mul	a5,s2,a5
    8abe:	fd078793          	addi	a5,a5,-48
    8ac2:	97ae                	add	a5,a5,a1
    8ac4:	12f12223          	sw	a5,292(sp)
    8ac8:	b749                	j	8a4a <__ssvfiscanf_r+0xfa>
    8aca:	05b00713          	li	a4,91
    8ace:	12e78063          	beq	a5,a4,8bee <__ssvfiscanf_r+0x29e>
    8ad2:	02f76563          	bltu	a4,a5,8afc <__ssvfiscanf_r+0x1ac>
    8ad6:	05800713          	li	a4,88
    8ada:	fce798e3          	bne	a5,a4,8aaa <__ssvfiscanf_r+0x15a>
    8ade:	11c12703          	lw	a4,284(sp)
    8ae2:	20076713          	ori	a4,a4,512
    8ae6:	10e12e23          	sw	a4,284(sp)
    8aea:	4741                	li	a4,16
    8aec:	12e12023          	sw	a4,288(sp)
    8af0:	06e00713          	li	a4,110
    8af4:	00f737b3          	sltu	a5,a4,a5
    8af8:	078d                	addi	a5,a5,3
    8afa:	a83d                	j	8b38 <__ssvfiscanf_r+0x1e8>
    8afc:	06300713          	li	a4,99
    8b00:	10e78363          	beq	a5,a4,8c06 <__ssvfiscanf_r+0x2b6>
    8b04:	06400713          	li	a4,100
    8b08:	fae791e3          	bne	a5,a4,8aaa <__ssvfiscanf_r+0x15a>
    8b0c:	13212023          	sw	s2,288(sp)
    8b10:	b7c5                	j	8af0 <__ssvfiscanf_r+0x1a0>
    8b12:	07000713          	li	a4,112
    8b16:	0ce78063          	beq	a5,a4,8bd6 <__ssvfiscanf_r+0x286>
    8b1a:	06f76363          	bltu	a4,a5,8b80 <__ssvfiscanf_r+0x230>
    8b1e:	06e00713          	li	a4,110
    8b22:	0ee78b63          	beq	a5,a4,8c18 <__ssvfiscanf_r+0x2c8>
    8b26:	0af76f63          	bltu	a4,a5,8be4 <__ssvfiscanf_r+0x294>
    8b2a:	06900713          	li	a4,105
    8b2e:	f6e79ee3          	bne	a5,a4,8aaa <__ssvfiscanf_r+0x15a>
    8b32:	12012023          	sw	zero,288(sp)
    8b36:	478d                	li	a5,3
    8b38:	12f12a23          	sw	a5,308(sp)
    8b3c:	405c                	lw	a5,4(s0)
    8b3e:	10f05563          	blez	a5,8c48 <__ssvfiscanf_r+0x2f8>
    8b42:	11c12783          	lw	a5,284(sp)
    8b46:	0407f793          	andi	a5,a5,64
    8b4a:	eb91                	bnez	a5,8b5e <__ssvfiscanf_r+0x20e>
    8b4c:	f2aff0ef          	jal	ra,8276 <__locale_ctype_ptr>
    8b50:	401c                	lw	a5,0(s0)
    8b52:	2398                	lbu	a4,0(a5)
    8b54:	953a                	add	a0,a0,a4
    8b56:	3118                	lbu	a4,1(a0)
    8b58:	8b21                	andi	a4,a4,8
    8b5a:	0e071f63          	bnez	a4,8c58 <__ssvfiscanf_r+0x308>
    8b5e:	13412783          	lw	a5,308(sp)
    8b62:	4709                	li	a4,2
    8b64:	10f74f63          	blt	a4,a5,8c82 <__ssvfiscanf_r+0x332>
    8b68:	0834                	addi	a3,sp,24
    8b6a:	8622                	mv	a2,s0
    8b6c:	0a6c                	addi	a1,sp,284
    8b6e:	8526                	mv	a0,s1
    8b70:	2249                	jal	8cf2 <_scanf_chars>
    8b72:	4785                	li	a5,1
    8b74:	16f50c63          	beq	a0,a5,8cec <__ssvfiscanf_r+0x39c>
    8b78:	4789                	li	a5,2
    8b7a:	e8f516e3          	bne	a0,a5,8a06 <__ssvfiscanf_r+0xb6>
    8b7e:	a0b9                	j	8bcc <__ssvfiscanf_r+0x27c>
    8b80:	07500713          	li	a4,117
    8b84:	f8e784e3          	beq	a5,a4,8b0c <__ssvfiscanf_r+0x1bc>
    8b88:	07800713          	li	a4,120
    8b8c:	f4e789e3          	beq	a5,a4,8ade <__ssvfiscanf_r+0x18e>
    8b90:	07300713          	li	a4,115
    8b94:	f0e79be3          	bne	a5,a4,8aaa <__ssvfiscanf_r+0x15a>
    8b98:	4789                	li	a5,2
    8b9a:	bf79                	j	8b38 <__ssvfiscanf_r+0x1e8>
    8b9c:	405c                	lw	a5,4(s0)
    8b9e:	02f05163          	blez	a5,8bc0 <__ssvfiscanf_r+0x270>
    8ba2:	401c                	lw	a5,0(s0)
    8ba4:	2398                	lbu	a4,0(a5)
    8ba6:	15b71363          	bne	a4,s11,8cec <__ssvfiscanf_r+0x39c>
    8baa:	0785                	addi	a5,a5,1
    8bac:	4058                	lw	a4,4(s0)
    8bae:	c01c                	sw	a5,0(s0)
    8bb0:	12c12783          	lw	a5,300(sp)
    8bb4:	177d                	addi	a4,a4,-1
    8bb6:	c058                	sw	a4,4(s0)
    8bb8:	0785                	addi	a5,a5,1
    8bba:	12f12623          	sw	a5,300(sp)
    8bbe:	b5a1                	j	8a06 <__ssvfiscanf_r+0xb6>
    8bc0:	29c12783          	lw	a5,668(sp)
    8bc4:	85a2                	mv	a1,s0
    8bc6:	8526                	mv	a0,s1
    8bc8:	9782                	jalr	a5
    8bca:	dd61                	beqz	a0,8ba2 <__ssvfiscanf_r+0x252>
    8bcc:	12812503          	lw	a0,296(sp)
    8bd0:	ed69                	bnez	a0,8caa <__ssvfiscanf_r+0x35a>
    8bd2:	557d                	li	a0,-1
    8bd4:	a8f9                	j	8cb2 <__ssvfiscanf_r+0x362>
    8bd6:	11c12703          	lw	a4,284(sp)
    8bda:	02076713          	ori	a4,a4,32
    8bde:	10e12e23          	sw	a4,284(sp)
    8be2:	bdf5                	j	8ade <__ssvfiscanf_r+0x18e>
    8be4:	47a1                	li	a5,8
    8be6:	12f12023          	sw	a5,288(sp)
    8bea:	4791                	li	a5,4
    8bec:	b7b1                	j	8b38 <__ssvfiscanf_r+0x1e8>
    8bee:	85e6                	mv	a1,s9
    8bf0:	854e                	mv	a0,s3
    8bf2:	21ad                	jal	905c <__sccl>
    8bf4:	11c12783          	lw	a5,284(sp)
    8bf8:	8caa                	mv	s9,a0
    8bfa:	0407e793          	ori	a5,a5,64
    8bfe:	10f12e23          	sw	a5,284(sp)
    8c02:	4785                	li	a5,1
    8c04:	bf15                	j	8b38 <__ssvfiscanf_r+0x1e8>
    8c06:	11c12783          	lw	a5,284(sp)
    8c0a:	12012a23          	sw	zero,308(sp)
    8c0e:	0407e793          	ori	a5,a5,64
    8c12:	10f12e23          	sw	a5,284(sp)
    8c16:	b71d                	j	8b3c <__ssvfiscanf_r+0x1ec>
    8c18:	11c12783          	lw	a5,284(sp)
    8c1c:	0107f713          	andi	a4,a5,16
    8c20:	de0713e3          	bnez	a4,8a06 <__ssvfiscanf_r+0xb6>
    8c24:	4762                	lw	a4,24(sp)
    8c26:	0017f593          	andi	a1,a5,1
    8c2a:	12c12683          	lw	a3,300(sp)
    8c2e:	00470613          	addi	a2,a4,4
    8c32:	c589                	beqz	a1,8c3c <__ssvfiscanf_r+0x2ec>
    8c34:	cc32                	sw	a2,24(sp)
    8c36:	431c                	lw	a5,0(a4)
    8c38:	a396                	sh	a3,0(a5)
    8c3a:	b3f1                	j	8a06 <__ssvfiscanf_r+0xb6>
    8c3c:	cc32                	sw	a2,24(sp)
    8c3e:	431c                	lw	a5,0(a4)
    8c40:	c394                	sw	a3,0(a5)
    8c42:	b3d1                	j	8a06 <__ssvfiscanf_r+0xb6>
    8c44:	4795                	li	a5,5
    8c46:	bdcd                	j	8b38 <__ssvfiscanf_r+0x1e8>
    8c48:	29c12783          	lw	a5,668(sp)
    8c4c:	85a2                	mv	a1,s0
    8c4e:	8526                	mv	a0,s1
    8c50:	9782                	jalr	a5
    8c52:	ee0508e3          	beqz	a0,8b42 <__ssvfiscanf_r+0x1f2>
    8c56:	bf9d                	j	8bcc <__ssvfiscanf_r+0x27c>
    8c58:	12c12703          	lw	a4,300(sp)
    8c5c:	0705                	addi	a4,a4,1
    8c5e:	12e12623          	sw	a4,300(sp)
    8c62:	4058                	lw	a4,4(s0)
    8c64:	177d                	addi	a4,a4,-1
    8c66:	c058                	sw	a4,4(s0)
    8c68:	00e05563          	blez	a4,8c72 <__ssvfiscanf_r+0x322>
    8c6c:	0785                	addi	a5,a5,1
    8c6e:	c01c                	sw	a5,0(s0)
    8c70:	bdf1                	j	8b4c <__ssvfiscanf_r+0x1fc>
    8c72:	29c12783          	lw	a5,668(sp)
    8c76:	85a2                	mv	a1,s0
    8c78:	8526                	mv	a0,s1
    8c7a:	9782                	jalr	a5
    8c7c:	ec0508e3          	beqz	a0,8b4c <__ssvfiscanf_r+0x1fc>
    8c80:	b7b1                	j	8bcc <__ssvfiscanf_r+0x27c>
    8c82:	4711                	li	a4,4
    8c84:	00f74863          	blt	a4,a5,8c94 <__ssvfiscanf_r+0x344>
    8c88:	0834                	addi	a3,sp,24
    8c8a:	8622                	mv	a2,s0
    8c8c:	0a6c                	addi	a1,sp,284
    8c8e:	8526                	mv	a0,s1
    8c90:	2291                	jal	8dd4 <_scanf_i>
    8c92:	b5c5                	j	8b72 <__ssvfiscanf_r+0x222>
    8c94:	d60c09e3          	beqz	s8,8a06 <__ssvfiscanf_r+0xb6>
    8c98:	0834                	addi	a3,sp,24
    8c9a:	8622                	mv	a2,s0
    8c9c:	0a6c                	addi	a1,sp,284
    8c9e:	8526                	mv	a0,s1
    8ca0:	00000097          	auipc	ra,0x0
    8ca4:	000000e7          	jalr	zero # 0 <_sinit>
    8ca8:	b5e9                	j	8b72 <__ssvfiscanf_r+0x222>
    8caa:	245e                	lhu	a5,12(s0)
    8cac:	0407f793          	andi	a5,a5,64
    8cb0:	f38d                	bnez	a5,8bd2 <__ssvfiscanf_r+0x282>
    8cb2:	2dc12083          	lw	ra,732(sp)
    8cb6:	2d812403          	lw	s0,728(sp)
    8cba:	2d412483          	lw	s1,724(sp)
    8cbe:	2d012903          	lw	s2,720(sp)
    8cc2:	2cc12983          	lw	s3,716(sp)
    8cc6:	2c812a03          	lw	s4,712(sp)
    8cca:	2c412a83          	lw	s5,708(sp)
    8cce:	2c012b03          	lw	s6,704(sp)
    8cd2:	2bc12b83          	lw	s7,700(sp)
    8cd6:	2b812c03          	lw	s8,696(sp)
    8cda:	2b412c83          	lw	s9,692(sp)
    8cde:	2b012d03          	lw	s10,688(sp)
    8ce2:	2ac12d83          	lw	s11,684(sp)
    8ce6:	2e010113          	addi	sp,sp,736
    8cea:	8082                	ret
    8cec:	12812503          	lw	a0,296(sp)
    8cf0:	b7c9                	j	8cb2 <__ssvfiscanf_r+0x362>

00008cf2 <_scanf_chars>:
_scanf_chars():
    8cf2:	459c                	lw	a5,8(a1)
    8cf4:	1101                	addi	sp,sp,-32
    8cf6:	cc22                	sw	s0,24(sp)
    8cf8:	ca26                	sw	s1,20(sp)
    8cfa:	c452                	sw	s4,8(sp)
    8cfc:	ce06                	sw	ra,28(sp)
    8cfe:	c84a                	sw	s2,16(sp)
    8d00:	c64e                	sw	s3,12(sp)
    8d02:	c256                	sw	s5,4(sp)
    8d04:	c05a                	sw	s6,0(sp)
    8d06:	8a2a                	mv	s4,a0
    8d08:	842e                	mv	s0,a1
    8d0a:	84b2                	mv	s1,a2
    8d0c:	e791                	bnez	a5,8d18 <_scanf_chars+0x26>
    8d0e:	4d98                	lw	a4,24(a1)
    8d10:	4785                	li	a5,1
    8d12:	c311                	beqz	a4,8d16 <_scanf_chars+0x24>
    8d14:	57fd                	li	a5,-1
    8d16:	c41c                	sw	a5,8(s0)
    8d18:	401c                	lw	a5,0(s0)
    8d1a:	8bc1                	andi	a5,a5,16
    8d1c:	e799                	bnez	a5,8d2a <_scanf_chars+0x38>
    8d1e:	429c                	lw	a5,0(a3)
    8d20:	00478713          	addi	a4,a5,4
    8d24:	c298                	sw	a4,0(a3)
    8d26:	0007a983          	lw	s3,0(a5)
    8d2a:	4901                	li	s2,0
    8d2c:	4a85                	li	s5,1
    8d2e:	4b09                	li	s6,2
    8d30:	4c08                	lw	a0,24(s0)
    8d32:	c50d                	beqz	a0,8d5c <_scanf_chars+0x6a>
    8d34:	07551f63          	bne	a0,s5,8db2 <_scanf_chars+0xc0>
    8d38:	409c                	lw	a5,0(s1)
    8d3a:	2398                	lbu	a4,0(a5)
    8d3c:	485c                	lw	a5,20(s0)
    8d3e:	97ba                	add	a5,a5,a4
    8d40:	239c                	lbu	a5,0(a5)
    8d42:	ef89                	bnez	a5,8d5c <_scanf_chars+0x6a>
    8d44:	04091763          	bnez	s2,8d92 <_scanf_chars+0xa0>
    8d48:	40f2                	lw	ra,28(sp)
    8d4a:	4462                	lw	s0,24(sp)
    8d4c:	44d2                	lw	s1,20(sp)
    8d4e:	4942                	lw	s2,16(sp)
    8d50:	49b2                	lw	s3,12(sp)
    8d52:	4a22                	lw	s4,8(sp)
    8d54:	4a92                	lw	s5,4(sp)
    8d56:	4b02                	lw	s6,0(sp)
    8d58:	6105                	addi	sp,sp,32
    8d5a:	8082                	ret
    8d5c:	401c                	lw	a5,0(s0)
    8d5e:	0905                	addi	s2,s2,1
    8d60:	8bc1                	andi	a5,a5,16
    8d62:	e791                	bnez	a5,8d6e <_scanf_chars+0x7c>
    8d64:	409c                	lw	a5,0(s1)
    8d66:	0985                	addi	s3,s3,1
    8d68:	239c                	lbu	a5,0(a5)
    8d6a:	fef98fa3          	sb	a5,-1(s3)
    8d6e:	4098                	lw	a4,0(s1)
    8d70:	40dc                	lw	a5,4(s1)
    8d72:	0705                	addi	a4,a4,1
    8d74:	c098                	sw	a4,0(s1)
    8d76:	4418                	lw	a4,8(s0)
    8d78:	17fd                	addi	a5,a5,-1
    8d7a:	c0dc                	sw	a5,4(s1)
    8d7c:	177d                	addi	a4,a4,-1
    8d7e:	c418                	sw	a4,8(s0)
    8d80:	cb09                	beqz	a4,8d92 <_scanf_chars+0xa0>
    8d82:	faf047e3          	bgtz	a5,8d30 <_scanf_chars+0x3e>
    8d86:	18042783          	lw	a5,384(s0)
    8d8a:	85a6                	mv	a1,s1
    8d8c:	8552                	mv	a0,s4
    8d8e:	9782                	jalr	a5
    8d90:	d145                	beqz	a0,8d30 <_scanf_chars+0x3e>
    8d92:	401c                	lw	a5,0(s0)
    8d94:	8bc1                	andi	a5,a5,16
    8d96:	eb81                	bnez	a5,8da6 <_scanf_chars+0xb4>
    8d98:	445c                	lw	a5,12(s0)
    8d9a:	0785                	addi	a5,a5,1
    8d9c:	c45c                	sw	a5,12(s0)
    8d9e:	4c1c                	lw	a5,24(s0)
    8da0:	c399                	beqz	a5,8da6 <_scanf_chars+0xb4>
    8da2:	00098023          	sb	zero,0(s3)
    8da6:	481c                	lw	a5,16(s0)
    8da8:	4501                	li	a0,0
    8daa:	993e                	add	s2,s2,a5
    8dac:	01242823          	sw	s2,16(s0)
    8db0:	bf61                	j	8d48 <_scanf_chars+0x56>
    8db2:	01651a63          	bne	a0,s6,8dc6 <_scanf_chars+0xd4>
    8db6:	cc0ff0ef          	jal	ra,8276 <__locale_ctype_ptr>
    8dba:	409c                	lw	a5,0(s1)
    8dbc:	239c                	lbu	a5,0(a5)
    8dbe:	953e                	add	a0,a0,a5
    8dc0:	311c                	lbu	a5,1(a0)
    8dc2:	8ba1                	andi	a5,a5,8
    8dc4:	dfc1                	beqz	a5,8d5c <_scanf_chars+0x6a>
    8dc6:	fc0916e3          	bnez	s2,8d92 <_scanf_chars+0xa0>
    8dca:	4c08                	lw	a0,24(s0)
    8dcc:	4785                	li	a5,1
    8dce:	fcf512e3          	bne	a0,a5,8d92 <_scanf_chars+0xa0>
    8dd2:	bf9d                	j	8d48 <_scanf_chars+0x56>

00008dd4 <_scanf_i>:
_scanf_i():
    8dd4:	715d                	addi	sp,sp,-80
    8dd6:	00001797          	auipc	a5,0x1
    8dda:	02278793          	addi	a5,a5,34 # 9df8 <_ctype_+0x11c>
    8dde:	c0ca                	sw	s2,64(sp)
    8de0:	c23e                	sw	a5,4(sp)
    8de2:	8936                	mv	s2,a3
    8de4:	00001797          	auipc	a5,0x1
    8de8:	01878793          	addi	a5,a5,24 # 9dfc <_ctype_+0x120>
    8dec:	4d94                	lw	a3,24(a1)
    8dee:	c43e                	sw	a5,8(sp)
    8df0:	00001797          	auipc	a5,0x1
    8df4:	01078793          	addi	a5,a5,16 # 9e00 <_ctype_+0x124>
    8df8:	c4a2                	sw	s0,72(sp)
    8dfa:	de4e                	sw	s3,60(sp)
    8dfc:	d85a                	sw	s6,48(sp)
    8dfe:	ce6e                	sw	s11,28(sp)
    8e00:	c63e                	sw	a5,12(sp)
    8e02:	c686                	sw	ra,76(sp)
    8e04:	c2a6                	sw	s1,68(sp)
    8e06:	dc52                	sw	s4,56(sp)
    8e08:	da56                	sw	s5,52(sp)
    8e0a:	d65e                	sw	s7,44(sp)
    8e0c:	d462                	sw	s8,40(sp)
    8e0e:	d266                	sw	s9,36(sp)
    8e10:	d06a                	sw	s10,32(sp)
    8e12:	478d                	li	a5,3
    8e14:	89aa                	mv	s3,a0
    8e16:	842e                	mv	s0,a1
    8e18:	8db2                	mv	s11,a2
    8e1a:	00000b17          	auipc	s6,0x0
    8e1e:	3f4b0b13          	addi	s6,s6,1012 # 920e <_strtoul_r>
    8e22:	00f69663          	bne	a3,a5,8e2e <_scanf_i+0x5a>
    8e26:	00000b17          	auipc	s6,0x0
    8e2a:	872b0b13          	addi	s6,s6,-1934 # 8698 <_strtol_r>
    8e2e:	441c                	lw	a5,8(s0)
    8e30:	15c00693          	li	a3,348
    8e34:	4a01                	li	s4,0
    8e36:	fff78613          	addi	a2,a5,-1
    8e3a:	00c6f763          	bgeu	a3,a2,8e48 <_scanf_i+0x74>
    8e3e:	ea378a13          	addi	s4,a5,-349
    8e42:	15d00793          	li	a5,349
    8e46:	c41c                	sw	a5,8(s0)
    8e48:	401c                	lw	a5,0(s0)
    8e4a:	6685                	lui	a3,0x1
    8e4c:	d0068693          	addi	a3,a3,-768 # d00 <WCHNET_UdpServerRecv+0x8>
    8e50:	01c40493          	addi	s1,s0,28
    8e54:	8fd5                	or	a5,a5,a3
    8e56:	c01c                	sw	a5,0(s0)
    8e58:	00410c13          	addi	s8,sp,4
    8e5c:	8aa6                	mv	s5,s1
    8e5e:	4b81                	li	s7,0
    8e60:	20000c93          	li	s9,512
    8e64:	000da783          	lw	a5,0(s11)
    8e68:	000c2503          	lw	a0,0(s8)
    8e6c:	4609                	li	a2,2
    8e6e:	238c                	lbu	a1,0(a5)
    8e70:	2925                	jal	92a8 <memchr>
    8e72:	cd39                	beqz	a0,8ed0 <_scanf_i+0xfc>
    8e74:	4785                	li	a5,1
    8e76:	0cfb9e63          	bne	s7,a5,8f52 <_scanf_i+0x17e>
    8e7a:	405c                	lw	a5,4(s0)
    8e7c:	e799                	bnez	a5,8e8a <_scanf_i+0xb6>
    8e7e:	401c                	lw	a5,0(s0)
    8e80:	4721                	li	a4,8
    8e82:	c058                	sw	a4,4(s0)
    8e84:	2007e793          	ori	a5,a5,512
    8e88:	c01c                	sw	a5,0(s0)
    8e8a:	401c                	lw	a5,0(s0)
    8e8c:	aff7f793          	andi	a5,a5,-1281
    8e90:	c01c                	sw	a5,0(s0)
    8e92:	441c                	lw	a5,8(s0)
    8e94:	fff78613          	addi	a2,a5,-1
    8e98:	c410                	sw	a2,8(s0)
    8e9a:	cb9d                	beqz	a5,8ed0 <_scanf_i+0xfc>
    8e9c:	000da603          	lw	a2,0(s11)
    8ea0:	001a8d13          	addi	s10,s5,1
    8ea4:	00160793          	addi	a5,a2,1
    8ea8:	00fda023          	sw	a5,0(s11)
    8eac:	2210                	lbu	a2,0(a2)
    8eae:	00ca8023          	sb	a2,0(s5)
    8eb2:	004da603          	lw	a2,4(s11)
    8eb6:	8aea                	mv	s5,s10
    8eb8:	167d                	addi	a2,a2,-1
    8eba:	00cda223          	sw	a2,4(s11)
    8ebe:	00c04963          	bgtz	a2,8ed0 <_scanf_i+0xfc>
    8ec2:	18042603          	lw	a2,384(s0)
    8ec6:	85ee                	mv	a1,s11
    8ec8:	854e                	mv	a0,s3
    8eca:	9602                	jalr	a2
    8ecc:	10051863          	bnez	a0,8fdc <_scanf_i+0x208>
    8ed0:	0b85                	addi	s7,s7,1
    8ed2:	478d                	li	a5,3
    8ed4:	0c11                	addi	s8,s8,4
    8ed6:	f8fb97e3          	bne	s7,a5,8e64 <_scanf_i+0x90>
    8eda:	405c                	lw	a5,4(s0)
    8edc:	e399                	bnez	a5,8ee2 <_scanf_i+0x10e>
    8ede:	47a9                	li	a5,10
    8ee0:	c05c                	sw	a5,4(s0)
    8ee2:	405c                	lw	a5,4(s0)
    8ee4:	4848                	lw	a0,20(s0)
    8ee6:	00001597          	auipc	a1,0x1
    8eea:	f0e58593          	addi	a1,a1,-242 # 9df4 <_ctype_+0x118>
    8eee:	8d9d                	sub	a1,a1,a5
    8ef0:	7bfd                	lui	s7,0xfffff
    8ef2:	6c05                	lui	s8,0x1
    8ef4:	8d56                	mv	s10,s5
    8ef6:	229d                	jal	905c <__sccl>
    8ef8:	4a81                	li	s5,0
    8efa:	03000c93          	li	s9,48
    8efe:	6ffb8b93          	addi	s7,s7,1791 # fffff6ff <_eusrstack+0xdffef6ff>
    8f02:	800c0c13          	addi	s8,s8,-2048 # 800 <__stack_size>
    8f06:	4414                	lw	a3,8(s0)
    8f08:	4010                	lw	a2,0(s0)
    8f0a:	cebd                	beqz	a3,8f88 <_scanf_i+0x1b4>
    8f0c:	000da503          	lw	a0,0(s11)
    8f10:	484c                	lw	a1,20(s0)
    8f12:	00054803          	lbu	a6,0(a0)
    8f16:	95c2                	add	a1,a1,a6
    8f18:	218c                	lbu	a1,0(a1)
    8f1a:	c5bd                	beqz	a1,8f88 <_scanf_i+0x1b4>
    8f1c:	05981863          	bne	a6,s9,8f6c <_scanf_i+0x198>
    8f20:	018675b3          	and	a1,a2,s8
    8f24:	c5a1                	beqz	a1,8f6c <_scanf_i+0x198>
    8f26:	0a85                	addi	s5,s5,1
    8f28:	000a0563          	beqz	s4,8f32 <_scanf_i+0x15e>
    8f2c:	0685                	addi	a3,a3,1
    8f2e:	1a7d                	addi	s4,s4,-1
    8f30:	c414                	sw	a3,8(s0)
    8f32:	004da683          	lw	a3,4(s11)
    8f36:	16fd                	addi	a3,a3,-1
    8f38:	00dda223          	sw	a3,4(s11)
    8f3c:	04d05063          	blez	a3,8f7c <_scanf_i+0x1a8>
    8f40:	000da683          	lw	a3,0(s11)
    8f44:	0685                	addi	a3,a3,1
    8f46:	00dda023          	sw	a3,0(s11)
    8f4a:	4414                	lw	a3,8(s0)
    8f4c:	16fd                	addi	a3,a3,-1
    8f4e:	c414                	sw	a3,8(s0)
    8f50:	bf5d                	j	8f06 <_scanf_i+0x132>
    8f52:	4789                	li	a5,2
    8f54:	f2fb9fe3          	bne	s7,a5,8e92 <_scanf_i+0xbe>
    8f58:	401c                	lw	a5,0(s0)
    8f5a:	6007f613          	andi	a2,a5,1536
    8f5e:	f79619e3          	bne	a2,s9,8ed0 <_scanf_i+0xfc>
    8f62:	4741                	li	a4,16
    8f64:	c058                	sw	a4,4(s0)
    8f66:	1007e793          	ori	a5,a5,256
    8f6a:	b71d                	j	8e90 <_scanf_i+0xbc>
    8f6c:	01767633          	and	a2,a2,s7
    8f70:	c010                	sw	a2,0(s0)
    8f72:	2114                	lbu	a3,0(a0)
    8f74:	0d05                	addi	s10,s10,1
    8f76:	fedd0fa3          	sb	a3,-1(s10)
    8f7a:	bf65                	j	8f32 <_scanf_i+0x15e>
    8f7c:	18042683          	lw	a3,384(s0)
    8f80:	85ee                	mv	a1,s11
    8f82:	854e                	mv	a0,s3
    8f84:	9682                	jalr	a3
    8f86:	d171                	beqz	a0,8f4a <_scanf_i+0x176>
    8f88:	4014                	lw	a3,0(s0)
    8f8a:	1006f693          	andi	a3,a3,256
    8f8e:	c285                	beqz	a3,8fae <_scanf_i+0x1da>
    8f90:	01a4fc63          	bgeu	s1,s10,8fa8 <_scanf_i+0x1d4>
    8f94:	fffd4583          	lbu	a1,-1(s10)
    8f98:	17c42683          	lw	a3,380(s0)
    8f9c:	fffd0a13          	addi	s4,s10,-1
    8fa0:	866e                	mv	a2,s11
    8fa2:	854e                	mv	a0,s3
    8fa4:	9682                	jalr	a3
    8fa6:	8d52                	mv	s10,s4
    8fa8:	4505                	li	a0,1
    8faa:	049d0e63          	beq	s10,s1,9006 <_scanf_i+0x232>
    8fae:	4018                	lw	a4,0(s0)
    8fb0:	8b41                	andi	a4,a4,16
    8fb2:	e339                	bnez	a4,8ff8 <_scanf_i+0x224>
    8fb4:	000d0023          	sb	zero,0(s10)
    8fb8:	4054                	lw	a3,4(s0)
    8fba:	4601                	li	a2,0
    8fbc:	85a6                	mv	a1,s1
    8fbe:	854e                	mv	a0,s3
    8fc0:	9b02                	jalr	s6
    8fc2:	4014                	lw	a3,0(s0)
    8fc4:	00092703          	lw	a4,0(s2)
    8fc8:	0206f613          	andi	a2,a3,32
    8fcc:	ca11                	beqz	a2,8fe0 <_scanf_i+0x20c>
    8fce:	00470693          	addi	a3,a4,4
    8fd2:	00d92023          	sw	a3,0(s2)
    8fd6:	4318                	lw	a4,0(a4)
    8fd8:	c308                	sw	a0,0(a4)
    8fda:	a821                	j	8ff2 <_scanf_i+0x21e>
    8fdc:	4a81                	li	s5,0
    8fde:	b76d                	j	8f88 <_scanf_i+0x1b4>
    8fe0:	0016f593          	andi	a1,a3,1
    8fe4:	00470613          	addi	a2,a4,4
    8fe8:	cd95                	beqz	a1,9024 <_scanf_i+0x250>
    8fea:	00c92023          	sw	a2,0(s2)
    8fee:	4318                	lw	a4,0(a4)
    8ff0:	a30a                	sh	a0,0(a4)
    8ff2:	4458                	lw	a4,12(s0)
    8ff4:	0705                	addi	a4,a4,1
    8ff6:	c458                	sw	a4,12(s0)
    8ff8:	481c                	lw	a5,16(s0)
    8ffa:	409d04b3          	sub	s1,s10,s1
    8ffe:	94d6                	add	s1,s1,s5
    9000:	94be                	add	s1,s1,a5
    9002:	c804                	sw	s1,16(s0)
    9004:	4501                	li	a0,0
    9006:	40b6                	lw	ra,76(sp)
    9008:	4426                	lw	s0,72(sp)
    900a:	4496                	lw	s1,68(sp)
    900c:	4906                	lw	s2,64(sp)
    900e:	59f2                	lw	s3,60(sp)
    9010:	5a62                	lw	s4,56(sp)
    9012:	5ad2                	lw	s5,52(sp)
    9014:	5b42                	lw	s6,48(sp)
    9016:	5bb2                	lw	s7,44(sp)
    9018:	5c22                	lw	s8,40(sp)
    901a:	5c92                	lw	s9,36(sp)
    901c:	5d02                	lw	s10,32(sp)
    901e:	4df2                	lw	s11,28(sp)
    9020:	6161                	addi	sp,sp,80
    9022:	8082                	ret
    9024:	00c92023          	sw	a2,0(s2)
    9028:	b77d                	j	8fd6 <_scanf_i+0x202>

0000902a <_sbrk_r>:
_sbrk_r():
    902a:	1141                	addi	sp,sp,-16
    902c:	c422                	sw	s0,8(sp)
    902e:	842a                	mv	s0,a0
    9030:	852e                	mv	a0,a1
    9032:	1fffd797          	auipc	a5,0x1fffd
    9036:	7607ab23          	sw	zero,1910(a5) # 200067a8 <errno>
    903a:	c606                	sw	ra,12(sp)
    903c:	a80f90ef          	jal	ra,22bc <_sbrk>
    9040:	57fd                	li	a5,-1
    9042:	00f51963          	bne	a0,a5,9054 <_sbrk_r+0x2a>
    9046:	1fffd797          	auipc	a5,0x1fffd
    904a:	76278793          	addi	a5,a5,1890 # 200067a8 <errno>
    904e:	439c                	lw	a5,0(a5)
    9050:	c391                	beqz	a5,9054 <_sbrk_r+0x2a>
    9052:	c01c                	sw	a5,0(s0)
    9054:	40b2                	lw	ra,12(sp)
    9056:	4422                	lw	s0,8(sp)
    9058:	0141                	addi	sp,sp,16
    905a:	8082                	ret

0000905c <__sccl>:
__sccl():
    905c:	219c                	lbu	a5,0(a1)
    905e:	05e00713          	li	a4,94
    9062:	04e78663          	beq	a5,a4,90ae <__sccl+0x52>
    9066:	00158713          	addi	a4,a1,1
    906a:	4681                	li	a3,0
    906c:	4601                	li	a2,0
    906e:	10000593          	li	a1,256
    9072:	00c50833          	add	a6,a0,a2
    9076:	00d80023          	sb	a3,0(a6)
    907a:	0605                	addi	a2,a2,1
    907c:	feb61be3          	bne	a2,a1,9072 <__sccl+0x16>
    9080:	fff70613          	addi	a2,a4,-1
    9084:	c39d                	beqz	a5,90aa <__sccl+0x4e>
    9086:	0016c693          	xori	a3,a3,1
    908a:	02d00893          	li	a7,45
    908e:	05d00813          	li	a6,93
    9092:	00f50633          	add	a2,a0,a5
    9096:	a214                	sb	a3,0(a2)
    9098:	230c                	lbu	a1,0(a4)
    909a:	00170613          	addi	a2,a4,1
    909e:	03158363          	beq	a1,a7,90c4 <__sccl+0x68>
    90a2:	01058463          	beq	a1,a6,90aa <__sccl+0x4e>
    90a6:	e989                	bnez	a1,90b8 <__sccl+0x5c>
    90a8:	863a                	mv	a2,a4
    90aa:	8532                	mv	a0,a2
    90ac:	8082                	ret
    90ae:	00258713          	addi	a4,a1,2
    90b2:	319c                	lbu	a5,1(a1)
    90b4:	4685                	li	a3,1
    90b6:	bf5d                	j	906c <__sccl+0x10>
    90b8:	87ae                	mv	a5,a1
    90ba:	8732                	mv	a4,a2
    90bc:	bfd9                	j	9092 <__sccl+0x36>
    90be:	02d00793          	li	a5,45
    90c2:	bfe5                	j	90ba <__sccl+0x5e>
    90c4:	330c                	lbu	a1,1(a4)
    90c6:	ff058ce3          	beq	a1,a6,90be <__sccl+0x62>
    90ca:	fef5cae3          	blt	a1,a5,90be <__sccl+0x62>
    90ce:	0709                	addi	a4,a4,2
    90d0:	0785                	addi	a5,a5,1
    90d2:	00f50633          	add	a2,a0,a5
    90d6:	a214                	sb	a3,0(a2)
    90d8:	feb7cce3          	blt	a5,a1,90d0 <__sccl+0x74>
    90dc:	bf75                	j	9098 <__sccl+0x3c>

000090de <_strtoul_l.isra.0>:
_strtoul_l.isra.0():
    90de:	7179                	addi	sp,sp,-48
    90e0:	d04a                	sw	s2,32(sp)
    90e2:	ce4e                	sw	s3,28(sp)
    90e4:	d606                	sw	ra,44(sp)
    90e6:	d422                	sw	s0,40(sp)
    90e8:	d226                	sw	s1,36(sp)
    90ea:	89aa                	mv	s3,a0
    90ec:	892e                	mv	s2,a1
    90ee:	00190493          	addi	s1,s2,1
    90f2:	fff4c403          	lbu	s0,-1(s1)
    90f6:	853a                	mv	a0,a4
    90f8:	c636                	sw	a3,12(sp)
    90fa:	c432                	sw	a2,8(sp)
    90fc:	c22e                	sw	a1,4(sp)
    90fe:	c03a                	sw	a4,0(sp)
    9100:	970ff0ef          	jal	ra,8270 <__locale_ctype_ptr_l>
    9104:	9522                	add	a0,a0,s0
    9106:	311c                	lbu	a5,1(a0)
    9108:	4702                	lw	a4,0(sp)
    910a:	4592                	lw	a1,4(sp)
    910c:	8ba1                	andi	a5,a5,8
    910e:	4622                	lw	a2,8(sp)
    9110:	46b2                	lw	a3,12(sp)
    9112:	efa5                	bnez	a5,918a <_strtoul_l.isra.0+0xac>
    9114:	02d00793          	li	a5,45
    9118:	06f41b63          	bne	s0,a5,918e <_strtoul_l.isra.0+0xb0>
    911c:	209c                	lbu	a5,0(s1)
    911e:	4305                	li	t1,1
    9120:	00290493          	addi	s1,s2,2
    9124:	cef9                	beqz	a3,9202 <_strtoul_l.isra.0+0x124>
    9126:	4741                	li	a4,16
    9128:	02e69063          	bne	a3,a4,9148 <_strtoul_l.isra.0+0x6a>
    912c:	03000713          	li	a4,48
    9130:	00e79c63          	bne	a5,a4,9148 <_strtoul_l.isra.0+0x6a>
    9134:	209c                	lbu	a5,0(s1)
    9136:	05800713          	li	a4,88
    913a:	0df7f793          	andi	a5,a5,223
    913e:	0ae79d63          	bne	a5,a4,91f8 <_strtoul_l.isra.0+0x11a>
    9142:	309c                	lbu	a5,1(s1)
    9144:	46c1                	li	a3,16
    9146:	0489                	addi	s1,s1,2
    9148:	577d                	li	a4,-1
    914a:	02d75e33          	divu	t3,a4,a3
    914e:	4801                	li	a6,0
    9150:	4501                	li	a0,0
    9152:	4f25                	li	t5,9
    9154:	4ee5                	li	t4,25
    9156:	02d778b3          	remu	a7,a4,a3
    915a:	fd078713          	addi	a4,a5,-48
    915e:	04ef6363          	bltu	t5,a4,91a4 <_strtoul_l.isra.0+0xc6>
    9162:	87ba                	mv	a5,a4
    9164:	06d7d063          	bge	a5,a3,91c4 <_strtoul_l.isra.0+0xe6>
    9168:	04084c63          	bltz	a6,91c0 <_strtoul_l.isra.0+0xe2>
    916c:	587d                	li	a6,-1
    916e:	00ae6a63          	bltu	t3,a0,9182 <_strtoul_l.isra.0+0xa4>
    9172:	00ae1463          	bne	t3,a0,917a <_strtoul_l.isra.0+0x9c>
    9176:	00f8c663          	blt	a7,a5,9182 <_strtoul_l.isra.0+0xa4>
    917a:	4805                	li	a6,1
    917c:	02a68533          	mul	a0,a3,a0
    9180:	953e                	add	a0,a0,a5
    9182:	0485                	addi	s1,s1,1
    9184:	fff4c783          	lbu	a5,-1(s1)
    9188:	bfc9                	j	915a <_strtoul_l.isra.0+0x7c>
    918a:	8926                	mv	s2,s1
    918c:	b78d                	j	90ee <_strtoul_l.isra.0+0x10>
    918e:	02b00793          	li	a5,43
    9192:	00f40563          	beq	s0,a5,919c <_strtoul_l.isra.0+0xbe>
    9196:	87a2                	mv	a5,s0
    9198:	4301                	li	t1,0
    919a:	b769                	j	9124 <_strtoul_l.isra.0+0x46>
    919c:	209c                	lbu	a5,0(s1)
    919e:	00290493          	addi	s1,s2,2
    91a2:	bfdd                	j	9198 <_strtoul_l.isra.0+0xba>
    91a4:	fbf78713          	addi	a4,a5,-65
    91a8:	00eee563          	bltu	t4,a4,91b2 <_strtoul_l.isra.0+0xd4>
    91ac:	fc978793          	addi	a5,a5,-55
    91b0:	bf55                	j	9164 <_strtoul_l.isra.0+0x86>
    91b2:	f9f78713          	addi	a4,a5,-97
    91b6:	00eee763          	bltu	t4,a4,91c4 <_strtoul_l.isra.0+0xe6>
    91ba:	fa978793          	addi	a5,a5,-87
    91be:	b75d                	j	9164 <_strtoul_l.isra.0+0x86>
    91c0:	587d                	li	a6,-1
    91c2:	b7c1                	j	9182 <_strtoul_l.isra.0+0xa4>
    91c4:	00085f63          	bgez	a6,91e2 <_strtoul_l.isra.0+0x104>
    91c8:	02200793          	li	a5,34
    91cc:	00f9a023          	sw	a5,0(s3)
    91d0:	557d                	li	a0,-1
    91d2:	ee19                	bnez	a2,91f0 <_strtoul_l.isra.0+0x112>
    91d4:	50b2                	lw	ra,44(sp)
    91d6:	5422                	lw	s0,40(sp)
    91d8:	5492                	lw	s1,36(sp)
    91da:	5902                	lw	s2,32(sp)
    91dc:	49f2                	lw	s3,28(sp)
    91de:	6145                	addi	sp,sp,48
    91e0:	8082                	ret
    91e2:	00030463          	beqz	t1,91ea <_strtoul_l.isra.0+0x10c>
    91e6:	40a00533          	neg	a0,a0
    91ea:	d66d                	beqz	a2,91d4 <_strtoul_l.isra.0+0xf6>
    91ec:	00080463          	beqz	a6,91f4 <_strtoul_l.isra.0+0x116>
    91f0:	fff48593          	addi	a1,s1,-1
    91f4:	c20c                	sw	a1,0(a2)
    91f6:	bff9                	j	91d4 <_strtoul_l.isra.0+0xf6>
    91f8:	03000793          	li	a5,48
    91fc:	f6b1                	bnez	a3,9148 <_strtoul_l.isra.0+0x6a>
    91fe:	46a1                	li	a3,8
    9200:	b7a1                	j	9148 <_strtoul_l.isra.0+0x6a>
    9202:	03000713          	li	a4,48
    9206:	f2e787e3          	beq	a5,a4,9134 <_strtoul_l.isra.0+0x56>
    920a:	46a9                	li	a3,10
    920c:	bf35                	j	9148 <_strtoul_l.isra.0+0x6a>

0000920e <_strtoul_r>:
_strtoul_r():
    920e:	84418793          	addi	a5,gp,-1980 # 20000264 <_impure_ptr>
    9212:	439c                	lw	a5,0(a5)
    9214:	5398                	lw	a4,32(a5)
    9216:	e709                	bnez	a4,9220 <_strtoul_r+0x12>
    9218:	1fff7717          	auipc	a4,0x1fff7
    921c:	e3870713          	addi	a4,a4,-456 # 20000050 <__global_locale>
    9220:	ebfff06f          	j	90de <_strtoul_l.isra.0>

00009224 <__submore>:
__submore():
    9224:	1101                	addi	sp,sp,-32
    9226:	cc22                	sw	s0,24(sp)
    9228:	842e                	mv	s0,a1
    922a:	59cc                	lw	a1,52(a1)
    922c:	ce06                	sw	ra,28(sp)
    922e:	ca26                	sw	s1,20(sp)
    9230:	c84a                	sw	s2,16(sp)
    9232:	c64e                	sw	s3,12(sp)
    9234:	c452                	sw	s4,8(sp)
    9236:	04440793          	addi	a5,s0,68
    923a:	04f59263          	bne	a1,a5,927e <__submore+0x5a>
    923e:	40000593          	li	a1,1024
    9242:	d5aff0ef          	jal	ra,879c <_malloc_r>
    9246:	e911                	bnez	a0,925a <__submore+0x36>
    9248:	557d                	li	a0,-1
    924a:	40f2                	lw	ra,28(sp)
    924c:	4462                	lw	s0,24(sp)
    924e:	44d2                	lw	s1,20(sp)
    9250:	4942                	lw	s2,16(sp)
    9252:	49b2                	lw	s3,12(sp)
    9254:	4a22                	lw	s4,8(sp)
    9256:	6105                	addi	sp,sp,32
    9258:	8082                	ret
    925a:	40000793          	li	a5,1024
    925e:	dc1c                	sw	a5,56(s0)
    9260:	04644783          	lbu	a5,70(s0)
    9264:	d848                	sw	a0,52(s0)
    9266:	3fd50513          	addi	a0,a0,1021
    926a:	a13c                	sb	a5,2(a0)
    926c:	04544783          	lbu	a5,69(s0)
    9270:	b11c                	sb	a5,1(a0)
    9272:	04444783          	lbu	a5,68(s0)
    9276:	a11c                	sb	a5,0(a0)
    9278:	c008                	sw	a0,0(s0)
    927a:	4501                	li	a0,0
    927c:	b7f9                	j	924a <__submore+0x26>
    927e:	03842903          	lw	s2,56(s0)
    9282:	00191993          	slli	s3,s2,0x1
    9286:	864e                	mv	a2,s3
    9288:	2835                	jal	92c4 <_realloc_r>
    928a:	84aa                	mv	s1,a0
    928c:	dd55                	beqz	a0,9248 <__submore+0x24>
    928e:	01250a33          	add	s4,a0,s2
    9292:	85aa                	mv	a1,a0
    9294:	864a                	mv	a2,s2
    9296:	8552                	mv	a0,s4
    9298:	828ff0ef          	jal	ra,82c0 <memcpy>
    929c:	01442023          	sw	s4,0(s0)
    92a0:	d844                	sw	s1,52(s0)
    92a2:	03342c23          	sw	s3,56(s0)
    92a6:	bfd1                	j	927a <__submore+0x56>

000092a8 <memchr>:
memchr():
    92a8:	0ff5f593          	andi	a1,a1,255
    92ac:	962a                	add	a2,a2,a0
    92ae:	00c51463          	bne	a0,a2,92b6 <memchr+0xe>
    92b2:	4501                	li	a0,0
    92b4:	8082                	ret
    92b6:	211c                	lbu	a5,0(a0)
    92b8:	feb78ee3          	beq	a5,a1,92b4 <memchr+0xc>
    92bc:	0505                	addi	a0,a0,1
    92be:	bfc5                	j	92ae <memchr+0x6>

000092c0 <__malloc_lock>:
__malloc_lock():
    92c0:	8082                	ret

000092c2 <__malloc_unlock>:
__malloc_unlock():
    92c2:	8082                	ret

000092c4 <_realloc_r>:
_realloc_r():
    92c4:	e581                	bnez	a1,92cc <_realloc_r+0x8>
    92c6:	85b2                	mv	a1,a2
    92c8:	cd4ff06f          	j	879c <_malloc_r>
    92cc:	1101                	addi	sp,sp,-32
    92ce:	cc22                	sw	s0,24(sp)
    92d0:	ce06                	sw	ra,28(sp)
    92d2:	ca26                	sw	s1,20(sp)
    92d4:	c84a                	sw	s2,16(sp)
    92d6:	c64e                	sw	s3,12(sp)
    92d8:	8432                	mv	s0,a2
    92da:	ee01                	bnez	a2,92f2 <_realloc_r+0x2e>
    92dc:	c18ff0ef          	jal	ra,86f4 <_free_r>
    92e0:	4901                	li	s2,0
    92e2:	40f2                	lw	ra,28(sp)
    92e4:	4462                	lw	s0,24(sp)
    92e6:	854a                	mv	a0,s2
    92e8:	44d2                	lw	s1,20(sp)
    92ea:	4942                	lw	s2,16(sp)
    92ec:	49b2                	lw	s3,12(sp)
    92ee:	6105                	addi	sp,sp,32
    92f0:	8082                	ret
    92f2:	84ae                	mv	s1,a1
    92f4:	89aa                	mv	s3,a0
    92f6:	201d                	jal	931c <_malloc_usable_size_r>
    92f8:	8926                	mv	s2,s1
    92fa:	fe8574e3          	bgeu	a0,s0,92e2 <_realloc_r+0x1e>
    92fe:	85a2                	mv	a1,s0
    9300:	854e                	mv	a0,s3
    9302:	c9aff0ef          	jal	ra,879c <_malloc_r>
    9306:	892a                	mv	s2,a0
    9308:	dd69                	beqz	a0,92e2 <_realloc_r+0x1e>
    930a:	85a6                	mv	a1,s1
    930c:	8622                	mv	a2,s0
    930e:	fb3fe0ef          	jal	ra,82c0 <memcpy>
    9312:	85a6                	mv	a1,s1
    9314:	854e                	mv	a0,s3
    9316:	bdeff0ef          	jal	ra,86f4 <_free_r>
    931a:	b7e1                	j	92e2 <_realloc_r+0x1e>

0000931c <_malloc_usable_size_r>:
_malloc_usable_size_r():
    931c:	ffc5a783          	lw	a5,-4(a1)
    9320:	ffc78513          	addi	a0,a5,-4
    9324:	0007d563          	bgez	a5,932e <_malloc_usable_size_r+0x12>
    9328:	95aa                	add	a1,a1,a0
    932a:	419c                	lw	a5,0(a1)
    932c:	953e                	add	a0,a0,a5
    932e:	8082                	ret
    9330:	6148                	flw	fa0,4(a0)
    9332:	6472                	flw	fs0,28(sp)
    9334:	6146                	flw	ft2,80(sp)
    9336:	6c75                	lui	s8,0x1d
    9338:	5f74                	lw	a3,124(a4)
    933a:	6148                	flw	fa0,4(a0)
    933c:	646e                	flw	fs0,216(sp)
    933e:	656c                	flw	fa1,76(a0)
    9340:	0d72                	slli	s10,s10,0x1c
    9342:	0000                	unimp
    9344:	656d                	lui	a0,0x1b
    9346:	6370                	flw	fa2,68(a4)
    9348:	2020                	lbu	s0,2(s0)
    934a:	253a                	lhu	a4,10(a0)
    934c:	3830                	lbu	a2,19(s0)
    934e:	0d78                	addi	a4,sp,668
    9350:	000a                	c.slli	zero,0x2
    9352:	0000                	unimp
    9354:	636d                	lui	t1,0x1b
    9356:	7561                	lui	a0,0xffff8
    9358:	253a6573          	csrrsi	a0,0x253,20
    935c:	3830                	lbu	a2,19(s0)
    935e:	0d78                	addi	a4,sp,668
    9360:	000a                	c.slli	zero,0x2
    9362:	0000                	unimp
    9364:	746d                	lui	s0,0xffffb
    9366:	6176                	flw	ft2,92(sp)
    9368:	206c                	lbu	a1,6(s0)
    936a:	253a                	lhu	a4,10(a0)
    936c:	3830                	lbu	a2,19(s0)
    936e:	0d78                	addi	a4,sp,668
    9370:	000a                	c.slli	zero,0x2
    9372:	0000                	unimp
    9374:	4746435b          	0x4746435b
    9378:	205d                	jal	941e <_malloc_usable_size_r+0x102>
    937a:	6150                	flw	fa2,4(a0)
    937c:	7372                	flw	ft6,60(sp)
    937e:	6e69                	lui	t3,0x1a
    9380:	6f632067          	0x6f632067
    9384:	666e                	flw	fa2,216(sp)
    9386:	6769                	lui	a4,0x1a
    9388:	7275                	lui	tp,0xffffd
    938a:	7461                	lui	s0,0xffff8
    938c:	6f69                	lui	t5,0x1a
    938e:	0d6e                	slli	s10,s10,0x1b
    9390:	0000                	unimp
    9392:	0000                	unimp
    9394:	4746435b          	0x4746435b
    9398:	205d                	jal	943e <_malloc_usable_size_r+0x122>
    939a:	6e45                	lui	t3,0x11
    939c:	65646f63          	bltu	s0,s6,99fa <reserved_pins+0x76>
    93a0:	7372                	flw	ft6,60(sp)
    93a2:	203a                	lhu	a4,2(s0)
    93a4:	6425                	lui	s0,0x9
    93a6:	0a0d                	addi	s4,s4,3
    93a8:	0000                	unimp
    93aa:	0000                	unimp
    93ac:	4746435b          	0x4746435b
    93b0:	205d                	jal	9456 <_malloc_usable_size_r+0x13a>
    93b2:	7542                	flw	fa0,48(sp)
    93b4:	7474                	flw	fa3,108(s0)
    93b6:	20736e6f          	jal	t3,3fdbc <_data_lma+0x35f58>
    93ba:	203a                	lhu	a4,2(s0)
    93bc:	6425                	lui	s0,0x9
    93be:	0a0d                	addi	s4,s4,3
    93c0:	0000                	unimp
    93c2:	0000                	unimp
    93c4:	4746435b          	0x4746435b
    93c8:	205d                	jal	946e <_malloc_usable_size_r+0x152>
    93ca:	6544                	flw	fs1,12(a0)
    93cc:	6f62                	flw	ft10,24(sp)
    93ce:	6e75                	lui	t3,0x1d
    93d0:	203a6563          	bltu	s4,gp,95da <g_ini_text+0xc6>
    93d4:	6425                	lui	s0,0x9
    93d6:	6d20                	flw	fs0,88(a0)
    93d8:	000a0d73          	0xa0d73
    93dc:	656e6567          	0x656e6567
    93e0:	6172                	flw	ft2,28(sp)
    93e2:	006c                	addi	a1,sp,12
    93e4:	6564                	flw	fs1,76(a0)
    93e6:	6f62                	flw	ft10,24(sp)
    93e8:	6e75                	lui	t3,0x1d
    93ea:	6d5f6563          	bltu	t5,s5,9ab4 <reserved_pins+0x130>
    93ee:	616d0073          	0x616d0073
    93f2:	5f78                	lw	a4,124(a4)
    93f4:	6574                	flw	fa3,76(a0)
    93f6:	7478                	flw	fa4,108(s0)
    93f8:	6c5f 6e65 7467      	0x74676e656c5f
    93fe:	0068                	addi	a0,sp,12
    9400:	656e                	flw	fa0,216(sp)
    9402:	7774                	flw	fa3,108(a4)
    9404:	006b726f          	jal	tp,c040a <_data_lma+0xb65a6>
    9408:	6864                	flw	fs1,84(s0)
    940a:	00007063          	bgeu	zero,zero,940a <_malloc_usable_size_r+0xee>
    940e:	0000                	unimp
    9410:	6f6a                	flw	ft10,152(sp)
    9412:	6e69                	lui	t3,0x1a
    9414:	6d5f 6c75 6974      	0x69746c756d5f
    941a:	74736163          	bltu	t1,t2,9b5c <reserved_pins+0x1d8>
    941e:	0000                	unimp
    9420:	6f70                	flw	fa2,92(a4)
    9422:	7472                	flw	fs0,60(sp)
    9424:	0000                	unimp
    9426:	0000                	unimp
    9428:	6166                	flw	ft2,88(sp)
    942a:	6c6c                	flw	fa1,92(s0)
    942c:	6162                	flw	ft2,24(sp)
    942e:	695f6b63          	bltu	t5,s5,9ac4 <reserved_pins+0x140>
    9432:	0070                	addi	a2,sp,12
    9434:	002e                	c.slli	zero,0xb
    9436:	0000                	unimp
    9438:	6e627573          	csrrci	a0,0x6e6,4
    943c:	7465                	lui	s0,0xffff9
    943e:	6d5f 7361 006b      	0x6b73616d5f
    9444:	65746167          	0x65746167
    9448:	00796177          	0x796177
    944c:	616d                	addi	sp,sp,240
    944e:	30250063          	beq	a0,sp,974e <g_ini_text+0x23a>
    9452:	7832                	flw	fa6,44(sp)
    9454:	253a                	lhu	a4,10(a0)
    9456:	3230                	lbu	a2,3(a2)
    9458:	3a78                	lbu	a4,23(a2)
    945a:	3025                	jal	8c82 <__ssvfiscanf_r+0x332>
    945c:	7832                	flw	fa6,44(sp)
    945e:	253a                	lhu	a4,10(a0)
    9460:	3230                	lbu	a2,3(a2)
    9462:	3a78                	lbu	a4,23(a2)
    9464:	3025                	jal	8c8c <__ssvfiscanf_r+0x33c>
    9466:	7832                	flw	fa6,44(sp)
    9468:	253a                	lhu	a4,10(a0)
    946a:	3230                	lbu	a2,3(a2)
    946c:	0078                	addi	a4,sp,12
    946e:	0000                	unimp
    9470:	4746435b          	0x4746435b
    9474:	205d                	jal	951a <g_ini_text+0x6>
    9476:	6e49                	lui	t3,0x12
    9478:	6176                	flw	ft2,92(sp)
    947a:	696c                	flw	fa1,84(a0)
    947c:	2064                	lbu	s1,6(s0)
    947e:	414d                	li	sp,19
    9480:	6f662043          	fmadd.q	ft0,fa2,fs6,fa3,rdn
    9484:	6d72                	flw	fs10,28(sp)
    9486:	7461                	lui	s0,0xffff8
    9488:	000d                	c.nop	3
    948a:	0000                	unimp
    948c:	6e65                	lui	t3,0x19
    948e:	65646f63          	bltu	s0,s6,9aec <reserved_pins+0x168>
    9492:	7372                	flw	ft6,60(sp)
    9494:	0000                	unimp
    9496:	0000                	unimp
    9498:	6e756f63          	bltu	a0,t2,9b96 <reserved_pins+0x212>
    949c:	0074                	addi	a3,sp,12
    949e:	0000                	unimp
    94a0:	6e65                	lui	t3,0x19
    94a2:	5f642563          	0x5f642563
    94a6:	5f61                	li	t5,-8
    94a8:	6970                	flw	fa2,84(a0)
    94aa:	006e                	c.slli	zero,0x1b
    94ac:	6e65                	lui	t3,0x19
    94ae:	5f642563          	0x5f642563
    94b2:	5f62                	lw	t5,56(sp)
    94b4:	6970                	flw	fa2,84(a0)
    94b6:	006e                	c.slli	zero,0x1b
    94b8:	6e65                	lui	t3,0x19
    94ba:	5f642563          	0x5f642563
    94be:	745f7763          	bgeu	t5,t0,9c0c <reserved_pins+0x288>
    94c2:	7865                	lui	a6,0xffff9
    94c4:	0074                	addi	a3,sp,12
    94c6:	0000                	unimp
    94c8:	6e65                	lui	t3,0x19
    94ca:	5f642563          	0x5f642563
    94ce:	5f776363          	bltu	a4,s7,9ab4 <reserved_pins+0x130>
    94d2:	6574                	flw	fa3,76(a0)
    94d4:	7478                	flw	fa4,108(s0)
    94d6:	0000                	unimp
    94d8:	7562                	flw	fa0,56(sp)
    94da:	7474                	flw	fa3,108(s0)
    94dc:	00736e6f          	jal	t3,3fce2 <_data_lma+0x35e7e>
    94e0:	7462                	flw	fs0,56(sp)
    94e2:	256e                	lhu	a1,14(a0)
    94e4:	5f64                	lw	s1,124(a4)
    94e6:	6970                	flw	fa2,84(a0)
    94e8:	006e                	c.slli	zero,0x1b
    94ea:	0000                	unimp
    94ec:	7462                	flw	fs0,56(sp)
    94ee:	256e                	lhu	a1,14(a0)
    94f0:	5f64                	lw	s1,124(a4)
    94f2:	7270                	flw	fa2,100(a2)
    94f4:	7365                	lui	t1,0xffff9
    94f6:	65745f73          	csrrwi	t5,0x657,8
    94fa:	7478                	flw	fa4,108(s0)
    94fc:	0000                	unimp
    94fe:	0000                	unimp
    9500:	7462                	flw	fs0,56(sp)
    9502:	256e                	lhu	a1,14(a0)
    9504:	5f64                	lw	s1,124(a4)
    9506:	6572                	flw	fa0,28(sp)
    9508:	656c                	flw	fa1,76(a0)
    950a:	7361                	lui	t1,0xffff8
    950c:	5f65                	li	t5,-7
    950e:	6574                	flw	fa3,76(a0)
    9510:	7478                	flw	fa4,108(s0)
	...

00009514 <g_ini_text>:
    9514:	203b 4344 2053 6f43 666e 6769 0a0d 675b     ; DCS Config..[g
    9524:	6e65 7265 6c61 0d5d 640a 6265 756f 636e     eneral]..debounc
    9534:	5f65 736d 3d20 3120 0d30 6d0a 7861 745f     e_ms = 10..max_t
    9544:	7865 5f74 656c 676e 6874 3d20 3420 0d35     ext_length = 45.
    9554:	0d0a 5b0a 656e 7774 726f 5d6b 0a0d 6864     ...[network]..dh
    9564:	7063 3d20 3020 203b 6f6e 2074 6d69 6c70     cp = 0; not impl
    9574:	6d65 6e65 6574 0d64 6a0a 696f 5f6e 756d     emented..join_mu
    9584:	746c 6369 7361 2074 203d 3b30 6e20 746f     lticast = 0; not
    9594:	6920 706d 656c 656d 746e 6465 0a0d 203b      implemented..; 
    95a4:	7543 7473 6d6f 6d20 6361 6120 6464 6572     Custom mac addre
    95b4:	7373 0a0d 203b 6553 2074 3030 303a 3a30     ss..; Set 00:00:
    95c4:	3030 303a 3a30 3030 303a 2030 6f74 7520     00:00:00:00 to u
    95d4:	6573 6320 6968 2070 616d 2063 6461 7264     se chip mac addr
    95e4:	7365 0d73 6d0a 6361 3d20 3020 3a30 3030     ess..mac = 00:00
    95f4:	303a 3a30 3030 303a 3a30 3030 0a0d 6166     :00:00:00:00..fa
    9604:	6c6c 6162 6b63 695f 2070 203d 3931 2e32     llback_ip = 192.
    9614:	3631 2e38 2e30 3035 203b 6564 6973 6572     168.0.50; desire
    9624:	2064 5049 6120 6464 6572 7373 0a0d 7573     d IP address..su
    9634:	6e62 7465 6d5f 7361 206b 203d 3532 2e35     bnet_mask = 255.
    9644:	3532 2e35 3532 2e35 3b30 6e20 7465 616d     255.255.0; netma
    9654:	6b73 6620 726f 7920 756f 2072 656e 7774     sk for your netw
    9664:	726f 0d6b 670a 7461 7765 7961 3d20 3120     ork..gateway = 1
    9674:	3239 312e 3836 302e 312e 203b 6167 6574     92.168.0.1; gate
    9684:	6177 2079 6f66 2072 6f79 7275 6e20 7465     way for your net
    9694:	6f77 6b72 0a0d 6f70 7472 3d20 3720 3737     work..port = 777
    96a4:	3b38 6420 6665 7561 746c 4420 5343 422d     8; default DCS-B
    96b4:	4f49 2053 6f70 7472 0a0d 0a0d 655b 636e     IOS port....[enc
    96c4:	646f 7265 5d73 0a0d 6e45 6f63 6564 7372     oders]..Encoders
    96d4:	7220 7165 6975 6572 3420 7020 7261 6d61      require 4 param
    96e4:	7465 7265 2073 6570 2072 6e65 6f63 6564     eters per encode
    96f4:	0d72 490a 706e 7475 4120 7020 6e69 202c     r..Input A pin, 
    9704:	6e69 7570 2074 2042 6970 2c6e 4320 6f6c     input B pin, Clo
    9714:	6b63 6977 6573 6d20 7365 6173 6567 6120     ckwise message a
    9724:	646e 4320 756f 746e 7265 432d 6f6c 6b63     nd Counter-Clock
    9734:	6977 6572 6d20 7365 6173 6567 0a0d 6f63     wire message..co
    9744:	6e75 2074 203d 3b31 4e20 6d75 6562 2072     unt = 1; Number 
    9754:	666f 6520 636e 646f 7265 2073 6f63 666e     of encoders conf
    9764:	6769 7275 6465 0a0d 6e65 3063 615f 705f     igured..enc0_a_p
    9774:	6e69 3d20 5020 3042 0a0d 6e65 3063 625f     in = PB0..enc0_b
    9784:	705f 6e69 3d20 5020 3142 0a0d 6e65 3063     _pin = PB1..enc0
    9794:	635f 5f77 6574 7478 3d20 4e20 3453 3033     _cw_text = NS430
    97a4:	525f 4749 5448 535f 414d 4c4c 425f 4e54     _RIGHT_SMALL_BTN
    97b4:	525f 544f 2d20 3233 3030 0a0d 6e65 3063     _ROT -3200..enc0
    97c4:	635f 7763 745f 7865 2074 203d 534e 3334     _ccw_text = NS43
    97d4:	5f30 4952 4847 5f54 4d53 4c41 5f4c 5442     0_RIGHT_SMALL_BT
    97e4:	5f4e 4f52 2054 332b 3032 0d30 0d0a 5b0a     N_ROT +3200....[
    97f4:	7562 7474 6e6f 5d73 0a0d 7542 7474 6e6f     buttons]..Button
    9804:	2073 6572 7571 7269 2065 2033 6170 6172     s require 3 para
    9814:	656d 6574 7372 7020 7265 6520 636e 646f     meters per encod
    9824:	7265 0a0d 6950 206e 756e 626d 7265 202c     er..Pin number, 
    9834:	7270 7365 6573 2064 656d 7373 6761 2065     pressed message 
    9844:	6e61 2064 6572 656c 7361 6465 6d20 7365     and released mes
    9854:	6173 6567 0a0d 6f63 6e75 2074 203d 3b32     sage..count = 2;
    9864:	4e20 6d75 6562 2072 666f 6220 7475 6f74      Number of butto
    9874:	736e 6320 6e6f 6966 7567 6572 0d64 620a     ns configured..b
    9884:	6e74 5f30 6970 206e 203d 4550 0d30 620a     tn0_pin = PE0..b
    9894:	6e74 5f30 7270 7365 5f73 6574 7478 3d20     tn0_press_text =
    98a4:	4c20 4744 4c5f 4749 5448 535f 2057 4f54      LDG_LIGHT_SW TO
    98b4:	4747 454c 0a0d 7462 306e 725f 6c65 6165     GGLE..btn0_relea
    98c4:	6573 745f 7865 2074 203d 414d 5453 5245     se_text = MASTER
    98d4:	415f 4d52 4f5f 4646 0a0d 7462 316e 705f     _ARM_OFF..btn1_p
    98e4:	6e69 3d20 5020 3145 0a0d 7462 316e 705f     in = PE1..btn1_p
    98f4:	6572 7373 745f 7865 2074 203d 4c46 5041     ress_text = FLAP
    9904:	5f53 5055 0a0d 7462 316e 725f 6c65 6165     S_UP..btn1_relea
    9914:	6573 745f 7865 2074 203d 4c46 5041 5f53     se_text = FLAPS_
    9924:	5453 504f 0a0d 0000 0a0a 0000 0a30 0000     STOP........0...
    9934:	0a42 0000 0a50 0000 0a64 0000 475b 4950     B...P...d...[GPI
    9944:	5d4f 4520 5252 524f 203a 6e49 6176 696c     O] ERROR: Invali
    9954:	2064 6f70 7472 2520 0d63 000a 475b 4950     d port %c...[GPI
    9964:	5d4f 4520 5252 524f 203a 6950 206e 7325     O] ERROR: Pin %s
    9974:	6920 2073 6572 6573 7672 6465 0a0d 0000      is reserved....

00009984 <reserved_pins>:
    9984:	99bc 0000 99c0 0000 99c4 0000 99c8 0000     ................
    9994:	99cc 0000 99d0 0000 99d8 0000 99e0 0000     ................
    99a4:	99e8 0000 99ec 0000 99f0 0000 99f8 0000     ................
    99b4:	9a00 0000 9a08 0000 4150 0032 4150 0035     ........PA2.PA5.
    99c4:	4150 0036 4150 0037 4150 0039 4150 3331     PA6.PA7.PA9.PA13
    99d4:	0000 0000 4150 3431 0000 0000 4150 3531     ....PA14....PA15
    99e4:	0000 0000 4250 0032 4250 0034 4250 3031     ....PB2.PB4.PB10
    99f4:	0000 0000 4250 3131 0000 0000 4350 3431     ....PB11....PC14
    9a04:	0000 0000 4350 3531 0000 0000 425b 4e54     ....PC15....[BTN
    9a14:	205d 6e49 7469 6169 696c 697a 676e 2520     ] Initializing %
    9a24:	2064 7562 7474 6e6f 0d73 000a 425b 4e54     d buttons...[BTN
    9a34:	205d 6425 5020 6572 7373 2d20 203e 6425     ] %d Press -> %d
    9a44:	0a0d 0000 425b 4e54 205d 6425 5020 6572     ....[BTN] %d Pre
    9a54:	7373 2d20 203e 7325 0a0d 0000 656c 206e     ss -> %s....len 
    9a64:	666f 5320 636f 656b 4d74 4279 6675 2520     of SocketMyBuf %
    9a74:	0064 0000 425b 4e54 205d 6425 5220 6c65     d...[BTN] %d Rel
    9a84:	6165 6573 2d20 203e 7325 0a0d 0000 0000     ease -> %s......
    9a94:	455b 434e 205d 6e49 7469 6169 696c 697a     [ENC] Initializi
    9aa4:	676e 2520 2064 6e65 6f63 6564 7372 0a0d     ng %d encoders..
    9ab4:	0000 0000 455b 434e 205d 6425 4320 2057     ....[ENC] %d CW 
    9ac4:	3e2d 2520 0d73 000a 455b 434e 205d 6425     -> %s...[ENC] %d
    9ad4:	4320 5743 2d20 203e 7325 0a0d 0000 0000      CCW -> %s......
    9ae4:	6f53 6b63 7465 6449 2520 0d64 000a 0000     SocketId %d.....
    9af4:	6552 6f6d 6574 4920 3a50 0000 6425 0020     Remote IP:..%d .
    9b04:	7273 7063 726f 2074 203d 6425 6c20 6e65     srcport = %d len
    9b14:	3d20 2520 2064 6f73 6b63 7465 6469 3d20      = %d socketid =
    9b24:	2520 0d64 000a 0000 7245 6f72 3a72 2520      %d.....Error: %
    9b34:	3230 0d58 000a 0000 0a0d 0a0d 0a0d 0a0d     02X.............
    9b44:	0a0d 4d5b 4941 5d4e 4420 5343 422d 4f49     ..[MAIN] DCS-BIO
    9b54:	2053 6f43 746e 6f72 206c 6150 656e 0d6c     S Control Panel.
    9b64:	0000 0000 4d5b 4941 5d4e 5320 7379 6574     ....[MAIN] Syste
    9b74:	436d 6b6c 253a 0d64 000a 0000 4d5b 4941     mClk:%d.....[MAI
    9b84:	5d4e 4320 6968 4970 3a44 3025 7838 0a0d     N] ChipID:%08x..
    9b94:	0000 0000 4d5b 4941 5d4e 6e20 7465 7620     ....[MAIN] net v
    9ba4:	7265 6973 6e6f 253a 0d78 000a 4d5b 4941     ersion:%x...[MAI
    9bb4:	5d4e 7620 7265 6973 6e6f 6520 7272 726f     N] version error
    9bc4:	0d2e 0000 4d5b 4941 5d4e 6d20 6361 6120     ....[MAIN] mac a
    9bd4:	6464 3a72 0000 0000 7825 0020 4d5b 4941     ddr:....%x .[MAI
    9be4:	5d4e 5720 4843 454e 5f54 694c 4962 696e     N] WCHNET_LibIni
    9bf4:	2074 7553 6363 7365 0d73 0000 4d5b 4941     t Success...[MAI
    9c04:	5d4e 4220 6f72 6461 6163 7473 6441 7264     N] BroadcastAddr
    9c14:	3d20 2520 2e64 6425 252e 2e64 6425 0a0d      = %d.%d.%d.%d..
    9c24:	0000 0000 4d5b 4941 5d4e 4920 4150 6464     ....[MAIN] IPAdd
    9c34:	2072 203d 6425 252e 2e64 6425 252e 0d64     r = %d.%d.%d.%d.
    9c44:	000a 0000                                   ....

00009c48 <quad_table>:
    9c48:	ff00 0001 0001 ff00 00ff 0100 0100 00ff     ................

00009c58 <MemNum>:
    9c58:	0000 0001 0000 0000 0000 0000 0002 0002     ................

00009c68 <MemSize>:
    9c68:	001c 0020 00b4 0024 0014 0020 0010 0600     .. ...$... .....

00009c78 <ErrTable>:
    9c78:	1100 1312 1514 1716 1918 1b1a 1d1c 1f1e     ................
    9c88:	5040 0000 5086 0000 50a0 0000 50b0 0000     @P...P...P...P..
    9c98:	50b0 0000 509c 0000 509c 0000 50be 0000     .P...P...P...P..
    9ca8:	6450 0000 655e 0000 664c 0000 6654 0000     Pd..^e..Lf..Tf..
    9cb8:	66fa 0000 664c 0000 6740 0000 677c 0000     .f..Lf..@g..|g..
    9cc8:	6e28 6c75 296c 0000 0043 0000 4f50 4953     (null)..C...POSI
    9cd8:	0058 0000                                   X...

00009cdc <_ctype_>:
    9cdc:	2000 2020 2020 2020 2020 2828 2828 2028     .         ((((( 
    9cec:	2020 2020 2020 2020 2020 2020 2020 2020                     
    9cfc:	8820 1010 1010 1010 1010 1010 1010 1010      ...............
    9d0c:	0410 0404 0404 0404 0404 1004 1010 1010     ................
    9d1c:	1010 4141 4141 4141 0101 0101 0101 0101     ..AAAAAA........
    9d2c:	0101 0101 0101 0101 0101 0101 1010 1010     ................
    9d3c:	1010 4242 4242 4242 0202 0202 0202 0202     ..BBBBBB........
    9d4c:	0202 0202 0202 0202 0202 0202 1010 1010     ................
    9d5c:	0020 0000 0000 0000 0000 0000 0000 0000      ...............
	...
    9de0:	6c68 004c 2d41 6146 662d 3938 3130 3332     hlL.A-Fa-f890123
    9df0:	3534 3736 005d 0000 2d2b 0000 3030 0000     4567]...+-..00..
    9e00:	5878 0000                                   xX..

00009e04 <__sf_fake_stderr>:
	...

00009e24 <__sf_fake_stdin>:
	...

00009e44 <__sf_fake_stdout>:
	...
