Archive member included to satisfy reference by file (symbol)

/home/randy/mounriver-studio-projects/UdpServer/NetLib/libwchnet.a(eth_api.o)
                              ./NetLib/eth_driver_10M.o (WCHNET_PeriodicHandle)
/home/randy/mounriver-studio-projects/UdpServer/NetLib/libwchnet.a(ipcheck.o)
                              /home/randy/mounriver-studio-projects/UdpServer/NetLib/libwchnet.a(eth_api.o) (IPCheckParaInit)
/home/randy/mounriver-studio-projects/UdpServer/NetLib/libwchnet.a(net_dhcp.o)
                              /home/randy/mounriver-studio-projects/UdpServer/NetLib/libwchnet.a(eth_api.o) (DHCPCtrl)
/home/randy/mounriver-studio-projects/UdpServer/NetLib/libwchnet.a(net_dns.o)
                              /home/randy/mounriver-studio-projects/UdpServer/NetLib/libwchnet.a(eth_api.o) (DNSInf)
/home/randy/mounriver-studio-projects/UdpServer/NetLib/libwchnet.a(socket.o)
                              /home/randy/mounriver-studio-projects/UdpServer/NetLib/libwchnet.a(net_dhcp.o) (ErrorEncode)
/home/randy/mounriver-studio-projects/UdpServer/NetLib/libwchnet.a(etharp.o)
                              /home/randy/mounriver-studio-projects/UdpServer/NetLib/libwchnet.a(ipcheck.o) (etharp_request)
/home/randy/mounriver-studio-projects/UdpServer/NetLib/libwchnet.a(ethernetif.o)
                              /home/randy/mounriver-studio-projects/UdpServer/NetLib/libwchnet.a(eth_api.o) (ethernetif_input)
/home/randy/mounriver-studio-projects/UdpServer/NetLib/libwchnet.a(inet.o)
                              /home/randy/mounriver-studio-projects/UdpServer/NetLib/libwchnet.a(socket.o) (inet_ntoa)
/home/randy/mounriver-studio-projects/UdpServer/NetLib/libwchnet.a(ip.o)
                              /home/randy/mounriver-studio-projects/UdpServer/NetLib/libwchnet.a(etharp.o) (ip_input)
/home/randy/mounriver-studio-projects/UdpServer/NetLib/libwchnet.a(ip_addr.o)
                              /home/randy/mounriver-studio-projects/UdpServer/NetLib/libwchnet.a(socket.o) (ip_addr_isbroadcast)
/home/randy/mounriver-studio-projects/UdpServer/NetLib/libwchnet.a(ip_frag.o)
                              /home/randy/mounriver-studio-projects/UdpServer/NetLib/libwchnet.a(eth_api.o) (ip_reass_tmr)
/home/randy/mounriver-studio-projects/UdpServer/NetLib/libwchnet.a(dhcp.o)
                              /home/randy/mounriver-studio-projects/UdpServer/NetLib/libwchnet.a(net_dhcp.o) (dhcp_arp_reply)
/home/randy/mounriver-studio-projects/UdpServer/NetLib/libwchnet.a(dns.o)
                              /home/randy/mounriver-studio-projects/UdpServer/NetLib/libwchnet.a(dhcp.o) (dns_setserver)
/home/randy/mounriver-studio-projects/UdpServer/NetLib/libwchnet.a(init.o)
                              /home/randy/mounriver-studio-projects/UdpServer/NetLib/libwchnet.a(ethernetif.o) (lwip_init)
/home/randy/mounriver-studio-projects/UdpServer/NetLib/libwchnet.a(mem.o)
                              /home/randy/mounriver-studio-projects/UdpServer/NetLib/libwchnet.a(init.o) (mem_init)
/home/randy/mounriver-studio-projects/UdpServer/NetLib/libwchnet.a(memp.o)
                              /home/randy/mounriver-studio-projects/UdpServer/NetLib/libwchnet.a(init.o) (memp_init)
/home/randy/mounriver-studio-projects/UdpServer/NetLib/libwchnet.a(netif.o)
                              /home/randy/mounriver-studio-projects/UdpServer/NetLib/libwchnet.a(dhcp.o) (netif_set_ipaddr)
/home/randy/mounriver-studio-projects/UdpServer/NetLib/libwchnet.a(pbuf.o)
                              /home/randy/mounriver-studio-projects/UdpServer/NetLib/libwchnet.a(socket.o) (pbuf_header)
/home/randy/mounriver-studio-projects/UdpServer/NetLib/libwchnet.a(raw.o)
                              /home/randy/mounriver-studio-projects/UdpServer/NetLib/libwchnet.a(ip.o) (raw_input)
/home/randy/mounriver-studio-projects/UdpServer/NetLib/libwchnet.a(tcp.o)
                              /home/randy/mounriver-studio-projects/UdpServer/NetLib/libwchnet.a(socket.o) (tcp_bind)
/home/randy/mounriver-studio-projects/UdpServer/NetLib/libwchnet.a(tcp_in.o)
                              /home/randy/mounriver-studio-projects/UdpServer/NetLib/libwchnet.a(ip.o) (tcp_input)
/home/randy/mounriver-studio-projects/UdpServer/NetLib/libwchnet.a(tcp_out.o)
                              /home/randy/mounriver-studio-projects/UdpServer/NetLib/libwchnet.a(tcp.o) (tcp_enqueue)
/home/randy/mounriver-studio-projects/UdpServer/NetLib/libwchnet.a(udp.o)
                              /home/randy/mounriver-studio-projects/UdpServer/NetLib/libwchnet.a(ip.o) (udp_input)
/home/randy/mounriver-studio-projects/UdpServer/NetLib/libwchnet.a(icmp.o)
                              /home/randy/mounriver-studio-projects/UdpServer/NetLib/libwchnet.a(ip.o) (icmp_input)
/home/randy/mounriver-studio-projects/UdpServer/NetLib/libwchnet.a(inet_chksum.o)
                              /home/randy/mounriver-studio-projects/UdpServer/NetLib/libwchnet.a(tcp_in.o) (inet_chksum_pseudo)
/home/randy/Programs/MounRiverStudio/MounRiverStudio_Linux_X64_V230/MRS-linux-x64/resources/app/resources/linux/components/WCH/Toolchain/RISC-V Embedded GCC/bin/../lib/gcc/riscv-none-embed/8.2.0/../../../../riscv-none-embed/lib/rv32imacxw/ilp32/libprintf.a(wchprintf.o)
                              ./User/ch32v30x_it.o (printf)
/home/randy/Programs/MounRiverStudio/MounRiverStudio_Linux_X64_V230/MRS-linux-x64/resources/app/resources/linux/components/WCH/Toolchain/RISC-V Embedded GCC/bin/../lib/gcc/riscv-none-embed/8.2.0/rv32imacxw/ilp32/libgcc.a(save-restore.o)
                              ./User/config.o (__riscv_save_12)
/home/randy/Programs/MounRiverStudio/MounRiverStudio_Linux_X64_V230/MRS-linux-x64/resources/app/resources/linux/components/WCH/Toolchain/RISC-V Embedded GCC/bin/../lib/gcc/riscv-none-embed/8.2.0/../../../../riscv-none-embed/lib/rv32imacxw/ilp32/libg_nano.a(lib_a-atoi.o)
                              ./User/config.o (atoi)
/home/randy/Programs/MounRiverStudio/MounRiverStudio_Linux_X64_V230/MRS-linux-x64/resources/app/resources/linux/components/WCH/Toolchain/RISC-V Embedded GCC/bin/../lib/gcc/riscv-none-embed/8.2.0/../../../../riscv-none-embed/lib/rv32imacxw/ilp32/libg_nano.a(lib_a-locale.o)
                              ./User/gpio_mgr.o (__locale_ctype_ptr)
/home/randy/Programs/MounRiverStudio/MounRiverStudio_Linux_X64_V230/MRS-linux-x64/resources/app/resources/linux/components/WCH/Toolchain/RISC-V Embedded GCC/bin/../lib/gcc/riscv-none-embed/8.2.0/../../../../riscv-none-embed/lib/rv32imacxw/ilp32/libg_nano.a(lib_a-mbtowc_r.o)
                              /home/randy/Programs/MounRiverStudio/MounRiverStudio_Linux_X64_V230/MRS-linux-x64/resources/app/resources/linux/components/WCH/Toolchain/RISC-V Embedded GCC/bin/../lib/gcc/riscv-none-embed/8.2.0/../../../../riscv-none-embed/lib/rv32imacxw/ilp32/libg_nano.a(lib_a-locale.o) (__ascii_mbtowc)
/home/randy/Programs/MounRiverStudio/MounRiverStudio_Linux_X64_V230/MRS-linux-x64/resources/app/resources/linux/components/WCH/Toolchain/RISC-V Embedded GCC/bin/../lib/gcc/riscv-none-embed/8.2.0/../../../../riscv-none-embed/lib/rv32imacxw/ilp32/libg_nano.a(lib_a-memcpy.o)
                              ./User/config.o (memcpy)
/home/randy/Programs/MounRiverStudio/MounRiverStudio_Linux_X64_V230/MRS-linux-x64/resources/app/resources/linux/components/WCH/Toolchain/RISC-V Embedded GCC/bin/../lib/gcc/riscv-none-embed/8.2.0/../../../../riscv-none-embed/lib/rv32imacxw/ilp32/libg_nano.a(lib_a-memmove.o)
                              ./User/ini_parser.o (memmove)
/home/randy/Programs/MounRiverStudio/MounRiverStudio_Linux_X64_V230/MRS-linux-x64/resources/app/resources/linux/components/WCH/Toolchain/RISC-V Embedded GCC/bin/../lib/gcc/riscv-none-embed/8.2.0/../../../../riscv-none-embed/lib/rv32imacxw/ilp32/libg_nano.a(lib_a-memset.o)
                              ./User/config.o (memset)
/home/randy/Programs/MounRiverStudio/MounRiverStudio_Linux_X64_V230/MRS-linux-x64/resources/app/resources/linux/components/WCH/Toolchain/RISC-V Embedded GCC/bin/../lib/gcc/riscv-none-embed/8.2.0/../../../../riscv-none-embed/lib/rv32imacxw/ilp32/libg_nano.a(lib_a-sscanf.o)
                              ./User/config.o (sscanf)
/home/randy/Programs/MounRiverStudio/MounRiverStudio_Linux_X64_V230/MRS-linux-x64/resources/app/resources/linux/components/WCH/Toolchain/RISC-V Embedded GCC/bin/../lib/gcc/riscv-none-embed/8.2.0/../../../../riscv-none-embed/lib/rv32imacxw/ilp32/libg_nano.a(lib_a-stdio.o)
                              /home/randy/Programs/MounRiverStudio/MounRiverStudio_Linux_X64_V230/MRS-linux-x64/resources/app/resources/linux/components/WCH/Toolchain/RISC-V Embedded GCC/bin/../lib/gcc/riscv-none-embed/8.2.0/../../../../riscv-none-embed/lib/rv32imacxw/ilp32/libg_nano.a(lib_a-sscanf.o) (__seofread)
/home/randy/Programs/MounRiverStudio/MounRiverStudio_Linux_X64_V230/MRS-linux-x64/resources/app/resources/linux/components/WCH/Toolchain/RISC-V Embedded GCC/bin/../lib/gcc/riscv-none-embed/8.2.0/../../../../riscv-none-embed/lib/rv32imacxw/ilp32/libg_nano.a(lib_a-strchr.o)
                              ./User/ini_parser.o (strchr)
/home/randy/Programs/MounRiverStudio/MounRiverStudio_Linux_X64_V230/MRS-linux-x64/resources/app/resources/linux/components/WCH/Toolchain/RISC-V Embedded GCC/bin/../lib/gcc/riscv-none-embed/8.2.0/../../../../riscv-none-embed/lib/rv32imacxw/ilp32/libg_nano.a(lib_a-strcmp.o)
                              ./User/config.o (strcmp)
/home/randy/Programs/MounRiverStudio/MounRiverStudio_Linux_X64_V230/MRS-linux-x64/resources/app/resources/linux/components/WCH/Toolchain/RISC-V Embedded GCC/bin/../lib/gcc/riscv-none-embed/8.2.0/../../../../riscv-none-embed/lib/rv32imacxw/ilp32/libg_nano.a(lib_a-strcpy.o)
                              /home/randy/mounriver-studio-projects/UdpServer/NetLib/libwchnet.a(net_dhcp.o) (strcpy)
/home/randy/Programs/MounRiverStudio/MounRiverStudio_Linux_X64_V230/MRS-linux-x64/resources/app/resources/linux/components/WCH/Toolchain/RISC-V Embedded GCC/bin/../lib/gcc/riscv-none-embed/8.2.0/../../../../riscv-none-embed/lib/rv32imacxw/ilp32/libg_nano.a(lib_a-strlen.o)
                              ./User/config.o (strlen)
/home/randy/Programs/MounRiverStudio/MounRiverStudio_Linux_X64_V230/MRS-linux-x64/resources/app/resources/linux/components/WCH/Toolchain/RISC-V Embedded GCC/bin/../lib/gcc/riscv-none-embed/8.2.0/../../../../riscv-none-embed/lib/rv32imacxw/ilp32/libg_nano.a(lib_a-strncat.o)
                              ./User/config.o (strncat)
/home/randy/Programs/MounRiverStudio/MounRiverStudio_Linux_X64_V230/MRS-linux-x64/resources/app/resources/linux/components/WCH/Toolchain/RISC-V Embedded GCC/bin/../lib/gcc/riscv-none-embed/8.2.0/../../../../riscv-none-embed/lib/rv32imacxw/ilp32/libg_nano.a(lib_a-strncpy.o)
                              ./User/config.o (strncpy)
/home/randy/Programs/MounRiverStudio/MounRiverStudio_Linux_X64_V230/MRS-linux-x64/resources/app/resources/linux/components/WCH/Toolchain/RISC-V Embedded GCC/bin/../lib/gcc/riscv-none-embed/8.2.0/../../../../riscv-none-embed/lib/rv32imacxw/ilp32/libg_nano.a(lib_a-strtok.o)
                              ./User/config.o (strtok)
/home/randy/Programs/MounRiverStudio/MounRiverStudio_Linux_X64_V230/MRS-linux-x64/resources/app/resources/linux/components/WCH/Toolchain/RISC-V Embedded GCC/bin/../lib/gcc/riscv-none-embed/8.2.0/../../../../riscv-none-embed/lib/rv32imacxw/ilp32/libg_nano.a(lib_a-strtok_r.o)
                              /home/randy/Programs/MounRiverStudio/MounRiverStudio_Linux_X64_V230/MRS-linux-x64/resources/app/resources/linux/components/WCH/Toolchain/RISC-V Embedded GCC/bin/../lib/gcc/riscv-none-embed/8.2.0/../../../../riscv-none-embed/lib/rv32imacxw/ilp32/libg_nano.a(lib_a-strtok.o) (__strtok_r)
/home/randy/Programs/MounRiverStudio/MounRiverStudio_Linux_X64_V230/MRS-linux-x64/resources/app/resources/linux/components/WCH/Toolchain/RISC-V Embedded GCC/bin/../lib/gcc/riscv-none-embed/8.2.0/../../../../riscv-none-embed/lib/rv32imacxw/ilp32/libg_nano.a(lib_a-strtol.o)
                              /home/randy/Programs/MounRiverStudio/MounRiverStudio_Linux_X64_V230/MRS-linux-x64/resources/app/resources/linux/components/WCH/Toolchain/RISC-V Embedded GCC/bin/../lib/gcc/riscv-none-embed/8.2.0/../../../../riscv-none-embed/lib/rv32imacxw/ilp32/libg_nano.a(lib_a-atoi.o) (_strtol_r)
/home/randy/Programs/MounRiverStudio/MounRiverStudio_Linux_X64_V230/MRS-linux-x64/resources/app/resources/linux/components/WCH/Toolchain/RISC-V Embedded GCC/bin/../lib/gcc/riscv-none-embed/8.2.0/../../../../riscv-none-embed/lib/rv32imacxw/ilp32/libg_nano.a(lib_a-wctomb_r.o)
                              /home/randy/Programs/MounRiverStudio/MounRiverStudio_Linux_X64_V230/MRS-linux-x64/resources/app/resources/linux/components/WCH/Toolchain/RISC-V Embedded GCC/bin/../lib/gcc/riscv-none-embed/8.2.0/../../../../riscv-none-embed/lib/rv32imacxw/ilp32/libg_nano.a(lib_a-locale.o) (__ascii_wctomb)
/home/randy/Programs/MounRiverStudio/MounRiverStudio_Linux_X64_V230/MRS-linux-x64/resources/app/resources/linux/components/WCH/Toolchain/RISC-V Embedded GCC/bin/../lib/gcc/riscv-none-embed/8.2.0/../../../../riscv-none-embed/lib/rv32imacxw/ilp32/libg_nano.a(lib_a-writer.o)
                              /home/randy/Programs/MounRiverStudio/MounRiverStudio_Linux_X64_V230/MRS-linux-x64/resources/app/resources/linux/components/WCH/Toolchain/RISC-V Embedded GCC/bin/../lib/gcc/riscv-none-embed/8.2.0/../../../../riscv-none-embed/lib/rv32imacxw/ilp32/libg_nano.a(lib_a-stdio.o) (_write_r)
/home/randy/Programs/MounRiverStudio/MounRiverStudio_Linux_X64_V230/MRS-linux-x64/resources/app/resources/linux/components/WCH/Toolchain/RISC-V Embedded GCC/bin/../lib/gcc/riscv-none-embed/8.2.0/../../../../riscv-none-embed/lib/rv32imacxw/ilp32/libg_nano.a(lib_a-closer.o)
                              /home/randy/Programs/MounRiverStudio/MounRiverStudio_Linux_X64_V230/MRS-linux-x64/resources/app/resources/linux/components/WCH/Toolchain/RISC-V Embedded GCC/bin/../lib/gcc/riscv-none-embed/8.2.0/../../../../riscv-none-embed/lib/rv32imacxw/ilp32/libg_nano.a(lib_a-stdio.o) (_close_r)
/home/randy/Programs/MounRiverStudio/MounRiverStudio_Linux_X64_V230/MRS-linux-x64/resources/app/resources/linux/components/WCH/Toolchain/RISC-V Embedded GCC/bin/../lib/gcc/riscv-none-embed/8.2.0/../../../../riscv-none-embed/lib/rv32imacxw/ilp32/libg_nano.a(lib_a-ctype_.o)
                              /home/randy/Programs/MounRiverStudio/MounRiverStudio_Linux_X64_V230/MRS-linux-x64/resources/app/resources/linux/components/WCH/Toolchain/RISC-V Embedded GCC/bin/../lib/gcc/riscv-none-embed/8.2.0/../../../../riscv-none-embed/lib/rv32imacxw/ilp32/libg_nano.a(lib_a-locale.o) (_ctype_)
/home/randy/Programs/MounRiverStudio/MounRiverStudio_Linux_X64_V230/MRS-linux-x64/resources/app/resources/linux/components/WCH/Toolchain/RISC-V Embedded GCC/bin/../lib/gcc/riscv-none-embed/8.2.0/../../../../riscv-none-embed/lib/rv32imacxw/ilp32/libg_nano.a(lib_a-impure.o)
                              /home/randy/Programs/MounRiverStudio/MounRiverStudio_Linux_X64_V230/MRS-linux-x64/resources/app/resources/linux/components/WCH/Toolchain/RISC-V Embedded GCC/bin/../lib/gcc/riscv-none-embed/8.2.0/../../../../riscv-none-embed/lib/rv32imacxw/ilp32/libg_nano.a(lib_a-locale.o) (_impure_ptr)
/home/randy/Programs/MounRiverStudio/MounRiverStudio_Linux_X64_V230/MRS-linux-x64/resources/app/resources/linux/components/WCH/Toolchain/RISC-V Embedded GCC/bin/../lib/gcc/riscv-none-embed/8.2.0/../../../../riscv-none-embed/lib/rv32imacxw/ilp32/libg_nano.a(lib_a-lseekr.o)
                              /home/randy/Programs/MounRiverStudio/MounRiverStudio_Linux_X64_V230/MRS-linux-x64/resources/app/resources/linux/components/WCH/Toolchain/RISC-V Embedded GCC/bin/../lib/gcc/riscv-none-embed/8.2.0/../../../../riscv-none-embed/lib/rv32imacxw/ilp32/libg_nano.a(lib_a-stdio.o) (_lseek_r)
/home/randy/Programs/MounRiverStudio/MounRiverStudio_Linux_X64_V230/MRS-linux-x64/resources/app/resources/linux/components/WCH/Toolchain/RISC-V Embedded GCC/bin/../lib/gcc/riscv-none-embed/8.2.0/../../../../riscv-none-embed/lib/rv32imacxw/ilp32/libg_nano.a(lib_a-malloc.o)
                              /home/randy/Programs/MounRiverStudio/MounRiverStudio_Linux_X64_V230/MRS-linux-x64/resources/app/resources/linux/components/WCH/Toolchain/RISC-V Embedded GCC/bin/../lib/gcc/riscv-none-embed/8.2.0/../../../../riscv-none-embed/lib/rv32imacxw/ilp32/libg_nano.a(lib_a-strtok.o) (malloc)
/home/randy/Programs/MounRiverStudio/MounRiverStudio_Linux_X64_V230/MRS-linux-x64/resources/app/resources/linux/components/WCH/Toolchain/RISC-V Embedded GCC/bin/../lib/gcc/riscv-none-embed/8.2.0/../../../../riscv-none-embed/lib/rv32imacxw/ilp32/libg_nano.a(lib_a-nano-freer.o)
                              /home/randy/Programs/MounRiverStudio/MounRiverStudio_Linux_X64_V230/MRS-linux-x64/resources/app/resources/linux/components/WCH/Toolchain/RISC-V Embedded GCC/bin/../lib/gcc/riscv-none-embed/8.2.0/../../../../riscv-none-embed/lib/rv32imacxw/ilp32/libg_nano.a(lib_a-malloc.o) (_free_r)
/home/randy/Programs/MounRiverStudio/MounRiverStudio_Linux_X64_V230/MRS-linux-x64/resources/app/resources/linux/components/WCH/Toolchain/RISC-V Embedded GCC/bin/../lib/gcc/riscv-none-embed/8.2.0/../../../../riscv-none-embed/lib/rv32imacxw/ilp32/libg_nano.a(lib_a-nano-mallocr.o)
                              /home/randy/Programs/MounRiverStudio/MounRiverStudio_Linux_X64_V230/MRS-linux-x64/resources/app/resources/linux/components/WCH/Toolchain/RISC-V Embedded GCC/bin/../lib/gcc/riscv-none-embed/8.2.0/../../../../riscv-none-embed/lib/rv32imacxw/ilp32/libg_nano.a(lib_a-malloc.o) (_malloc_r)
/home/randy/Programs/MounRiverStudio/MounRiverStudio_Linux_X64_V230/MRS-linux-x64/resources/app/resources/linux/components/WCH/Toolchain/RISC-V Embedded GCC/bin/../lib/gcc/riscv-none-embed/8.2.0/../../../../riscv-none-embed/lib/rv32imacxw/ilp32/libg_nano.a(lib_a-nano-svfscanf.o)
                              /home/randy/Programs/MounRiverStudio/MounRiverStudio_Linux_X64_V230/MRS-linux-x64/resources/app/resources/linux/components/WCH/Toolchain/RISC-V Embedded GCC/bin/../lib/gcc/riscv-none-embed/8.2.0/../../../../riscv-none-embed/lib/rv32imacxw/ilp32/libg_nano.a(lib_a-sscanf.o) (__ssvfscanf_r)
/home/randy/Programs/MounRiverStudio/MounRiverStudio_Linux_X64_V230/MRS-linux-x64/resources/app/resources/linux/components/WCH/Toolchain/RISC-V Embedded GCC/bin/../lib/gcc/riscv-none-embed/8.2.0/../../../../riscv-none-embed/lib/rv32imacxw/ilp32/libg_nano.a(lib_a-nano-vfscanf_i.o)
                              /home/randy/Programs/MounRiverStudio/MounRiverStudio_Linux_X64_V230/MRS-linux-x64/resources/app/resources/linux/components/WCH/Toolchain/RISC-V Embedded GCC/bin/../lib/gcc/riscv-none-embed/8.2.0/../../../../riscv-none-embed/lib/rv32imacxw/ilp32/libg_nano.a(lib_a-nano-svfscanf.o) (_scanf_chars)
/home/randy/Programs/MounRiverStudio/MounRiverStudio_Linux_X64_V230/MRS-linux-x64/resources/app/resources/linux/components/WCH/Toolchain/RISC-V Embedded GCC/bin/../lib/gcc/riscv-none-embed/8.2.0/../../../../riscv-none-embed/lib/rv32imacxw/ilp32/libg_nano.a(lib_a-readr.o)
                              /home/randy/Programs/MounRiverStudio/MounRiverStudio_Linux_X64_V230/MRS-linux-x64/resources/app/resources/linux/components/WCH/Toolchain/RISC-V Embedded GCC/bin/../lib/gcc/riscv-none-embed/8.2.0/../../../../riscv-none-embed/lib/rv32imacxw/ilp32/libg_nano.a(lib_a-stdio.o) (_read_r)
/home/randy/Programs/MounRiverStudio/MounRiverStudio_Linux_X64_V230/MRS-linux-x64/resources/app/resources/linux/components/WCH/Toolchain/RISC-V Embedded GCC/bin/../lib/gcc/riscv-none-embed/8.2.0/../../../../riscv-none-embed/lib/rv32imacxw/ilp32/libg_nano.a(lib_a-reent.o)
                              /home/randy/Programs/MounRiverStudio/MounRiverStudio_Linux_X64_V230/MRS-linux-x64/resources/app/resources/linux/components/WCH/Toolchain/RISC-V Embedded GCC/bin/../lib/gcc/riscv-none-embed/8.2.0/../../../../riscv-none-embed/lib/rv32imacxw/ilp32/libg_nano.a(lib_a-writer.o) (errno)
/home/randy/Programs/MounRiverStudio/MounRiverStudio_Linux_X64_V230/MRS-linux-x64/resources/app/resources/linux/components/WCH/Toolchain/RISC-V Embedded GCC/bin/../lib/gcc/riscv-none-embed/8.2.0/../../../../riscv-none-embed/lib/rv32imacxw/ilp32/libg_nano.a(lib_a-sbrkr.o)
                              /home/randy/Programs/MounRiverStudio/MounRiverStudio_Linux_X64_V230/MRS-linux-x64/resources/app/resources/linux/components/WCH/Toolchain/RISC-V Embedded GCC/bin/../lib/gcc/riscv-none-embed/8.2.0/../../../../riscv-none-embed/lib/rv32imacxw/ilp32/libg_nano.a(lib_a-nano-mallocr.o) (_sbrk_r)
/home/randy/Programs/MounRiverStudio/MounRiverStudio_Linux_X64_V230/MRS-linux-x64/resources/app/resources/linux/components/WCH/Toolchain/RISC-V Embedded GCC/bin/../lib/gcc/riscv-none-embed/8.2.0/../../../../riscv-none-embed/lib/rv32imacxw/ilp32/libg_nano.a(lib_a-sccl.o)
                              /home/randy/Programs/MounRiverStudio/MounRiverStudio_Linux_X64_V230/MRS-linux-x64/resources/app/resources/linux/components/WCH/Toolchain/RISC-V Embedded GCC/bin/../lib/gcc/riscv-none-embed/8.2.0/../../../../riscv-none-embed/lib/rv32imacxw/ilp32/libg_nano.a(lib_a-nano-svfscanf.o) (__sccl)
/home/randy/Programs/MounRiverStudio/MounRiverStudio_Linux_X64_V230/MRS-linux-x64/resources/app/resources/linux/components/WCH/Toolchain/RISC-V Embedded GCC/bin/../lib/gcc/riscv-none-embed/8.2.0/../../../../riscv-none-embed/lib/rv32imacxw/ilp32/libg_nano.a(lib_a-strtoul.o)
                              /home/randy/Programs/MounRiverStudio/MounRiverStudio_Linux_X64_V230/MRS-linux-x64/resources/app/resources/linux/components/WCH/Toolchain/RISC-V Embedded GCC/bin/../lib/gcc/riscv-none-embed/8.2.0/../../../../riscv-none-embed/lib/rv32imacxw/ilp32/libg_nano.a(lib_a-nano-vfscanf_i.o) (_strtoul_r)
/home/randy/Programs/MounRiverStudio/MounRiverStudio_Linux_X64_V230/MRS-linux-x64/resources/app/resources/linux/components/WCH/Toolchain/RISC-V Embedded GCC/bin/../lib/gcc/riscv-none-embed/8.2.0/../../../../riscv-none-embed/lib/rv32imacxw/ilp32/libg_nano.a(lib_a-ungetc.o)
                              /home/randy/Programs/MounRiverStudio/MounRiverStudio_Linux_X64_V230/MRS-linux-x64/resources/app/resources/linux/components/WCH/Toolchain/RISC-V Embedded GCC/bin/../lib/gcc/riscv-none-embed/8.2.0/../../../../riscv-none-embed/lib/rv32imacxw/ilp32/libg_nano.a(lib_a-nano-svfscanf.o) (__submore)
/home/randy/Programs/MounRiverStudio/MounRiverStudio_Linux_X64_V230/MRS-linux-x64/resources/app/resources/linux/components/WCH/Toolchain/RISC-V Embedded GCC/bin/../lib/gcc/riscv-none-embed/8.2.0/../../../../riscv-none-embed/lib/rv32imacxw/ilp32/libg_nano.a(lib_a-fflush.o)
                              /home/randy/Programs/MounRiverStudio/MounRiverStudio_Linux_X64_V230/MRS-linux-x64/resources/app/resources/linux/components/WCH/Toolchain/RISC-V Embedded GCC/bin/../lib/gcc/riscv-none-embed/8.2.0/../../../../riscv-none-embed/lib/rv32imacxw/ilp32/libg_nano.a(lib_a-ungetc.o) (_fflush_r)
/home/randy/Programs/MounRiverStudio/MounRiverStudio_Linux_X64_V230/MRS-linux-x64/resources/app/resources/linux/components/WCH/Toolchain/RISC-V Embedded GCC/bin/../lib/gcc/riscv-none-embed/8.2.0/../../../../riscv-none-embed/lib/rv32imacxw/ilp32/libg_nano.a(lib_a-findfp.o)
                              /home/randy/Programs/MounRiverStudio/MounRiverStudio_Linux_X64_V230/MRS-linux-x64/resources/app/resources/linux/components/WCH/Toolchain/RISC-V Embedded GCC/bin/../lib/gcc/riscv-none-embed/8.2.0/../../../../riscv-none-embed/lib/rv32imacxw/ilp32/libg_nano.a(lib_a-ungetc.o) (__sinit)
/home/randy/Programs/MounRiverStudio/MounRiverStudio_Linux_X64_V230/MRS-linux-x64/resources/app/resources/linux/components/WCH/Toolchain/RISC-V Embedded GCC/bin/../lib/gcc/riscv-none-embed/8.2.0/../../../../riscv-none-embed/lib/rv32imacxw/ilp32/libg_nano.a(lib_a-fwalk.o)
                              /home/randy/Programs/MounRiverStudio/MounRiverStudio_Linux_X64_V230/MRS-linux-x64/resources/app/resources/linux/components/WCH/Toolchain/RISC-V Embedded GCC/bin/../lib/gcc/riscv-none-embed/8.2.0/../../../../riscv-none-embed/lib/rv32imacxw/ilp32/libg_nano.a(lib_a-findfp.o) (_fwalk)
/home/randy/Programs/MounRiverStudio/MounRiverStudio_Linux_X64_V230/MRS-linux-x64/resources/app/resources/linux/components/WCH/Toolchain/RISC-V Embedded GCC/bin/../lib/gcc/riscv-none-embed/8.2.0/../../../../riscv-none-embed/lib/rv32imacxw/ilp32/libg_nano.a(lib_a-memchr.o)
                              /home/randy/Programs/MounRiverStudio/MounRiverStudio_Linux_X64_V230/MRS-linux-x64/resources/app/resources/linux/components/WCH/Toolchain/RISC-V Embedded GCC/bin/../lib/gcc/riscv-none-embed/8.2.0/../../../../riscv-none-embed/lib/rv32imacxw/ilp32/libg_nano.a(lib_a-nano-svfscanf.o) (memchr)
/home/randy/Programs/MounRiverStudio/MounRiverStudio_Linux_X64_V230/MRS-linux-x64/resources/app/resources/linux/components/WCH/Toolchain/RISC-V Embedded GCC/bin/../lib/gcc/riscv-none-embed/8.2.0/../../../../riscv-none-embed/lib/rv32imacxw/ilp32/libg_nano.a(lib_a-mlock.o)
                              /home/randy/Programs/MounRiverStudio/MounRiverStudio_Linux_X64_V230/MRS-linux-x64/resources/app/resources/linux/components/WCH/Toolchain/RISC-V Embedded GCC/bin/../lib/gcc/riscv-none-embed/8.2.0/../../../../riscv-none-embed/lib/rv32imacxw/ilp32/libg_nano.a(lib_a-nano-freer.o) (__malloc_lock)
/home/randy/Programs/MounRiverStudio/MounRiverStudio_Linux_X64_V230/MRS-linux-x64/resources/app/resources/linux/components/WCH/Toolchain/RISC-V Embedded GCC/bin/../lib/gcc/riscv-none-embed/8.2.0/../../../../riscv-none-embed/lib/rv32imacxw/ilp32/libg_nano.a(lib_a-nano-reallocr.o)
                              /home/randy/Programs/MounRiverStudio/MounRiverStudio_Linux_X64_V230/MRS-linux-x64/resources/app/resources/linux/components/WCH/Toolchain/RISC-V Embedded GCC/bin/../lib/gcc/riscv-none-embed/8.2.0/../../../../riscv-none-embed/lib/rv32imacxw/ilp32/libg_nano.a(lib_a-ungetc.o) (_realloc_r)
/home/randy/Programs/MounRiverStudio/MounRiverStudio_Linux_X64_V230/MRS-linux-x64/resources/app/resources/linux/components/WCH/Toolchain/RISC-V Embedded GCC/bin/../lib/gcc/riscv-none-embed/8.2.0/../../../../riscv-none-embed/lib/rv32imacxw/ilp32/libg_nano.a(lib_a-nano-msizer.o)
                              /home/randy/Programs/MounRiverStudio/MounRiverStudio_Linux_X64_V230/MRS-linux-x64/resources/app/resources/linux/components/WCH/Toolchain/RISC-V Embedded GCC/bin/../lib/gcc/riscv-none-embed/8.2.0/../../../../riscv-none-embed/lib/rv32imacxw/ilp32/libg_nano.a(lib_a-nano-reallocr.o) (_malloc_usable_size_r)
/home/randy/Programs/MounRiverStudio/MounRiverStudio_Linux_X64_V230/MRS-linux-x64/resources/app/resources/linux/components/WCH/Toolchain/RISC-V Embedded GCC/bin/../lib/gcc/riscv-none-embed/8.2.0/../../../../riscv-none-embed/lib/rv32imacxw/ilp32/libnosys.a(close.o)
                              /home/randy/Programs/MounRiverStudio/MounRiverStudio_Linux_X64_V230/MRS-linux-x64/resources/app/resources/linux/components/WCH/Toolchain/RISC-V Embedded GCC/bin/../lib/gcc/riscv-none-embed/8.2.0/../../../../riscv-none-embed/lib/rv32imacxw/ilp32/libg_nano.a(lib_a-closer.o) (_close)
/home/randy/Programs/MounRiverStudio/MounRiverStudio_Linux_X64_V230/MRS-linux-x64/resources/app/resources/linux/components/WCH/Toolchain/RISC-V Embedded GCC/bin/../lib/gcc/riscv-none-embed/8.2.0/../../../../riscv-none-embed/lib/rv32imacxw/ilp32/libnosys.a(lseek.o)
                              /home/randy/Programs/MounRiverStudio/MounRiverStudio_Linux_X64_V230/MRS-linux-x64/resources/app/resources/linux/components/WCH/Toolchain/RISC-V Embedded GCC/bin/../lib/gcc/riscv-none-embed/8.2.0/../../../../riscv-none-embed/lib/rv32imacxw/ilp32/libg_nano.a(lib_a-lseekr.o) (_lseek)
/home/randy/Programs/MounRiverStudio/MounRiverStudio_Linux_X64_V230/MRS-linux-x64/resources/app/resources/linux/components/WCH/Toolchain/RISC-V Embedded GCC/bin/../lib/gcc/riscv-none-embed/8.2.0/../../../../riscv-none-embed/lib/rv32imacxw/ilp32/libnosys.a(read.o)
                              /home/randy/Programs/MounRiverStudio/MounRiverStudio_Linux_X64_V230/MRS-linux-x64/resources/app/resources/linux/components/WCH/Toolchain/RISC-V Embedded GCC/bin/../lib/gcc/riscv-none-embed/8.2.0/../../../../riscv-none-embed/lib/rv32imacxw/ilp32/libg_nano.a(lib_a-readr.o) (_read)

Allocating common symbols
Common symbol       size              file

errno               0x4               /home/randy/Programs/MounRiverStudio/MounRiverStudio_Linux_X64_V230/MRS-linux-x64/resources/app/resources/linux/components/WCH/Toolchain/RISC-V Embedded GCC/bin/../lib/gcc/riscv-none-embed/8.2.0/../../../../riscv-none-embed/lib/rv32imacxw/ilp32/libg_nano.a(lib_a-reent.o)

Discarded input sections

 .text          0x0000000000000000        0x0 ./User/ch32v30x_it.o
 .data          0x0000000000000000        0x0 ./User/ch32v30x_it.o
 .bss           0x0000000000000000        0x0 ./User/ch32v30x_it.o
 .text          0x0000000000000000        0x0 ./User/config.o
 .data          0x0000000000000000        0x0 ./User/config.o
 .bss           0x0000000000000000        0x0 ./User/config.o
 .text          0x0000000000000000        0x0 ./User/gpio_mgr.o
 .data          0x0000000000000000        0x0 ./User/gpio_mgr.o
 .bss           0x0000000000000000        0x0 ./User/gpio_mgr.o
 .text          0x0000000000000000        0x0 ./User/ini_parser.o
 .data          0x0000000000000000        0x0 ./User/ini_parser.o
 .bss           0x0000000000000000        0x0 ./User/ini_parser.o
 .text          0x0000000000000000        0x0 ./User/main.o
 .data          0x0000000000000000        0x0 ./User/main.o
 .bss           0x0000000000000000        0x0 ./User/main.o
 .text.WCHNET_HandleSockInt
                0x0000000000000000       0x54 ./User/main.o
 .text.WCHNET_HandleGlobalInt
                0x0000000000000000       0x86 ./User/main.o
 .rodata.WCHNET_HandleGlobalInt.str1.4
                0x0000000000000000       0x3e ./User/main.o
 .rodata.WCHNET_HandleSockInt.str1.4
                0x0000000000000000       0x35 ./User/main.o
 .text          0x0000000000000000        0x0 ./User/system_ch32v30x.o
 .data          0x0000000000000000        0x0 ./User/system_ch32v30x.o
 .bss           0x0000000000000000        0x0 ./User/system_ch32v30x.o
 .text          0x0000000000000000        0x0 ./User/timebase.o
 .data          0x0000000000000000        0x0 ./User/timebase.o
 .bss           0x0000000000000000        0x0 ./User/timebase.o
 .text          0x0000000000000000        0x0 ./Startup/startup_ch32v30x_D8C.o
 .data          0x0000000000000000        0x0 ./Startup/startup_ch32v30x_D8C.o
 .bss           0x0000000000000000        0x0 ./Startup/startup_ch32v30x_D8C.o
 .text          0x0000000000000000        0x0 ./Peripheral/src/ch32v30x_dbgmcu.o
 .data          0x0000000000000000        0x0 ./Peripheral/src/ch32v30x_dbgmcu.o
 .bss           0x0000000000000000        0x0 ./Peripheral/src/ch32v30x_dbgmcu.o
 .text.DBGMCU_GetREVID
                0x0000000000000000        0xa ./Peripheral/src/ch32v30x_dbgmcu.o
 .text.DBGMCU_GetDEVID
                0x0000000000000000        0xa ./Peripheral/src/ch32v30x_dbgmcu.o
 .text.__get_DEBUG_CR
                0x0000000000000000        0x6 ./Peripheral/src/ch32v30x_dbgmcu.o
 .text.__set_DEBUG_CR
                0x0000000000000000        0x6 ./Peripheral/src/ch32v30x_dbgmcu.o
 .text.DBGMCU_Config
                0x0000000000000000       0x14 ./Peripheral/src/ch32v30x_dbgmcu.o
 .text          0x0000000000000000        0x0 ./Peripheral/src/ch32v30x_eth.o
 .data          0x0000000000000000        0x0 ./Peripheral/src/ch32v30x_eth.o
 .bss           0x0000000000000000        0x0 ./Peripheral/src/ch32v30x_eth.o
 .text.ETH_StructInit
                0x0000000000000000       0xd8 ./Peripheral/src/ch32v30x_eth.o
 .text.ETH_HandleTxPkt
                0x0000000000000000       0x8c ./Peripheral/src/ch32v30x_eth.o
 .text.ETH_HandleRxPkt
                0x0000000000000000       0x9e ./Peripheral/src/ch32v30x_eth.o
 .text.ETH_GetRxPktSize
                0x0000000000000000       0x32 ./Peripheral/src/ch32v30x_eth.o
 .text.ETH_DropRxPkt
                0x0000000000000000       0x3c ./Peripheral/src/ch32v30x_eth.o
 .text.ETH_PHYLoopBackCmd
                0x0000000000000000       0x40 ./Peripheral/src/ch32v30x_eth.o
 .text.ETH_MACTransmissionCmd
                0x0000000000000000       0x14 ./Peripheral/src/ch32v30x_eth.o
 .text.ETH_MACReceptionCmd
                0x0000000000000000       0x14 ./Peripheral/src/ch32v30x_eth.o
 .text.ETH_GetFlowControlBusyStatus
                0x0000000000000000        0xa ./Peripheral/src/ch32v30x_eth.o
 .text.ETH_InitiatePauseControlFrame
                0x0000000000000000        0xe ./Peripheral/src/ch32v30x_eth.o
 .text.ETH_BackPressureActivationCmd
                0x0000000000000000       0x14 ./Peripheral/src/ch32v30x_eth.o
 .text.ETH_GetMACFlagStatus
                0x0000000000000000        0xe ./Peripheral/src/ch32v30x_eth.o
 .text.ETH_GetMACITStatus
                0x0000000000000000       0x18 ./Peripheral/src/ch32v30x_eth.o
 .text.ETH_MACITConfig
                0x0000000000000000       0x1e ./Peripheral/src/ch32v30x_eth.o
 .text.ETH_MACAddressConfig
                0x0000000000000000       0x32 ./Peripheral/src/ch32v30x_eth.o
 .text.ETH_GetMACAddress
                0x0000000000000000       0x32 ./Peripheral/src/ch32v30x_eth.o
 .text.ETH_MACAddressPerfectFilterCmd
                0x0000000000000000       0x1e ./Peripheral/src/ch32v30x_eth.o
 .text.ETH_MACAddressFilterConfig
                0x0000000000000000       0x28 ./Peripheral/src/ch32v30x_eth.o
 .text.ETH_MACAddressMaskBytesFilterConfig
                0x0000000000000000       0x1e ./Peripheral/src/ch32v30x_eth.o
 .text.ETH_DMATxDescRingInit
                0x0000000000000000       0x44 ./Peripheral/src/ch32v30x_eth.o
 .text.ETH_GetDMATxDescFlagStatus
                0x0000000000000000        0xa ./Peripheral/src/ch32v30x_eth.o
 .text.ETH_GetDMATxDescCollisionCount
                0x0000000000000000        0x8 ./Peripheral/src/ch32v30x_eth.o
 .text.ETH_SetDMATxDescOwnBit
                0x0000000000000000        0xc ./Peripheral/src/ch32v30x_eth.o
 .text.ETH_DMATxDescTransmitITConfig
                0x0000000000000000       0x18 ./Peripheral/src/ch32v30x_eth.o
 .text.ETH_DMATxDescFrameSegmentConfig
                0x0000000000000000        0x8 ./Peripheral/src/ch32v30x_eth.o
 .text.ETH_DMATxDescChecksumInsertionConfig
                0x0000000000000000        0x8 ./Peripheral/src/ch32v30x_eth.o
 .text.ETH_DMATxDescCRCCmd
                0x0000000000000000       0x18 ./Peripheral/src/ch32v30x_eth.o
 .text.ETH_DMATxDescEndOfRingCmd
                0x0000000000000000       0x18 ./Peripheral/src/ch32v30x_eth.o
 .text.ETH_DMATxDescSecondAddressChainedCmd
                0x0000000000000000       0x18 ./Peripheral/src/ch32v30x_eth.o
 .text.ETH_DMATxDescShortFramePaddingCmd
                0x0000000000000000       0x18 ./Peripheral/src/ch32v30x_eth.o
 .text.ETH_DMATxDescTimeStampCmd
                0x0000000000000000       0x18 ./Peripheral/src/ch32v30x_eth.o
 .text.ETH_DMATxDescBufferSizeConfig
                0x0000000000000000        0xc ./Peripheral/src/ch32v30x_eth.o
 .text.ETH_DMARxDescRingInit
                0x0000000000000000       0x52 ./Peripheral/src/ch32v30x_eth.o
 .text.ETH_GetDMARxDescFlagStatus
                0x0000000000000000        0xa ./Peripheral/src/ch32v30x_eth.o
 .text.ETH_SetDMARxDescOwnBit
                0x0000000000000000        0xc ./Peripheral/src/ch32v30x_eth.o
 .text.ETH_GetDMARxDescFrameLength
                0x0000000000000000        0x8 ./Peripheral/src/ch32v30x_eth.o
 .text.ETH_DMARxDescReceiveITConfig
                0x0000000000000000       0x14 ./Peripheral/src/ch32v30x_eth.o
 .text.ETH_DMARxDescEndOfRingCmd
                0x0000000000000000       0x14 ./Peripheral/src/ch32v30x_eth.o
 .text.ETH_DMARxDescSecondAddressChainedCmd
                0x0000000000000000       0x14 ./Peripheral/src/ch32v30x_eth.o
 .text.ETH_GetDMARxDescBufferSize
                0x0000000000000000        0xe ./Peripheral/src/ch32v30x_eth.o
 .text.ETH_GetSoftwareResetStatus
                0x0000000000000000        0xa ./Peripheral/src/ch32v30x_eth.o
 .text.ETH_GetlinkStaus
                0x0000000000000000        0xa ./Peripheral/src/ch32v30x_eth.o
 .text.ETH_GetDMAFlagStatus
                0x0000000000000000        0xe ./Peripheral/src/ch32v30x_eth.o
 .text.ETH_DMAClearFlag
                0x0000000000000000        0x8 ./Peripheral/src/ch32v30x_eth.o
 .text.ETH_GetDMAITStatus
                0x0000000000000000       0x18 ./Peripheral/src/ch32v30x_eth.o
 .text.ETH_GetTransmitProcessState
                0x0000000000000000        0xa ./Peripheral/src/ch32v30x_eth.o
 .text.ETH_GetReceiveProcessState
                0x0000000000000000        0xc ./Peripheral/src/ch32v30x_eth.o
 .text.ETH_GetFlushTransmitFIFOStatus
                0x0000000000000000        0xc ./Peripheral/src/ch32v30x_eth.o
 .text.ETH_DMATransmissionCmd
                0x0000000000000000       0x20 ./Peripheral/src/ch32v30x_eth.o
 .text.ETH_DMAReceptionCmd
                0x0000000000000000       0x14 ./Peripheral/src/ch32v30x_eth.o
 .text.ETH_GetDMAOverflowStatus
                0x0000000000000000        0xe ./Peripheral/src/ch32v30x_eth.o
 .text.ETH_GetRxOverflowMissedFrameCounter
                0x0000000000000000        0xe ./Peripheral/src/ch32v30x_eth.o
 .text.ETH_GetBufferUnavailableMissedFrameCounter
                0x0000000000000000        0xc ./Peripheral/src/ch32v30x_eth.o
 .text.ETH_GetCurrentTxDescStartAddress
                0x0000000000000000        0x8 ./Peripheral/src/ch32v30x_eth.o
 .text.ETH_GetCurrentRxDescStartAddress
                0x0000000000000000        0x8 ./Peripheral/src/ch32v30x_eth.o
 .text.ETH_GetCurrentTxBufferAddress
                0x0000000000000000        0xc ./Peripheral/src/ch32v30x_eth.o
 .text.ETH_GetCurrentRxBufferAddress
                0x0000000000000000        0x8 ./Peripheral/src/ch32v30x_eth.o
 .text.ETH_ResumeDMATransmission
                0x0000000000000000        0xa ./Peripheral/src/ch32v30x_eth.o
 .text.ETH_ResumeDMAReception
                0x0000000000000000        0xa ./Peripheral/src/ch32v30x_eth.o
 .text.ETH_ResetWakeUpFrameFilterRegisterPointer
                0x0000000000000000       0x10 ./Peripheral/src/ch32v30x_eth.o
 .text.ETH_SetWakeUpFrameFilterRegister
                0x0000000000000000       0x14 ./Peripheral/src/ch32v30x_eth.o
 .text.ETH_GlobalUnicastWakeUpCmd
                0x0000000000000000       0x16 ./Peripheral/src/ch32v30x_eth.o
 .text.ETH_GetPMTFlagStatus
                0x0000000000000000        0xe ./Peripheral/src/ch32v30x_eth.o
 .text.ETH_WakeUpFrameDetectionCmd
                0x0000000000000000       0x14 ./Peripheral/src/ch32v30x_eth.o
 .text.ETH_MagicPacketDetectionCmd
                0x0000000000000000       0x14 ./Peripheral/src/ch32v30x_eth.o
 .text.ETH_PowerDownCmd
                0x0000000000000000       0x14 ./Peripheral/src/ch32v30x_eth.o
 .text.ETH_MMCCounterFreezeCmd
                0x0000000000000000       0x18 ./Peripheral/src/ch32v30x_eth.o
 .text.ETH_MMCResetOnReadCmd
                0x0000000000000000       0x18 ./Peripheral/src/ch32v30x_eth.o
 .text.ETH_MMCCounterRolloverCmd
                0x0000000000000000       0x18 ./Peripheral/src/ch32v30x_eth.o
 .text.ETH_MMCCountersReset
                0x0000000000000000       0x12 ./Peripheral/src/ch32v30x_eth.o
 .text.ETH_MMCITConfig
                0x0000000000000000       0x5c ./Peripheral/src/ch32v30x_eth.o
 .text.ETH_GetMMCITStatus
                0x0000000000000000       0x3a ./Peripheral/src/ch32v30x_eth.o
 .text.ETH_GetMMCRegister
                0x0000000000000000        0xa ./Peripheral/src/ch32v30x_eth.o
 .text.ETH_EnablePTPTimeStampAddend
                0x0000000000000000       0x12 ./Peripheral/src/ch32v30x_eth.o
 .text.ETH_EnablePTPTimeStampInterruptTrigger
                0x0000000000000000       0x12 ./Peripheral/src/ch32v30x_eth.o
 .text.ETH_EnablePTPTimeStampUpdate
                0x0000000000000000       0x12 ./Peripheral/src/ch32v30x_eth.o
 .text.ETH_InitializePTPTimeStamp
                0x0000000000000000       0x12 ./Peripheral/src/ch32v30x_eth.o
 .text.ETH_PTPUpdateMethodConfig
                0x0000000000000000       0x18 ./Peripheral/src/ch32v30x_eth.o
 .text.ETH_PTPTimeStampCmd
                0x0000000000000000       0x18 ./Peripheral/src/ch32v30x_eth.o
 .text.ETH_GetPTPFlagStatus
                0x0000000000000000       0x10 ./Peripheral/src/ch32v30x_eth.o
 .text.ETH_SetPTPSubSecondIncrement
                0x0000000000000000        0xa ./Peripheral/src/ch32v30x_eth.o
 .text.ETH_SetPTPTimeStampUpdate
                0x0000000000000000       0x10 ./Peripheral/src/ch32v30x_eth.o
 .text.ETH_SetPTPTimeStampAddend
                0x0000000000000000        0xa ./Peripheral/src/ch32v30x_eth.o
 .text.ETH_SetPTPTargetTime
                0x0000000000000000        0xe ./Peripheral/src/ch32v30x_eth.o
 .text.ETH_GetPTPRegister
                0x0000000000000000        0xa ./Peripheral/src/ch32v30x_eth.o
 .text.ETH_DMAPTPTxDescChainInit
                0x0000000000000000       0x66 ./Peripheral/src/ch32v30x_eth.o
 .text.ETH_DMAPTPRxDescChainInit
                0x0000000000000000       0x70 ./Peripheral/src/ch32v30x_eth.o
 .text.ETH_HandlePTPTxPkt
                0x0000000000000000       0xe6 ./Peripheral/src/ch32v30x_eth.o
 .text.ETH_HandlePTPRxPkt
                0x0000000000000000       0xd0 ./Peripheral/src/ch32v30x_eth.o
 .text.RGMII_TXC_Delay
                0x0000000000000000       0x2e ./Peripheral/src/ch32v30x_eth.o
 .sbss.DMAPTPRxDescToGet
                0x0000000000000000        0x4 ./Peripheral/src/ch32v30x_eth.o
 .sbss.DMAPTPTxDescToSet
                0x0000000000000000        0x4 ./Peripheral/src/ch32v30x_eth.o
 .text          0x0000000000000000        0x0 ./Peripheral/src/ch32v30x_exti.o
 .data          0x0000000000000000        0x0 ./Peripheral/src/ch32v30x_exti.o
 .bss           0x0000000000000000        0x0 ./Peripheral/src/ch32v30x_exti.o
 .text.EXTI_DeInit
                0x0000000000000000       0x22 ./Peripheral/src/ch32v30x_exti.o
 .text.EXTI_Init
                0x0000000000000000       0x6a ./Peripheral/src/ch32v30x_exti.o
 .text.EXTI_StructInit
                0x0000000000000000       0x12 ./Peripheral/src/ch32v30x_exti.o
 .text.EXTI_GenerateSWInterrupt
                0x0000000000000000       0x10 ./Peripheral/src/ch32v30x_exti.o
 .text.EXTI_GetFlagStatus
                0x0000000000000000       0x12 ./Peripheral/src/ch32v30x_exti.o
 .text.EXTI_ClearFlag
                0x0000000000000000        0xa ./Peripheral/src/ch32v30x_exti.o
 .text.EXTI_GetITStatus
                0x0000000000000000       0x1e ./Peripheral/src/ch32v30x_exti.o
 .text          0x0000000000000000        0x0 ./Peripheral/src/ch32v30x_gpio.o
 .data          0x0000000000000000        0x0 ./Peripheral/src/ch32v30x_gpio.o
 .bss           0x0000000000000000        0x0 ./Peripheral/src/ch32v30x_gpio.o
 .text.GPIO_DeInit
                0x0000000000000000       0xa4 ./Peripheral/src/ch32v30x_gpio.o
 .text.GPIO_AFIODeInit
                0x0000000000000000       0x28 ./Peripheral/src/ch32v30x_gpio.o
 .text.GPIO_StructInit
                0x0000000000000000        0xe ./Peripheral/src/ch32v30x_gpio.o
 .text.GPIO_ReadInputData
                0x0000000000000000        0x8 ./Peripheral/src/ch32v30x_gpio.o
 .text.GPIO_ReadOutputDataBit
                0x0000000000000000        0xa ./Peripheral/src/ch32v30x_gpio.o
 .text.GPIO_ReadOutputData
                0x0000000000000000        0x8 ./Peripheral/src/ch32v30x_gpio.o
 .text.GPIO_WriteBit
                0x0000000000000000        0xa ./Peripheral/src/ch32v30x_gpio.o
 .text.GPIO_Write
                0x0000000000000000        0x4 ./Peripheral/src/ch32v30x_gpio.o
 .text.GPIO_PinLockConfig
                0x0000000000000000       0x10 ./Peripheral/src/ch32v30x_gpio.o
 .text.GPIO_EventOutputConfig
                0x0000000000000000       0x18 ./Peripheral/src/ch32v30x_gpio.o
 .text.GPIO_EventOutputCmd
                0x0000000000000000       0x16 ./Peripheral/src/ch32v30x_gpio.o
 .text.GPIO_PinRemapConfig
                0x0000000000000000       0xd6 ./Peripheral/src/ch32v30x_gpio.o
 .text.GPIO_EXTILineConfig
                0x0000000000000000       0x2c ./Peripheral/src/ch32v30x_gpio.o
 .text.GPIO_ETH_MediaInterfaceConfig
                0x0000000000000000       0x24 ./Peripheral/src/ch32v30x_gpio.o
 .text.GPIO_IPD_Unused
                0x0000000000000000      0x23c ./Peripheral/src/ch32v30x_gpio.o
 .text          0x0000000000000000        0x0 ./Peripheral/src/ch32v30x_misc.o
 .data          0x0000000000000000        0x0 ./Peripheral/src/ch32v30x_misc.o
 .bss           0x0000000000000000        0x0 ./Peripheral/src/ch32v30x_misc.o
 .text.NVIC_PriorityGroupConfig
                0x0000000000000000        0xa ./Peripheral/src/ch32v30x_misc.o
 .text.NVIC_Init
                0x0000000000000000       0x60 ./Peripheral/src/ch32v30x_misc.o
 .sbss.NVIC_Priority_Group
                0x0000000000000000        0x4 ./Peripheral/src/ch32v30x_misc.o
 .debug_info    0x0000000000000000      0xf5b ./Peripheral/src/ch32v30x_misc.o
 .debug_abbrev  0x0000000000000000      0x2da ./Peripheral/src/ch32v30x_misc.o
 .debug_loc     0x0000000000000000       0x61 ./Peripheral/src/ch32v30x_misc.o
 .debug_aranges
                0x0000000000000000       0x28 ./Peripheral/src/ch32v30x_misc.o
 .debug_ranges  0x0000000000000000       0x30 ./Peripheral/src/ch32v30x_misc.o
 .debug_line    0x0000000000000000      0x4ea ./Peripheral/src/ch32v30x_misc.o
 .debug_str     0x0000000000000000      0xcc1 ./Peripheral/src/ch32v30x_misc.o
 .comment       0x0000000000000000       0x34 ./Peripheral/src/ch32v30x_misc.o
 .debug_frame   0x0000000000000000       0x30 ./Peripheral/src/ch32v30x_misc.o
 .text          0x0000000000000000        0x0 ./Peripheral/src/ch32v30x_rcc.o
 .data          0x0000000000000000        0x0 ./Peripheral/src/ch32v30x_rcc.o
 .bss           0x0000000000000000        0x0 ./Peripheral/src/ch32v30x_rcc.o
 .text.RCC_DeInit
                0x0000000000000000       0x52 ./Peripheral/src/ch32v30x_rcc.o
 .text.RCC_HSEConfig
                0x0000000000000000       0x3c ./Peripheral/src/ch32v30x_rcc.o
 .text.RCC_AdjustHSICalibrationValue
                0x0000000000000000       0x12 ./Peripheral/src/ch32v30x_rcc.o
 .text.RCC_HSICmd
                0x0000000000000000       0x14 ./Peripheral/src/ch32v30x_rcc.o
 .text.RCC_PLLConfig
                0x0000000000000000       0x2e ./Peripheral/src/ch32v30x_rcc.o
 .text.RCC_PLLCmd
                0x0000000000000000       0x24 ./Peripheral/src/ch32v30x_rcc.o
 .text.RCC_SYSCLKConfig
                0x0000000000000000        0xe ./Peripheral/src/ch32v30x_rcc.o
 .text.RCC_GetSYSCLKSource
                0x0000000000000000        0xa ./Peripheral/src/ch32v30x_rcc.o
 .text.RCC_HCLKConfig
                0x0000000000000000       0x10 ./Peripheral/src/ch32v30x_rcc.o
 .text.RCC_PCLK1Config
                0x0000000000000000       0x10 ./Peripheral/src/ch32v30x_rcc.o
 .text.RCC_PCLK2Config
                0x0000000000000000       0x16 ./Peripheral/src/ch32v30x_rcc.o
 .text.RCC_ITConfig
                0x0000000000000000       0x16 ./Peripheral/src/ch32v30x_rcc.o
 .text.RCC_ADCCLKConfig
                0x0000000000000000       0x12 ./Peripheral/src/ch32v30x_rcc.o
 .text.RCC_LSEConfig
                0x0000000000000000       0x28 ./Peripheral/src/ch32v30x_rcc.o
 .text.RCC_LSICmd
                0x0000000000000000       0x14 ./Peripheral/src/ch32v30x_rcc.o
 .text.RCC_RTCCLKConfig
                0x0000000000000000        0xc ./Peripheral/src/ch32v30x_rcc.o
 .text.RCC_RTCCLKCmd
                0x0000000000000000       0x20 ./Peripheral/src/ch32v30x_rcc.o
 .text.RCC_APB2PeriphResetCmd
                0x0000000000000000       0x1e ./Peripheral/src/ch32v30x_rcc.o
 .text.RCC_APB1PeriphResetCmd
                0x0000000000000000       0x1e ./Peripheral/src/ch32v30x_rcc.o
 .text.RCC_BackupResetCmd
                0x0000000000000000       0x20 ./Peripheral/src/ch32v30x_rcc.o
 .text.RCC_ClockSecuritySystemCmd
                0x0000000000000000       0x24 ./Peripheral/src/ch32v30x_rcc.o
 .text.RCC_MCOConfig
                0x0000000000000000        0x8 ./Peripheral/src/ch32v30x_rcc.o
 .text.RCC_WaitForHSEStartUp
                0x0000000000000000       0x42 ./Peripheral/src/ch32v30x_rcc.o
 .text.RCC_ClearFlag
                0x0000000000000000       0x10 ./Peripheral/src/ch32v30x_rcc.o
 .text.RCC_GetITStatus
                0x0000000000000000        0xe ./Peripheral/src/ch32v30x_rcc.o
 .text.RCC_ClearITPendingBit
                0x0000000000000000        0x8 ./Peripheral/src/ch32v30x_rcc.o
 .text.RCC_PREDIV1Config
                0x0000000000000000       0x14 ./Peripheral/src/ch32v30x_rcc.o
 .text.RCC_PLL2Config
                0x0000000000000000       0x14 ./Peripheral/src/ch32v30x_rcc.o
 .text.RCC_PLL2Cmd
                0x0000000000000000       0x24 ./Peripheral/src/ch32v30x_rcc.o
 .text.RCC_USBFSCLKConfig
                0x0000000000000000       0x1a ./Peripheral/src/ch32v30x_rcc.o
 .text.RCC_I2S2CLKConfig
                0x0000000000000000       0x18 ./Peripheral/src/ch32v30x_rcc.o
 .text.RCC_I2S3CLKConfig
                0x0000000000000000       0x1a ./Peripheral/src/ch32v30x_rcc.o
 .text.RCC_ADCCLKADJcmd
                0x0000000000000000       0x18 ./Peripheral/src/ch32v30x_rcc.o
 .text.RCC_RNGCLKConfig
                0x0000000000000000       0x1a ./Peripheral/src/ch32v30x_rcc.o
 .text.RCC_ETH1GCLKConfig
                0x0000000000000000       0x1a ./Peripheral/src/ch32v30x_rcc.o
 .text.RCC_ETH1G_125Mcmd
                0x0000000000000000       0x24 ./Peripheral/src/ch32v30x_rcc.o
 .text.RCC_USBHSConfig
                0x0000000000000000       0x1a ./Peripheral/src/ch32v30x_rcc.o
 .text.RCC_USBHSPLLCLKConfig
                0x0000000000000000       0x1a ./Peripheral/src/ch32v30x_rcc.o
 .text.RCC_USBHSPLLCKREFCLKConfig
                0x0000000000000000       0x1a ./Peripheral/src/ch32v30x_rcc.o
 .text.RCC_USBHSPHYPLLALIVEcmd
                0x0000000000000000       0x24 ./Peripheral/src/ch32v30x_rcc.o
 .text.RCC_USBCLK48MConfig
                0x0000000000000000       0x16 ./Peripheral/src/ch32v30x_rcc.o
 .text          0x0000000000000000        0x0 ./Peripheral/src/ch32v30x_sdio.o
 .data          0x0000000000000000        0x0 ./Peripheral/src/ch32v30x_sdio.o
 .bss           0x0000000000000000        0x0 ./Peripheral/src/ch32v30x_sdio.o
 .text.SDIO_DeInit
                0x0000000000000000       0x30 ./Peripheral/src/ch32v30x_sdio.o
 .text.SDIO_Init
                0x0000000000000000       0x2a ./Peripheral/src/ch32v30x_sdio.o
 .text.SDIO_StructInit
                0x0000000000000000       0x1a ./Peripheral/src/ch32v30x_sdio.o
 .text.SDIO_ClockCmd
                0x0000000000000000       0x16 ./Peripheral/src/ch32v30x_sdio.o
 .text.SDIO_SetPowerState
                0x0000000000000000       0x12 ./Peripheral/src/ch32v30x_sdio.o
 .text.SDIO_GetPowerState
                0x0000000000000000        0xa ./Peripheral/src/ch32v30x_sdio.o
 .text.SDIO_ITConfig
                0x0000000000000000       0x1e ./Peripheral/src/ch32v30x_sdio.o
 .text.SDIO_DMACmd
                0x0000000000000000       0x14 ./Peripheral/src/ch32v30x_sdio.o
 .text.SDIO_SendCommand
                0x0000000000000000       0x22 ./Peripheral/src/ch32v30x_sdio.o
 .text.SDIO_CmdStructInit
                0x0000000000000000       0x16 ./Peripheral/src/ch32v30x_sdio.o
 .text.SDIO_GetCommandResponse
                0x0000000000000000        0xc ./Peripheral/src/ch32v30x_sdio.o
 .text.SDIO_GetResponse
                0x0000000000000000       0x16 ./Peripheral/src/ch32v30x_sdio.o
 .text.SDIO_DataConfig
                0x0000000000000000       0x26 ./Peripheral/src/ch32v30x_sdio.o
 .text.SDIO_DataStructInit
                0x0000000000000000       0x1a ./Peripheral/src/ch32v30x_sdio.o
 .text.SDIO_GetDataCounter
                0x0000000000000000        0x8 ./Peripheral/src/ch32v30x_sdio.o
 .text.SDIO_ReadData
                0x0000000000000000        0xa ./Peripheral/src/ch32v30x_sdio.o
 .text.SDIO_WriteData
                0x0000000000000000        0xa ./Peripheral/src/ch32v30x_sdio.o
 .text.SDIO_GetFIFOCount
                0x0000000000000000        0x8 ./Peripheral/src/ch32v30x_sdio.o
 .text.SDIO_StartSDIOReadWait
                0x0000000000000000       0x16 ./Peripheral/src/ch32v30x_sdio.o
 .text.SDIO_StopSDIOReadWait
                0x0000000000000000       0x16 ./Peripheral/src/ch32v30x_sdio.o
 .text.SDIO_SetSDIOReadWaitMode
                0x0000000000000000       0x16 ./Peripheral/src/ch32v30x_sdio.o
 .text.SDIO_SetSDIOOperation
                0x0000000000000000       0x1e ./Peripheral/src/ch32v30x_sdio.o
 .text.SDIO_SendSDIOSuspendCmd
                0x0000000000000000       0x1e ./Peripheral/src/ch32v30x_sdio.o
 .text.SDIO_CommandCompletionCmd
                0x0000000000000000       0x20 ./Peripheral/src/ch32v30x_sdio.o
 .text.SDIO_CEATAITCmd
                0x0000000000000000       0x20 ./Peripheral/src/ch32v30x_sdio.o
 .text.SDIO_SendCEATACmd
                0x0000000000000000       0x20 ./Peripheral/src/ch32v30x_sdio.o
 .text.SDIO_GetFlagStatus
                0x0000000000000000        0xe ./Peripheral/src/ch32v30x_sdio.o
 .text.SDIO_ClearFlag
                0x0000000000000000        0x8 ./Peripheral/src/ch32v30x_sdio.o
 .text.SDIO_GetITStatus
                0x0000000000000000       0x18 ./Peripheral/src/ch32v30x_sdio.o
 .text.SDIO_ClearITPendingBit
                0x0000000000000000        0x8 ./Peripheral/src/ch32v30x_sdio.o
 .debug_info    0x0000000000000000     0x10fd ./Peripheral/src/ch32v30x_sdio.o
 .debug_abbrev  0x0000000000000000      0x385 ./Peripheral/src/ch32v30x_sdio.o
 .debug_loc     0x0000000000000000      0x1bb ./Peripheral/src/ch32v30x_sdio.o
 .debug_aranges
                0x0000000000000000       0xf8 ./Peripheral/src/ch32v30x_sdio.o
 .debug_ranges  0x0000000000000000       0xe8 ./Peripheral/src/ch32v30x_sdio.o
 .debug_line    0x0000000000000000      0xdb0 ./Peripheral/src/ch32v30x_sdio.o
 .debug_str     0x0000000000000000      0xa77 ./Peripheral/src/ch32v30x_sdio.o
 .comment       0x0000000000000000       0x34 ./Peripheral/src/ch32v30x_sdio.o
 .debug_frame   0x0000000000000000      0x204 ./Peripheral/src/ch32v30x_sdio.o
 .text          0x0000000000000000        0x0 ./Peripheral/src/ch32v30x_tim.o
 .data          0x0000000000000000        0x0 ./Peripheral/src/ch32v30x_tim.o
 .bss           0x0000000000000000        0x0 ./Peripheral/src/ch32v30x_tim.o
 .text.TI1_Config
                0x0000000000000000       0x36 ./Peripheral/src/ch32v30x_tim.o
 .text.TI2_Config
                0x0000000000000000       0x44 ./Peripheral/src/ch32v30x_tim.o
 .text.TIM_DeInit
                0x0000000000000000      0x138 ./Peripheral/src/ch32v30x_tim.o
 .text.TIM_OC1Init
                0x0000000000000000       0x82 ./Peripheral/src/ch32v30x_tim.o
 .text.TIM_OC2Init
                0x0000000000000000       0xae ./Peripheral/src/ch32v30x_tim.o
 .text.TIM_OC3Init
                0x0000000000000000       0xac ./Peripheral/src/ch32v30x_tim.o
 .text.TIM_OC4Init
                0x0000000000000000       0x88 ./Peripheral/src/ch32v30x_tim.o
 .text.TIM_BDTRConfig
                0x0000000000000000       0x20 ./Peripheral/src/ch32v30x_tim.o
 .text.TIM_OCStructInit
                0x0000000000000000       0x22 ./Peripheral/src/ch32v30x_tim.o
 .text.TIM_ICStructInit
                0x0000000000000000       0x16 ./Peripheral/src/ch32v30x_tim.o
 .text.TIM_BDTRStructInit
                0x0000000000000000       0x1e ./Peripheral/src/ch32v30x_tim.o
 .text.TIM_CtrlPWMOutputs
                0x0000000000000000       0x16 ./Peripheral/src/ch32v30x_tim.o
 .text.TIM_GenerateEvent
                0x0000000000000000        0x4 ./Peripheral/src/ch32v30x_tim.o
 .text.TIM_DMAConfig
                0x0000000000000000        0x8 ./Peripheral/src/ch32v30x_tim.o
 .text.TIM_DMACmd
                0x0000000000000000       0x18 ./Peripheral/src/ch32v30x_tim.o
 .text.TIM_InternalClockConfig
                0x0000000000000000       0x10 ./Peripheral/src/ch32v30x_tim.o
 .text.TIM_ITRxExternalClockConfig
                0x0000000000000000       0x18 ./Peripheral/src/ch32v30x_tim.o
 .text.TIM_TIxExternalClockConfig
                0x0000000000000000       0x48 ./Peripheral/src/ch32v30x_tim.o
 .text.TIM_ETRConfig
                0x0000000000000000       0x16 ./Peripheral/src/ch32v30x_tim.o
 .text.TIM_ETRClockMode1Config
                0x0000000000000000       0x2a ./Peripheral/src/ch32v30x_tim.o
 .text.TIM_ETRClockMode2Config
                0x0000000000000000       0x22 ./Peripheral/src/ch32v30x_tim.o
 .text.TIM_PrescalerConfig
                0x0000000000000000        0x6 ./Peripheral/src/ch32v30x_tim.o
 .text.TIM_CounterModeConfig
                0x0000000000000000       0x10 ./Peripheral/src/ch32v30x_tim.o
 .text.TIM_SelectInputTrigger
                0x0000000000000000       0x10 ./Peripheral/src/ch32v30x_tim.o
 .text.TIM_EncoderInterfaceConfig
                0x0000000000000000       0x3c ./Peripheral/src/ch32v30x_tim.o
 .text.TIM_ForcedOC1Config
                0x0000000000000000       0x10 ./Peripheral/src/ch32v30x_tim.o
 .text.TIM_ForcedOC2Config
                0x0000000000000000       0x14 ./Peripheral/src/ch32v30x_tim.o
 .text.TIM_ForcedOC3Config
                0x0000000000000000       0x10 ./Peripheral/src/ch32v30x_tim.o
 .text.TIM_ForcedOC4Config
                0x0000000000000000       0x14 ./Peripheral/src/ch32v30x_tim.o
 .text.TIM_ARRPreloadConfig
                0x0000000000000000       0x1a ./Peripheral/src/ch32v30x_tim.o
 .text.TIM_SelectCOM
                0x0000000000000000       0x18 ./Peripheral/src/ch32v30x_tim.o
 .text.TIM_SelectCCDMA
                0x0000000000000000       0x18 ./Peripheral/src/ch32v30x_tim.o
 .text.TIM_CCPreloadControl
                0x0000000000000000       0x18 ./Peripheral/src/ch32v30x_tim.o
 .text.TIM_OC1PreloadConfig
                0x0000000000000000        0xe ./Peripheral/src/ch32v30x_tim.o
 .text.TIM_OC2PreloadConfig
                0x0000000000000000       0x16 ./Peripheral/src/ch32v30x_tim.o
 .text.TIM_OC3PreloadConfig
                0x0000000000000000        0xe ./Peripheral/src/ch32v30x_tim.o
 .text.TIM_OC4PreloadConfig
                0x0000000000000000       0x16 ./Peripheral/src/ch32v30x_tim.o
 .text.TIM_OC1FastConfig
                0x0000000000000000        0xe ./Peripheral/src/ch32v30x_tim.o
 .text.TIM_OC2FastConfig
                0x0000000000000000       0x16 ./Peripheral/src/ch32v30x_tim.o
 .text.TIM_OC3FastConfig
                0x0000000000000000        0xe ./Peripheral/src/ch32v30x_tim.o
 .text.TIM_OC4FastConfig
                0x0000000000000000       0x16 ./Peripheral/src/ch32v30x_tim.o
 .text.TIM_ClearOC1Ref
                0x0000000000000000       0x10 ./Peripheral/src/ch32v30x_tim.o
 .text.TIM_ClearOC2Ref
                0x0000000000000000       0x12 ./Peripheral/src/ch32v30x_tim.o
 .text.TIM_ClearOC3Ref
                0x0000000000000000       0x10 ./Peripheral/src/ch32v30x_tim.o
 .text.TIM_ClearOC4Ref
                0x0000000000000000       0x12 ./Peripheral/src/ch32v30x_tim.o
 .text.TIM_OC1PolarityConfig
                0x0000000000000000        0xe ./Peripheral/src/ch32v30x_tim.o
 .text.TIM_OC1NPolarityConfig
                0x0000000000000000        0xe ./Peripheral/src/ch32v30x_tim.o
 .text.TIM_OC2PolarityConfig
                0x0000000000000000       0x16 ./Peripheral/src/ch32v30x_tim.o
 .text.TIM_OC2NPolarityConfig
                0x0000000000000000       0x16 ./Peripheral/src/ch32v30x_tim.o
 .text.TIM_OC3PolarityConfig
                0x0000000000000000       0x16 ./Peripheral/src/ch32v30x_tim.o
 .text.TIM_OC3NPolarityConfig
                0x0000000000000000       0x16 ./Peripheral/src/ch32v30x_tim.o
 .text.TIM_OC4PolarityConfig
                0x0000000000000000       0x14 ./Peripheral/src/ch32v30x_tim.o
 .text.TIM_CCxCmd
                0x0000000000000000       0x20 ./Peripheral/src/ch32v30x_tim.o
 .text.TIM_CCxNCmd
                0x0000000000000000       0x20 ./Peripheral/src/ch32v30x_tim.o
 .text.TIM_SelectOCxM
                0x0000000000000000       0x4c ./Peripheral/src/ch32v30x_tim.o
 .text.TIM_UpdateDisableConfig
                0x0000000000000000       0x18 ./Peripheral/src/ch32v30x_tim.o
 .text.TIM_UpdateRequestConfig
                0x0000000000000000       0x18 ./Peripheral/src/ch32v30x_tim.o
 .text.TIM_SelectHallSensor
                0x0000000000000000       0x1a ./Peripheral/src/ch32v30x_tim.o
 .text.TIM_SelectOnePulseMode
                0x0000000000000000       0x16 ./Peripheral/src/ch32v30x_tim.o
 .text.TIM_SelectOutputTrigger
                0x0000000000000000       0x18 ./Peripheral/src/ch32v30x_tim.o
 .text.TIM_SelectSlaveMode
                0x0000000000000000       0x16 ./Peripheral/src/ch32v30x_tim.o
 .text.TIM_SelectMasterSlaveMode
                0x0000000000000000       0x18 ./Peripheral/src/ch32v30x_tim.o
 .text.TIM_SetCounter
                0x0000000000000000        0x4 ./Peripheral/src/ch32v30x_tim.o
 .text.TIM_SetAutoreload
                0x0000000000000000        0x4 ./Peripheral/src/ch32v30x_tim.o
 .text.TIM_SetCompare1
                0x0000000000000000        0x4 ./Peripheral/src/ch32v30x_tim.o
 .text.TIM_SetCompare2
                0x0000000000000000        0x4 ./Peripheral/src/ch32v30x_tim.o
 .text.TIM_SetCompare3
                0x0000000000000000        0x4 ./Peripheral/src/ch32v30x_tim.o
 .text.TIM_SetCompare4
                0x0000000000000000        0x6 ./Peripheral/src/ch32v30x_tim.o
 .text.TIM_SetIC1Prescaler
                0x0000000000000000       0x16 ./Peripheral/src/ch32v30x_tim.o
 .text.TIM_SetIC2Prescaler
                0x0000000000000000       0x1a ./Peripheral/src/ch32v30x_tim.o
 .text.TIM_PWMIConfig
                0x0000000000000000       0x92 ./Peripheral/src/ch32v30x_tim.o
 .text.TIM_SetIC3Prescaler
                0x0000000000000000       0x16 ./Peripheral/src/ch32v30x_tim.o
 .text.TIM_SetIC4Prescaler
                0x0000000000000000       0x1a ./Peripheral/src/ch32v30x_tim.o
 .text.TIM_ICInit
                0x0000000000000000       0xfa ./Peripheral/src/ch32v30x_tim.o
 .text.TIM_SetClockDivision
                0x0000000000000000       0x18 ./Peripheral/src/ch32v30x_tim.o
 .text.TIM_GetCapture1
                0x0000000000000000        0x4 ./Peripheral/src/ch32v30x_tim.o
 .text.TIM_GetCapture2
                0x0000000000000000        0x4 ./Peripheral/src/ch32v30x_tim.o
 .text.TIM_GetCapture3
                0x0000000000000000        0x4 ./Peripheral/src/ch32v30x_tim.o
 .text.TIM_GetCapture4
                0x0000000000000000        0x6 ./Peripheral/src/ch32v30x_tim.o
 .text.TIM_GetCounter
                0x0000000000000000        0x4 ./Peripheral/src/ch32v30x_tim.o
 .text.TIM_GetPrescaler
                0x0000000000000000        0x4 ./Peripheral/src/ch32v30x_tim.o
 .text.TIM_GetITStatus
                0x0000000000000000       0x18 ./Peripheral/src/ch32v30x_tim.o
 .text          0x0000000000000000        0x0 ./Peripheral/src/ch32v30x_usart.o
 .data          0x0000000000000000        0x0 ./Peripheral/src/ch32v30x_usart.o
 .bss           0x0000000000000000        0x0 ./Peripheral/src/ch32v30x_usart.o
 .text.USART_DeInit
                0x0000000000000000      0x112 ./Peripheral/src/ch32v30x_usart.o
 .text.USART_StructInit
                0x0000000000000000       0x18 ./Peripheral/src/ch32v30x_usart.o
 .text.USART_ClockInit
                0x0000000000000000       0x1e ./Peripheral/src/ch32v30x_usart.o
 .text.USART_ClockStructInit
                0x0000000000000000       0x12 ./Peripheral/src/ch32v30x_usart.o
 .text.USART_ITConfig
                0x0000000000000000       0x36 ./Peripheral/src/ch32v30x_usart.o
 .text.USART_DMACmd
                0x0000000000000000       0x12 ./Peripheral/src/ch32v30x_usart.o
 .text.USART_SetAddress
                0x0000000000000000       0x16 ./Peripheral/src/ch32v30x_usart.o
 .text.USART_WakeUpConfig
                0x0000000000000000       0x14 ./Peripheral/src/ch32v30x_usart.o
 .text.USART_ReceiverWakeUpCmd
                0x0000000000000000       0x18 ./Peripheral/src/ch32v30x_usart.o
 .text.USART_LINBreakDetectLengthConfig
                0x0000000000000000       0x18 ./Peripheral/src/ch32v30x_usart.o
 .text.USART_LINCmd
                0x0000000000000000       0x16 ./Peripheral/src/ch32v30x_usart.o
 .text.USART_ReceiveData
                0x0000000000000000        0x8 ./Peripheral/src/ch32v30x_usart.o
 .text.USART_SendBreak
                0x0000000000000000        0xa ./Peripheral/src/ch32v30x_usart.o
 .text.USART_SetGuardTime
                0x0000000000000000       0x12 ./Peripheral/src/ch32v30x_usart.o
 .text.USART_SetPrescaler
                0x0000000000000000       0x18 ./Peripheral/src/ch32v30x_usart.o
 .text.USART_SmartCardCmd
                0x0000000000000000       0x1a ./Peripheral/src/ch32v30x_usart.o
 .text.USART_SmartCardNACKCmd
                0x0000000000000000       0x18 ./Peripheral/src/ch32v30x_usart.o
 .text.USART_HalfDuplexCmd
                0x0000000000000000       0x18 ./Peripheral/src/ch32v30x_usart.o
 .text.USART_IrDAConfig
                0x0000000000000000       0x16 ./Peripheral/src/ch32v30x_usart.o
 .text.USART_IrDACmd
                0x0000000000000000       0x18 ./Peripheral/src/ch32v30x_usart.o
 .text.USART_ClearFlag
                0x0000000000000000        0xc ./Peripheral/src/ch32v30x_usart.o
 .text.USART_GetITStatus
                0x0000000000000000       0x3c ./Peripheral/src/ch32v30x_usart.o
 .text.USART_ClearITPendingBit
                0x0000000000000000       0x14 ./Peripheral/src/ch32v30x_usart.o
 .text          0x0000000000000000        0x0 ./NetLib/eth_driver_10M.o
 .data          0x0000000000000000        0x0 ./NetLib/eth_driver_10M.o
 .bss           0x0000000000000000        0x0 ./NetLib/eth_driver_10M.o
 .text.WCHNET_PhyPNProcess
                0x0000000000000000       0xcc ./NetLib/eth_driver_10M.o
 .text.WCHNET_LinkProcess
                0x0000000000000000      0x3fc ./NetLib/eth_driver_10M.o
 .text.WCHNET_HandlePhyNegotiation
                0x0000000000000000      0x234 ./NetLib/eth_driver_10M.o
 .text.ReInitMACReg
                0x0000000000000000      0x242 ./NetLib/eth_driver_10M.o
 .text.WCHNET_RecProcess
                0x0000000000000000       0x3c ./NetLib/eth_driver_10M.o
 .text.WCHNET_MainTask
                0x0000000000000000       0x30 ./NetLib/eth_driver_10M.o
 .sbss.ReInitMACFlag
                0x0000000000000000        0x1 ./NetLib/eth_driver_10M.o
 .sbss.TRDetectCnt
                0x0000000000000000        0x1 ./NetLib/eth_driver_10M.o
 .sdata.LinkTaskPeriod
                0x0000000000000000        0x1 ./NetLib/eth_driver_10M.o
 .text          0x0000000000000000        0x0 ./Debug/debug.o
 .data          0x0000000000000000        0x0 ./Debug/debug.o
 .bss           0x0000000000000000        0x0 ./Debug/debug.o
 .text.SDI_Printf_Enable
                0x0000000000000000       0x2a ./Debug/debug.o
 .text          0x0000000000000000        0x0 ./Core/core_riscv.o
 .data          0x0000000000000000        0x0 ./Core/core_riscv.o
 .bss           0x0000000000000000        0x0 ./Core/core_riscv.o
 .text.__get_FFLAGS
                0x0000000000000000        0x6 ./Core/core_riscv.o
 .text.__set_FFLAGS
                0x0000000000000000        0x6 ./Core/core_riscv.o
 .text.__get_FRM
                0x0000000000000000        0x6 ./Core/core_riscv.o
 .text.__set_FRM
                0x0000000000000000        0x6 ./Core/core_riscv.o
 .text.__get_FCSR
                0x0000000000000000        0x6 ./Core/core_riscv.o
 .text.__set_FCSR
                0x0000000000000000        0x6 ./Core/core_riscv.o
 .text.__get_MSTATUS
                0x0000000000000000        0x6 ./Core/core_riscv.o
 .text.__set_MSTATUS
                0x0000000000000000        0x6 ./Core/core_riscv.o
 .text.__get_MISA
                0x0000000000000000        0x6 ./Core/core_riscv.o
 .text.__set_MISA
                0x0000000000000000        0x6 ./Core/core_riscv.o
 .text.__get_MTVEC
                0x0000000000000000        0x6 ./Core/core_riscv.o
 .text.__set_MTVEC
                0x0000000000000000        0x6 ./Core/core_riscv.o
 .text.__get_MSCRATCH
                0x0000000000000000        0x6 ./Core/core_riscv.o
 .text.__set_MSCRATCH
                0x0000000000000000        0x6 ./Core/core_riscv.o
 .text.__set_MEPC
                0x0000000000000000        0x6 ./Core/core_riscv.o
 .text.__set_MCAUSE
                0x0000000000000000        0x6 ./Core/core_riscv.o
 .text.__set_MTVAL
                0x0000000000000000        0x6 ./Core/core_riscv.o
 .text.__get_MVENDORID
                0x0000000000000000        0x6 ./Core/core_riscv.o
 .text.__get_MARCHID
                0x0000000000000000        0x6 ./Core/core_riscv.o
 .text.__get_MIMPID
                0x0000000000000000        0x6 ./Core/core_riscv.o
 .text.__get_MHARTID
                0x0000000000000000        0x6 ./Core/core_riscv.o
 .text.__get_SP
                0x0000000000000000        0x4 ./Core/core_riscv.o
 .text          0x0000000000000000        0x0 /home/randy/mounriver-studio-projects/UdpServer/NetLib/libwchnet.a(eth_api.o)
 .data          0x0000000000000000        0x0 /home/randy/mounriver-studio-projects/UdpServer/NetLib/libwchnet.a(eth_api.o)
 .bss           0x0000000000000000        0x0 /home/randy/mounriver-studio-projects/UdpServer/NetLib/libwchnet.a(eth_api.o)
 .text.WCHNET_PeriodicHandle
                0x0000000000000000      0x222 /home/randy/mounriver-studio-projects/UdpServer/NetLib/libwchnet.a(eth_api.o)
 .sbss.ARPTimer
                0x0000000000000000        0x4 /home/randy/mounriver-studio-projects/UdpServer/NetLib/libwchnet.a(eth_api.o)
 .sbss.ArpCheckTime
                0x0000000000000000        0x4 /home/randy/mounriver-studio-projects/UdpServer/NetLib/libwchnet.a(eth_api.o)
 .sbss.DHCPcoarseTimer
                0x0000000000000000        0x4 /home/randy/mounriver-studio-projects/UdpServer/NetLib/libwchnet.a(eth_api.o)
 .sbss.DHCPfineTimer
                0x0000000000000000        0x4 /home/randy/mounriver-studio-projects/UdpServer/NetLib/libwchnet.a(eth_api.o)
 .sbss.DNSTimer
                0x0000000000000000        0x4 /home/randy/mounriver-studio-projects/UdpServer/NetLib/libwchnet.a(eth_api.o)
 .sbss.IPFragTimer
                0x0000000000000000        0x4 /home/randy/mounriver-studio-projects/UdpServer/NetLib/libwchnet.a(eth_api.o)
 .sbss.TCPTimer
                0x0000000000000000        0x4 /home/randy/mounriver-studio-projects/UdpServer/NetLib/libwchnet.a(eth_api.o)
 .sbss.phydatatime
                0x0000000000000000        0x4 /home/randy/mounriver-studio-projects/UdpServer/NetLib/libwchnet.a(eth_api.o)
 .text          0x0000000000000000        0x0 /home/randy/mounriver-studio-projects/UdpServer/NetLib/libwchnet.a(ipcheck.o)
 .data          0x0000000000000000        0x0 /home/randy/mounriver-studio-projects/UdpServer/NetLib/libwchnet.a(ipcheck.o)
 .bss           0x0000000000000000        0x0 /home/randy/mounriver-studio-projects/UdpServer/NetLib/libwchnet.a(ipcheck.o)
 .text.SelIPARPSend
                0x0000000000000000       0x48 /home/randy/mounriver-studio-projects/UdpServer/NetLib/libwchnet.a(ipcheck.o)
 .text.IPCheckTmr
                0x0000000000000000       0x52 /home/randy/mounriver-studio-projects/UdpServer/NetLib/libwchnet.a(ipcheck.o)
 .text          0x0000000000000000        0x0 /home/randy/mounriver-studio-projects/UdpServer/NetLib/libwchnet.a(net_dhcp.o)
 .data          0x0000000000000000        0x0 /home/randy/mounriver-studio-projects/UdpServer/NetLib/libwchnet.a(net_dhcp.o)
 .bss           0x0000000000000000        0x0 /home/randy/mounriver-studio-projects/UdpServer/NetLib/libwchnet.a(net_dhcp.o)
 .text.WCHNET_DHCPStart
                0x0000000000000000       0x6a /home/randy/mounriver-studio-projects/UdpServer/NetLib/libwchnet.a(net_dhcp.o)
 .text.WCHNET_DHCPStop
                0x0000000000000000       0x36 /home/randy/mounriver-studio-projects/UdpServer/NetLib/libwchnet.a(net_dhcp.o)
 .text.WCHNET_DHCPHandle
                0x0000000000000000       0x84 /home/randy/mounriver-studio-projects/UdpServer/NetLib/libwchnet.a(net_dhcp.o)
 .text.WCHNET_DHCPSetHostname
                0x0000000000000000       0x24 /home/randy/mounriver-studio-projects/UdpServer/NetLib/libwchnet.a(net_dhcp.o)
 .sbss.DHCPFlag
                0x0000000000000000        0x1 /home/randy/mounriver-studio-projects/UdpServer/NetLib/libwchnet.a(net_dhcp.o)
 .text          0x0000000000000000        0x0 /home/randy/mounriver-studio-projects/UdpServer/NetLib/libwchnet.a(net_dns.o)
 .data          0x0000000000000000        0x0 /home/randy/mounriver-studio-projects/UdpServer/NetLib/libwchnet.a(net_dns.o)
 .bss           0x0000000000000000        0x0 /home/randy/mounriver-studio-projects/UdpServer/NetLib/libwchnet.a(net_dns.o)
 .text.WCHNET_InitDNS
                0x0000000000000000       0x4c /home/randy/mounriver-studio-projects/UdpServer/NetLib/libwchnet.a(net_dns.o)
 .text.WCHNET_DNSStop
                0x0000000000000000       0x18 /home/randy/mounriver-studio-projects/UdpServer/NetLib/libwchnet.a(net_dns.o)
 .text.WCHNET_HostNameGetIp
                0x0000000000000000       0x20 /home/randy/mounriver-studio-projects/UdpServer/NetLib/libwchnet.a(net_dns.o)
 .text          0x0000000000000000        0x0 /home/randy/mounriver-studio-projects/UdpServer/NetLib/libwchnet.a(socket.o)
 .data          0x0000000000000000        0x0 /home/randy/mounriver-studio-projects/UdpServer/NetLib/libwchnet.a(socket.o)
 .bss           0x0000000000000000        0x0 /home/randy/mounriver-studio-projects/UdpServer/NetLib/libwchnet.a(socket.o)
 .text.LwipTCPSendCallBack
                0x0000000000000000       0x46 /home/randy/mounriver-studio-projects/UdpServer/NetLib/libwchnet.a(socket.o)
 .text.LwipTCPPollCallBack
                0x0000000000000000        0x4 /home/randy/mounriver-studio-projects/UdpServer/NetLib/libwchnet.a(socket.o)
 .text.WCHSocketTCPReceive
                0x0000000000000000       0xf2 /home/randy/mounriver-studio-projects/UdpServer/NetLib/libwchnet.a(socket.o)
 .text.LwipTcpConnectedCallBack
                0x0000000000000000       0x56 /home/randy/mounriver-studio-projects/UdpServer/NetLib/libwchnet.a(socket.o)
 .text.WCHTCPServerAccept
                0x0000000000000000       0xf0 /home/randy/mounriver-studio-projects/UdpServer/NetLib/libwchnet.a(socket.o)
 .text.MemShortCopy
                0x0000000000000000       0x1e /home/randy/mounriver-studio-projects/UdpServer/NetLib/libwchnet.a(socket.o)
 .text.WCHNET_ConfigKeepLive
                0x0000000000000000       0x16 /home/randy/mounriver-studio-projects/UdpServer/NetLib/libwchnet.a(socket.o)
 .text.WCHNET_ARPRetryCfg
                0x0000000000000000       0x42 /home/randy/mounriver-studio-projects/UdpServer/NetLib/libwchnet.a(socket.o)
 .text.tcp_recved_socket
                0x0000000000000000       0x5e /home/randy/mounriver-studio-projects/UdpServer/NetLib/libwchnet.a(socket.o)
 .text.WCHNET_ModifyRecvBuf
                0x0000000000000000       0x62 /home/randy/mounriver-studio-projects/UdpServer/NetLib/libwchnet.a(socket.o)
 .text.WCHNET_SocketRecv
                0x0000000000000000      0x100 /home/randy/mounriver-studio-projects/UdpServer/NetLib/libwchnet.a(socket.o)
 .text.WCHNET_SocketRecvLen
                0x0000000000000000       0x26 /home/randy/mounriver-studio-projects/UdpServer/NetLib/libwchnet.a(socket.o)
 .text.SocketIPRawSend
                0x0000000000000000       0xde /home/randy/mounriver-studio-projects/UdpServer/NetLib/libwchnet.a(socket.o)
 .text.SocketUdpSend
                0x0000000000000000       0xde /home/randy/mounriver-studio-projects/UdpServer/NetLib/libwchnet.a(socket.o)
 .text.WCHNET_RetrySendUnack
                0x0000000000000000       0x3e /home/randy/mounriver-studio-projects/UdpServer/NetLib/libwchnet.a(socket.o)
 .text.WCHNET_QueryUnack
                0x0000000000000000       0xaa /home/randy/mounriver-studio-projects/UdpServer/NetLib/libwchnet.a(socket.o)
 .text.SocketTcpSend
                0x0000000000000000      0x110 /home/randy/mounriver-studio-projects/UdpServer/NetLib/libwchnet.a(socket.o)
 .text.WCHNET_PrtSocketTCPStat
                0x0000000000000000        0x2 /home/randy/mounriver-studio-projects/UdpServer/NetLib/libwchnet.a(socket.o)
 .text.WCHNET_SocketSend
                0x0000000000000000       0x6a /home/randy/mounriver-studio-projects/UdpServer/NetLib/libwchnet.a(socket.o)
 .text.WCHNET_QueryGlobalInt
                0x0000000000000000       0x42 /home/randy/mounriver-studio-projects/UdpServer/NetLib/libwchnet.a(socket.o)
 .text.WCHNET_GetGlobalInt
                0x0000000000000000       0x20 /home/randy/mounriver-studio-projects/UdpServer/NetLib/libwchnet.a(socket.o)
 .text.WCHNET_GetSocketInt
                0x0000000000000000       0x2e /home/randy/mounriver-studio-projects/UdpServer/NetLib/libwchnet.a(socket.o)
 .text.WCHNET_SocketSetKeepLive
                0x0000000000000000       0x54 /home/randy/mounriver-studio-projects/UdpServer/NetLib/libwchnet.a(socket.o)
 .text.WCHNET_SocketConnect
                0x0000000000000000       0x80 /home/randy/mounriver-studio-projects/UdpServer/NetLib/libwchnet.a(socket.o)
 .text.WCHNET_SocketListen
                0x0000000000000000       0x82 /home/randy/mounriver-studio-projects/UdpServer/NetLib/libwchnet.a(socket.o)
 .text.WCHSocketTcpDiscon
                0x0000000000000000       0x42 /home/randy/mounriver-studio-projects/UdpServer/NetLib/libwchnet.a(socket.o)
 .text.CloseUpdConnect
                0x0000000000000000       0x44 /home/randy/mounriver-studio-projects/UdpServer/NetLib/libwchnet.a(socket.o)
 .text.CloseIPRAWConnect
                0x0000000000000000       0x44 /home/randy/mounriver-studio-projects/UdpServer/NetLib/libwchnet.a(socket.o)
 .text.CloseTcpPCB
                0x0000000000000000       0x9c /home/randy/mounriver-studio-projects/UdpServer/NetLib/libwchnet.a(socket.o)
 .text.WCHNET_SocketClose
                0x0000000000000000       0x7c /home/randy/mounriver-studio-projects/UdpServer/NetLib/libwchnet.a(socket.o)
 .text.WCHNET_Aton
                0x0000000000000000       0x1c /home/randy/mounriver-studio-projects/UdpServer/NetLib/libwchnet.a(socket.o)
 .text.WCHNET_Ntoa
                0x0000000000000000       0x2c /home/randy/mounriver-studio-projects/UdpServer/NetLib/libwchnet.a(socket.o)
 .text.WCHNET_SetSocketTTL
                0x0000000000000000       0x40 /home/randy/mounriver-studio-projects/UdpServer/NetLib/libwchnet.a(socket.o)
 .text.WCHNET_SocketSetNagle
                0x0000000000000000       0x48 /home/randy/mounriver-studio-projects/UdpServer/NetLib/libwchnet.a(socket.o)
 .sbss.tcpSendAckFlag
                0x0000000000000000        0x4 /home/randy/mounriver-studio-projects/UdpServer/NetLib/libwchnet.a(socket.o)
 .sbss.tcpSendDataTime
                0x0000000000000000        0x4 /home/randy/mounriver-studio-projects/UdpServer/NetLib/libwchnet.a(socket.o)
 .text          0x0000000000000000        0x0 /home/randy/mounriver-studio-projects/UdpServer/NetLib/libwchnet.a(etharp.o)
 .data          0x0000000000000000        0x0 /home/randy/mounriver-studio-projects/UdpServer/NetLib/libwchnet.a(etharp.o)
 .bss           0x0000000000000000        0x0 /home/randy/mounriver-studio-projects/UdpServer/NetLib/libwchnet.a(etharp.o)
 .text.etharp_find_addr
                0x0000000000000000       0x50 /home/randy/mounriver-studio-projects/UdpServer/NetLib/libwchnet.a(etharp.o)
 .text.GET_MAC  0x0000000000000000       0x68 /home/randy/mounriver-studio-projects/UdpServer/NetLib/libwchnet.a(etharp.o)
 .text.etharp_tmr
                0x0000000000000000       0x94 /home/randy/mounriver-studio-projects/UdpServer/NetLib/libwchnet.a(etharp.o)
 .text          0x0000000000000000        0x0 /home/randy/mounriver-studio-projects/UdpServer/NetLib/libwchnet.a(ethernetif.o)
 .data          0x0000000000000000        0x0 /home/randy/mounriver-studio-projects/UdpServer/NetLib/libwchnet.a(ethernetif.o)
 .bss           0x0000000000000000        0x0 /home/randy/mounriver-studio-projects/UdpServer/NetLib/libwchnet.a(ethernetif.o)
 .text          0x0000000000000000        0x0 /home/randy/mounriver-studio-projects/UdpServer/NetLib/libwchnet.a(inet.o)
 .data          0x0000000000000000        0x0 /home/randy/mounriver-studio-projects/UdpServer/NetLib/libwchnet.a(inet.o)
 .bss           0x0000000000000000        0x0 /home/randy/mounriver-studio-projects/UdpServer/NetLib/libwchnet.a(inet.o)
 .text.inet_ntoa
                0x0000000000000000       0x8c /home/randy/mounriver-studio-projects/UdpServer/NetLib/libwchnet.a(inet.o)
 .text.inet_aton
                0x0000000000000000      0x160 /home/randy/mounriver-studio-projects/UdpServer/NetLib/libwchnet.a(inet.o)
 .text.inet_addr
                0x0000000000000000       0x26 /home/randy/mounriver-studio-projects/UdpServer/NetLib/libwchnet.a(inet.o)
 .bss.str.1805  0x0000000000000000       0x10 /home/randy/mounriver-studio-projects/UdpServer/NetLib/libwchnet.a(inet.o)
 .text          0x0000000000000000        0x0 /home/randy/mounriver-studio-projects/UdpServer/NetLib/libwchnet.a(ip.o)
 .data          0x0000000000000000        0x0 /home/randy/mounriver-studio-projects/UdpServer/NetLib/libwchnet.a(ip.o)
 .bss           0x0000000000000000        0x0 /home/randy/mounriver-studio-projects/UdpServer/NetLib/libwchnet.a(ip.o)
 .text          0x0000000000000000        0x0 /home/randy/mounriver-studio-projects/UdpServer/NetLib/libwchnet.a(ip_addr.o)
 .data          0x0000000000000000        0x0 /home/randy/mounriver-studio-projects/UdpServer/NetLib/libwchnet.a(ip_addr.o)
 .bss           0x0000000000000000        0x0 /home/randy/mounriver-studio-projects/UdpServer/NetLib/libwchnet.a(ip_addr.o)
 .text          0x0000000000000000        0x0 /home/randy/mounriver-studio-projects/UdpServer/NetLib/libwchnet.a(ip_frag.o)
 .data          0x0000000000000000        0x0 /home/randy/mounriver-studio-projects/UdpServer/NetLib/libwchnet.a(ip_frag.o)
 .bss           0x0000000000000000        0x0 /home/randy/mounriver-studio-projects/UdpServer/NetLib/libwchnet.a(ip_frag.o)
 .text.ip_reass_tmr
                0x0000000000000000      0x112 /home/randy/mounriver-studio-projects/UdpServer/NetLib/libwchnet.a(ip_frag.o)
 .text          0x0000000000000000        0x0 /home/randy/mounriver-studio-projects/UdpServer/NetLib/libwchnet.a(dhcp.o)
 .data          0x0000000000000000        0x0 /home/randy/mounriver-studio-projects/UdpServer/NetLib/libwchnet.a(dhcp.o)
 .bss           0x0000000000000000        0x0 /home/randy/mounriver-studio-projects/UdpServer/NetLib/libwchnet.a(dhcp.o)
 .text.dhcp_option_short
                0x0000000000000000       0x24 /home/randy/mounriver-studio-projects/UdpServer/NetLib/libwchnet.a(dhcp.o)
 .text.dhcp_get_option_ptr
                0x0000000000000000       0xb6 /home/randy/mounriver-studio-projects/UdpServer/NetLib/libwchnet.a(dhcp.o)
 .text.dhcp_get_option_long
                0x0000000000000000       0x18 /home/randy/mounriver-studio-projects/UdpServer/NetLib/libwchnet.a(dhcp.o)
 .text.dhcp_rebind
                0x0000000000000000      0x116 /home/randy/mounriver-studio-projects/UdpServer/NetLib/libwchnet.a(dhcp.o)
 .text.dhcp_discover
                0x0000000000000000      0x14a /home/randy/mounriver-studio-projects/UdpServer/NetLib/libwchnet.a(dhcp.o)
 .text.dhcp_select
                0x0000000000000000      0x1b0 /home/randy/mounriver-studio-projects/UdpServer/NetLib/libwchnet.a(dhcp.o)
 .text.dhcp_check
                0x0000000000000000       0x3a /home/randy/mounriver-studio-projects/UdpServer/NetLib/libwchnet.a(dhcp.o)
 .text.dhcp_bind
                0x0000000000000000      0x194 /home/randy/mounriver-studio-projects/UdpServer/NetLib/libwchnet.a(dhcp.o)
 .text.dhcp_free_reply
                0x0000000000000000       0x36 /home/randy/mounriver-studio-projects/UdpServer/NetLib/libwchnet.a(dhcp.o)
 .text.dhcp_recv
                0x0000000000000000      0x38c /home/randy/mounriver-studio-projects/UdpServer/NetLib/libwchnet.a(dhcp.o)
 .text.dhcp_inform
                0x0000000000000000       0xfa /home/randy/mounriver-studio-projects/UdpServer/NetLib/libwchnet.a(dhcp.o)
 .text.dhcp_renew
                0x0000000000000000      0x112 /home/randy/mounriver-studio-projects/UdpServer/NetLib/libwchnet.a(dhcp.o)
 .text.dhcp_coarse_tmr
                0x0000000000000000       0x70 /home/randy/mounriver-studio-projects/UdpServer/NetLib/libwchnet.a(dhcp.o)
 .text.dhcp_release
                0x0000000000000000      0x118 /home/randy/mounriver-studio-projects/UdpServer/NetLib/libwchnet.a(dhcp.o)
 .text.dhcp_fine_tmr
                0x0000000000000000      0x1ce /home/randy/mounriver-studio-projects/UdpServer/NetLib/libwchnet.a(dhcp.o)
 .text.dhcp_stop
                0x0000000000000000       0x3e /home/randy/mounriver-studio-projects/UdpServer/NetLib/libwchnet.a(dhcp.o)
 .text.dhcp_start
                0x0000000000000000       0xde /home/randy/mounriver-studio-projects/UdpServer/NetLib/libwchnet.a(dhcp.o)
 .text          0x0000000000000000        0x0 /home/randy/mounriver-studio-projects/UdpServer/NetLib/libwchnet.a(dns.o)
 .data          0x0000000000000000        0x0 /home/randy/mounriver-studio-projects/UdpServer/NetLib/libwchnet.a(dns.o)
 .bss           0x0000000000000000        0x0 /home/randy/mounriver-studio-projects/UdpServer/NetLib/libwchnet.a(dns.o)
 .text.dns_parse_name
                0x0000000000000000       0x20 /home/randy/mounriver-studio-projects/UdpServer/NetLib/libwchnet.a(dns.o)
 .text.dns_recv
                0x0000000000000000      0x226 /home/randy/mounriver-studio-projects/UdpServer/NetLib/libwchnet.a(dns.o)
 .text.dns_send
                0x0000000000000000      0x12e /home/randy/mounriver-studio-projects/UdpServer/NetLib/libwchnet.a(dns.o)
 .text.dns_check_entry
                0x0000000000000000       0xd6 /home/randy/mounriver-studio-projects/UdpServer/NetLib/libwchnet.a(dns.o)
 .text.dns_setserver
                0x0000000000000000       0x50 /home/randy/mounriver-studio-projects/UdpServer/NetLib/libwchnet.a(dns.o)
 .text.dns_init
                0x0000000000000000       0x68 /home/randy/mounriver-studio-projects/UdpServer/NetLib/libwchnet.a(dns.o)
 .text.dns_getserver
                0x0000000000000000       0x56 /home/randy/mounriver-studio-projects/UdpServer/NetLib/libwchnet.a(dns.o)
 .text.dns_tmr  0x0000000000000000       0x44 /home/randy/mounriver-studio-projects/UdpServer/NetLib/libwchnet.a(dns.o)
 .text.dns_lookup
                0x0000000000000000       0x58 /home/randy/mounriver-studio-projects/UdpServer/NetLib/libwchnet.a(dns.o)
 .text.dns_gethostbyname
                0x0000000000000000       0xf0 /home/randy/mounriver-studio-projects/UdpServer/NetLib/libwchnet.a(dns.o)
 .text.dns_stop
                0x0000000000000000       0x32 /home/randy/mounriver-studio-projects/UdpServer/NetLib/libwchnet.a(dns.o)
 .bss.dns_table
                0x0000000000000000      0x260 /home/randy/mounriver-studio-projects/UdpServer/NetLib/libwchnet.a(dns.o)
 .sbss.dns_pcb  0x0000000000000000        0x4 /home/randy/mounriver-studio-projects/UdpServer/NetLib/libwchnet.a(dns.o)
 .sbss.dns_seqno
                0x0000000000000000        0x1 /home/randy/mounriver-studio-projects/UdpServer/NetLib/libwchnet.a(dns.o)
 .sbss.dns_servers
                0x0000000000000000        0x8 /home/randy/mounriver-studio-projects/UdpServer/NetLib/libwchnet.a(dns.o)
 .comment       0x0000000000000000       0x34 /home/randy/mounriver-studio-projects/UdpServer/NetLib/libwchnet.a(dns.o)
 .text          0x0000000000000000        0x0 /home/randy/mounriver-studio-projects/UdpServer/NetLib/libwchnet.a(init.o)
 .data          0x0000000000000000        0x0 /home/randy/mounriver-studio-projects/UdpServer/NetLib/libwchnet.a(init.o)
 .bss           0x0000000000000000        0x0 /home/randy/mounriver-studio-projects/UdpServer/NetLib/libwchnet.a(init.o)
 .text          0x0000000000000000        0x0 /home/randy/mounriver-studio-projects/UdpServer/NetLib/libwchnet.a(mem.o)
 .data          0x0000000000000000        0x0 /home/randy/mounriver-studio-projects/UdpServer/NetLib/libwchnet.a(mem.o)
 .bss           0x0000000000000000        0x0 /home/randy/mounriver-studio-projects/UdpServer/NetLib/libwchnet.a(mem.o)
 .text.mem2_init
                0x0000000000000000       0x52 /home/randy/mounriver-studio-projects/UdpServer/NetLib/libwchnet.a(mem.o)
 .text.mem_calloc
                0x0000000000000000       0x3a /home/randy/mounriver-studio-projects/UdpServer/NetLib/libwchnet.a(mem.o)
 .text          0x0000000000000000        0x0 /home/randy/mounriver-studio-projects/UdpServer/NetLib/libwchnet.a(memp.o)
 .data          0x0000000000000000        0x0 /home/randy/mounriver-studio-projects/UdpServer/NetLib/libwchnet.a(memp.o)
 .bss           0x0000000000000000        0x0 /home/randy/mounriver-studio-projects/UdpServer/NetLib/libwchnet.a(memp.o)
 .text          0x0000000000000000        0x0 /home/randy/mounriver-studio-projects/UdpServer/NetLib/libwchnet.a(netif.o)
 .data          0x0000000000000000        0x0 /home/randy/mounriver-studio-projects/UdpServer/NetLib/libwchnet.a(netif.o)
 .bss           0x0000000000000000        0x0 /home/randy/mounriver-studio-projects/UdpServer/NetLib/libwchnet.a(netif.o)
 .text.netif_remove
                0x0000000000000000       0x3a /home/randy/mounriver-studio-projects/UdpServer/NetLib/libwchnet.a(netif.o)
 .text.netif_find
                0x0000000000000000       0x40 /home/randy/mounriver-studio-projects/UdpServer/NetLib/libwchnet.a(netif.o)
 .text.netif_set_gw
                0x0000000000000000       0x1c /home/randy/mounriver-studio-projects/UdpServer/NetLib/libwchnet.a(netif.o)
 .text.netif_set_netmask
                0x0000000000000000       0x1c /home/randy/mounriver-studio-projects/UdpServer/NetLib/libwchnet.a(netif.o)
 .text.netif_set_up
                0x0000000000000000       0x36 /home/randy/mounriver-studio-projects/UdpServer/NetLib/libwchnet.a(netif.o)
 .text.netif_set_down
                0x0000000000000000       0x12 /home/randy/mounriver-studio-projects/UdpServer/NetLib/libwchnet.a(netif.o)
 .text          0x0000000000000000        0x0 /home/randy/mounriver-studio-projects/UdpServer/NetLib/libwchnet.a(pbuf.o)
 .data          0x0000000000000000        0x0 /home/randy/mounriver-studio-projects/UdpServer/NetLib/libwchnet.a(pbuf.o)
 .bss           0x0000000000000000        0x0 /home/randy/mounriver-studio-projects/UdpServer/NetLib/libwchnet.a(pbuf.o)
 .text.pbuf_dechain
                0x0000000000000000       0x32 /home/randy/mounriver-studio-projects/UdpServer/NetLib/libwchnet.a(pbuf.o)
 .text.pbuf_copy_partial
                0x0000000000000000       0x76 /home/randy/mounriver-studio-projects/UdpServer/NetLib/libwchnet.a(pbuf.o)
 .text.pbuf_take
                0x0000000000000000       0x60 /home/randy/mounriver-studio-projects/UdpServer/NetLib/libwchnet.a(pbuf.o)
 .text.pbuf_coalesce
                0x0000000000000000       0x42 /home/randy/mounriver-studio-projects/UdpServer/NetLib/libwchnet.a(pbuf.o)
 .text          0x0000000000000000        0x0 /home/randy/mounriver-studio-projects/UdpServer/NetLib/libwchnet.a(raw.o)
 .data          0x0000000000000000        0x0 /home/randy/mounriver-studio-projects/UdpServer/NetLib/libwchnet.a(raw.o)
 .bss           0x0000000000000000        0x0 /home/randy/mounriver-studio-projects/UdpServer/NetLib/libwchnet.a(raw.o)
 .text.raw_sendto
                0x0000000000000000       0xa2 /home/randy/mounriver-studio-projects/UdpServer/NetLib/libwchnet.a(raw.o)
 .text.raw_send
                0x0000000000000000       0x1c /home/randy/mounriver-studio-projects/UdpServer/NetLib/libwchnet.a(raw.o)
 .text.raw_remove
                0x0000000000000000       0x40 /home/randy/mounriver-studio-projects/UdpServer/NetLib/libwchnet.a(raw.o)
 .text          0x0000000000000000        0x0 /home/randy/mounriver-studio-projects/UdpServer/NetLib/libwchnet.a(tcp.o)
 .data          0x0000000000000000        0x0 /home/randy/mounriver-studio-projects/UdpServer/NetLib/libwchnet.a(tcp.o)
 .bss           0x0000000000000000        0x0 /home/randy/mounriver-studio-projects/UdpServer/NetLib/libwchnet.a(tcp.o)
 .text.tcp_accept_null
                0x0000000000000000        0x4 /home/randy/mounriver-studio-projects/UdpServer/NetLib/libwchnet.a(tcp.o)
 .text.tcp_listen_with_backlog
                0x0000000000000000       0xb6 /home/randy/mounriver-studio-projects/UdpServer/NetLib/libwchnet.a(tcp.o)
 .text.tcp_setprio
                0x0000000000000000        0x4 /home/randy/mounriver-studio-projects/UdpServer/NetLib/libwchnet.a(tcp.o)
 .text.tcp_recv
                0x0000000000000000        0x6 /home/randy/mounriver-studio-projects/UdpServer/NetLib/libwchnet.a(tcp.o)
 .text.tcp_sent
                0x0000000000000000        0x6 /home/randy/mounriver-studio-projects/UdpServer/NetLib/libwchnet.a(tcp.o)
 .text.tcp_accept
                0x0000000000000000        0x4 /home/randy/mounriver-studio-projects/UdpServer/NetLib/libwchnet.a(tcp.o)
 .text.tcp_poll
                0x0000000000000000        0xa /home/randy/mounriver-studio-projects/UdpServer/NetLib/libwchnet.a(tcp.o)
 .text.tcp_slowtmr
                0x0000000000000000      0x304 /home/randy/mounriver-studio-projects/UdpServer/NetLib/libwchnet.a(tcp.o)
 .text.tcp_fasttmr
                0x0000000000000000       0x76 /home/randy/mounriver-studio-projects/UdpServer/NetLib/libwchnet.a(tcp.o)
 .text.tcp_tmr  0x0000000000000000       0x36 /home/randy/mounriver-studio-projects/UdpServer/NetLib/libwchnet.a(tcp.o)
 .text.tcp_fastsendack
                0x0000000000000000       0x90 /home/randy/mounriver-studio-projects/UdpServer/NetLib/libwchnet.a(tcp.o)
 .text.tcp_connect
                0x0000000000000000      0x114 /home/randy/mounriver-studio-projects/UdpServer/NetLib/libwchnet.a(tcp.o)
 .text.tcp_debug_state_str
                0x0000000000000000       0x10 /home/randy/mounriver-studio-projects/UdpServer/NetLib/libwchnet.a(tcp.o)
 .text.RemoveTimeWaiTCP
                0x0000000000000000       0x4a /home/randy/mounriver-studio-projects/UdpServer/NetLib/libwchnet.a(tcp.o)
 .data.tcp_state_str
                0x0000000000000000       0x2c /home/randy/mounriver-studio-projects/UdpServer/NetLib/libwchnet.a(tcp.o)
 .rodata.str1.4
                0x0000000000000000       0x76 /home/randy/mounriver-studio-projects/UdpServer/NetLib/libwchnet.a(tcp.o)
 .rodata.tcp_backoff
                0x0000000000000000        0xd /home/randy/mounriver-studio-projects/UdpServer/NetLib/libwchnet.a(tcp.o)
 .sbss.tcp_timer
                0x0000000000000000        0x1 /home/randy/mounriver-studio-projects/UdpServer/NetLib/libwchnet.a(tcp.o)
 .sdata2.tcp_persist_backoff
                0x0000000000000000        0x7 /home/randy/mounriver-studio-projects/UdpServer/NetLib/libwchnet.a(tcp.o)
 .text          0x0000000000000000        0x0 /home/randy/mounriver-studio-projects/UdpServer/NetLib/libwchnet.a(tcp_in.o)
 .data          0x0000000000000000        0x0 /home/randy/mounriver-studio-projects/UdpServer/NetLib/libwchnet.a(tcp_in.o)
 .bss           0x0000000000000000        0x0 /home/randy/mounriver-studio-projects/UdpServer/NetLib/libwchnet.a(tcp_in.o)
 .text          0x0000000000000000        0x0 /home/randy/mounriver-studio-projects/UdpServer/NetLib/libwchnet.a(tcp_out.o)
 .data          0x0000000000000000        0x0 /home/randy/mounriver-studio-projects/UdpServer/NetLib/libwchnet.a(tcp_out.o)
 .bss           0x0000000000000000        0x0 /home/randy/mounriver-studio-projects/UdpServer/NetLib/libwchnet.a(tcp_out.o)
 .text.tcp_write
                0x0000000000000000       0x3c /home/randy/mounriver-studio-projects/UdpServer/NetLib/libwchnet.a(tcp_out.o)
 .text.tcp_rexmit_rto
                0x0000000000000000       0x42 /home/randy/mounriver-studio-projects/UdpServer/NetLib/libwchnet.a(tcp_out.o)
 .text.tcp_keepalive
                0x0000000000000000       0x7e /home/randy/mounriver-studio-projects/UdpServer/NetLib/libwchnet.a(tcp_out.o)
 .text.tcp_zero_window_probe
                0x0000000000000000       0xfa /home/randy/mounriver-studio-projects/UdpServer/NetLib/libwchnet.a(tcp_out.o)
 .text          0x0000000000000000        0x0 /home/randy/mounriver-studio-projects/UdpServer/NetLib/libwchnet.a(udp.o)
 .data          0x0000000000000000        0x0 /home/randy/mounriver-studio-projects/UdpServer/NetLib/libwchnet.a(udp.o)
 .bss           0x0000000000000000        0x0 /home/randy/mounriver-studio-projects/UdpServer/NetLib/libwchnet.a(udp.o)
 .text.udp_send
                0x0000000000000000       0x1e /home/randy/mounriver-studio-projects/UdpServer/NetLib/libwchnet.a(udp.o)
 .text.udp_disconnect
                0x0000000000000000       0x2e /home/randy/mounriver-studio-projects/UdpServer/NetLib/libwchnet.a(udp.o)
 .text.udp_remove
                0x0000000000000000       0x40 /home/randy/mounriver-studio-projects/UdpServer/NetLib/libwchnet.a(udp.o)
 .text          0x0000000000000000        0x0 /home/randy/mounriver-studio-projects/UdpServer/NetLib/libwchnet.a(icmp.o)
 .data          0x0000000000000000        0x0 /home/randy/mounriver-studio-projects/UdpServer/NetLib/libwchnet.a(icmp.o)
 .bss           0x0000000000000000        0x0 /home/randy/mounriver-studio-projects/UdpServer/NetLib/libwchnet.a(icmp.o)
 .text.icmp_time_exceeded
                0x0000000000000000       0x20 /home/randy/mounriver-studio-projects/UdpServer/NetLib/libwchnet.a(icmp.o)
 .text          0x0000000000000000        0x0 /home/randy/mounriver-studio-projects/UdpServer/NetLib/libwchnet.a(inet_chksum.o)
 .data          0x0000000000000000        0x0 /home/randy/mounriver-studio-projects/UdpServer/NetLib/libwchnet.a(inet_chksum.o)
 .bss           0x0000000000000000        0x0 /home/randy/mounriver-studio-projects/UdpServer/NetLib/libwchnet.a(inet_chksum.o)
 .text          0x0000000000000000        0x0 /home/randy/Programs/MounRiverStudio/MounRiverStudio_Linux_X64_V230/MRS-linux-x64/resources/app/resources/linux/components/WCH/Toolchain/RISC-V Embedded GCC/bin/../lib/gcc/riscv-none-embed/8.2.0/../../../../riscv-none-embed/lib/rv32imacxw/ilp32/libprintf.a(wchprintf.o)
 .data          0x0000000000000000        0x0 /home/randy/Programs/MounRiverStudio/MounRiverStudio_Linux_X64_V230/MRS-linux-x64/resources/app/resources/linux/components/WCH/Toolchain/RISC-V Embedded GCC/bin/../lib/gcc/riscv-none-embed/8.2.0/../../../../riscv-none-embed/lib/rv32imacxw/ilp32/libprintf.a(wchprintf.o)
 .bss           0x0000000000000000        0x0 /home/randy/Programs/MounRiverStudio/MounRiverStudio_Linux_X64_V230/MRS-linux-x64/resources/app/resources/linux/components/WCH/Toolchain/RISC-V Embedded GCC/bin/../lib/gcc/riscv-none-embed/8.2.0/../../../../riscv-none-embed/lib/rv32imacxw/ilp32/libprintf.a(wchprintf.o)
 .text.snprintf
                0x0000000000000000       0x2e /home/randy/Programs/MounRiverStudio/MounRiverStudio_Linux_X64_V230/MRS-linux-x64/resources/app/resources/linux/components/WCH/Toolchain/RISC-V Embedded GCC/bin/../lib/gcc/riscv-none-embed/8.2.0/../../../../riscv-none-embed/lib/rv32imacxw/ilp32/libprintf.a(wchprintf.o)
 .text.putchar  0x0000000000000000       0x1c /home/randy/Programs/MounRiverStudio/MounRiverStudio_Linux_X64_V230/MRS-linux-x64/resources/app/resources/linux/components/WCH/Toolchain/RISC-V Embedded GCC/bin/../lib/gcc/riscv-none-embed/8.2.0/../../../../riscv-none-embed/lib/rv32imacxw/ilp32/libprintf.a(wchprintf.o)
 .data          0x0000000000000000        0x0 /home/randy/Programs/MounRiverStudio/MounRiverStudio_Linux_X64_V230/MRS-linux-x64/resources/app/resources/linux/components/WCH/Toolchain/RISC-V Embedded GCC/bin/../lib/gcc/riscv-none-embed/8.2.0/rv32imacxw/ilp32/libgcc.a(save-restore.o)
 .bss           0x0000000000000000        0x0 /home/randy/Programs/MounRiverStudio/MounRiverStudio_Linux_X64_V230/MRS-linux-x64/resources/app/resources/linux/components/WCH/Toolchain/RISC-V Embedded GCC/bin/../lib/gcc/riscv-none-embed/8.2.0/rv32imacxw/ilp32/libgcc.a(save-restore.o)
 .eh_frame      0x0000000000000000       0xf8 /home/randy/Programs/MounRiverStudio/MounRiverStudio_Linux_X64_V230/MRS-linux-x64/resources/app/resources/linux/components/WCH/Toolchain/RISC-V Embedded GCC/bin/../lib/gcc/riscv-none-embed/8.2.0/rv32imacxw/ilp32/libgcc.a(save-restore.o)
 .text          0x0000000000000000        0x0 /home/randy/Programs/MounRiverStudio/MounRiverStudio_Linux_X64_V230/MRS-linux-x64/resources/app/resources/linux/components/WCH/Toolchain/RISC-V Embedded GCC/bin/../lib/gcc/riscv-none-embed/8.2.0/../../../../riscv-none-embed/lib/rv32imacxw/ilp32/libg_nano.a(lib_a-atoi.o)
 .data          0x0000000000000000        0x0 /home/randy/Programs/MounRiverStudio/MounRiverStudio_Linux_X64_V230/MRS-linux-x64/resources/app/resources/linux/components/WCH/Toolchain/RISC-V Embedded GCC/bin/../lib/gcc/riscv-none-embed/8.2.0/../../../../riscv-none-embed/lib/rv32imacxw/ilp32/libg_nano.a(lib_a-atoi.o)
 .bss           0x0000000000000000        0x0 /home/randy/Programs/MounRiverStudio/MounRiverStudio_Linux_X64_V230/MRS-linux-x64/resources/app/resources/linux/components/WCH/Toolchain/RISC-V Embedded GCC/bin/../lib/gcc/riscv-none-embed/8.2.0/../../../../riscv-none-embed/lib/rv32imacxw/ilp32/libg_nano.a(lib_a-atoi.o)
 .text._atoi_r  0x0000000000000000        0xc /home/randy/Programs/MounRiverStudio/MounRiverStudio_Linux_X64_V230/MRS-linux-x64/resources/app/resources/linux/components/WCH/Toolchain/RISC-V Embedded GCC/bin/../lib/gcc/riscv-none-embed/8.2.0/../../../../riscv-none-embed/lib/rv32imacxw/ilp32/libg_nano.a(lib_a-atoi.o)
 .text          0x0000000000000000        0x0 /home/randy/Programs/MounRiverStudio/MounRiverStudio_Linux_X64_V230/MRS-linux-x64/resources/app/resources/linux/components/WCH/Toolchain/RISC-V Embedded GCC/bin/../lib/gcc/riscv-none-embed/8.2.0/../../../../riscv-none-embed/lib/rv32imacxw/ilp32/libg_nano.a(lib_a-locale.o)
 .data          0x0000000000000000        0x0 /home/randy/Programs/MounRiverStudio/MounRiverStudio_Linux_X64_V230/MRS-linux-x64/resources/app/resources/linux/components/WCH/Toolchain/RISC-V Embedded GCC/bin/../lib/gcc/riscv-none-embed/8.2.0/../../../../riscv-none-embed/lib/rv32imacxw/ilp32/libg_nano.a(lib_a-locale.o)
 .bss           0x0000000000000000        0x0 /home/randy/Programs/MounRiverStudio/MounRiverStudio_Linux_X64_V230/MRS-linux-x64/resources/app/resources/linux/components/WCH/Toolchain/RISC-V Embedded GCC/bin/../lib/gcc/riscv-none-embed/8.2.0/../../../../riscv-none-embed/lib/rv32imacxw/ilp32/libg_nano.a(lib_a-locale.o)
 .text._setlocale_r
                0x0000000000000000       0x64 /home/randy/Programs/MounRiverStudio/MounRiverStudio_Linux_X64_V230/MRS-linux-x64/resources/app/resources/linux/components/WCH/Toolchain/RISC-V Embedded GCC/bin/../lib/gcc/riscv-none-embed/8.2.0/../../../../riscv-none-embed/lib/rv32imacxw/ilp32/libg_nano.a(lib_a-locale.o)
 .text.__locale_mb_cur_max
                0x0000000000000000       0x1c /home/randy/Programs/MounRiverStudio/MounRiverStudio_Linux_X64_V230/MRS-linux-x64/resources/app/resources/linux/components/WCH/Toolchain/RISC-V Embedded GCC/bin/../lib/gcc/riscv-none-embed/8.2.0/../../../../riscv-none-embed/lib/rv32imacxw/ilp32/libg_nano.a(lib_a-locale.o)
 .text.setlocale
                0x0000000000000000       0x16 /home/randy/Programs/MounRiverStudio/MounRiverStudio_Linux_X64_V230/MRS-linux-x64/resources/app/resources/linux/components/WCH/Toolchain/RISC-V Embedded GCC/bin/../lib/gcc/riscv-none-embed/8.2.0/../../../../riscv-none-embed/lib/rv32imacxw/ilp32/libg_nano.a(lib_a-locale.o)
 .sbss._PathLocale
                0x0000000000000000        0x4 /home/randy/Programs/MounRiverStudio/MounRiverStudio_Linux_X64_V230/MRS-linux-x64/resources/app/resources/linux/components/WCH/Toolchain/RISC-V Embedded GCC/bin/../lib/gcc/riscv-none-embed/8.2.0/../../../../riscv-none-embed/lib/rv32imacxw/ilp32/libg_nano.a(lib_a-locale.o)
 .text          0x0000000000000000        0x0 /home/randy/Programs/MounRiverStudio/MounRiverStudio_Linux_X64_V230/MRS-linux-x64/resources/app/resources/linux/components/WCH/Toolchain/RISC-V Embedded GCC/bin/../lib/gcc/riscv-none-embed/8.2.0/../../../../riscv-none-embed/lib/rv32imacxw/ilp32/libg_nano.a(lib_a-mbtowc_r.o)
 .data          0x0000000000000000        0x0 /home/randy/Programs/MounRiverStudio/MounRiverStudio_Linux_X64_V230/MRS-linux-x64/resources/app/resources/linux/components/WCH/Toolchain/RISC-V Embedded GCC/bin/../lib/gcc/riscv-none-embed/8.2.0/../../../../riscv-none-embed/lib/rv32imacxw/ilp32/libg_nano.a(lib_a-mbtowc_r.o)
 .bss           0x0000000000000000        0x0 /home/randy/Programs/MounRiverStudio/MounRiverStudio_Linux_X64_V230/MRS-linux-x64/resources/app/resources/linux/components/WCH/Toolchain/RISC-V Embedded GCC/bin/../lib/gcc/riscv-none-embed/8.2.0/../../../../riscv-none-embed/lib/rv32imacxw/ilp32/libg_nano.a(lib_a-mbtowc_r.o)
 .text._mbtowc_r
                0x0000000000000000       0x1c /home/randy/Programs/MounRiverStudio/MounRiverStudio_Linux_X64_V230/MRS-linux-x64/resources/app/resources/linux/components/WCH/Toolchain/RISC-V Embedded GCC/bin/../lib/gcc/riscv-none-embed/8.2.0/../../../../riscv-none-embed/lib/rv32imacxw/ilp32/libg_nano.a(lib_a-mbtowc_r.o)
 .text          0x0000000000000000        0x0 /home/randy/Programs/MounRiverStudio/MounRiverStudio_Linux_X64_V230/MRS-linux-x64/resources/app/resources/linux/components/WCH/Toolchain/RISC-V Embedded GCC/bin/../lib/gcc/riscv-none-embed/8.2.0/../../../../riscv-none-embed/lib/rv32imacxw/ilp32/libg_nano.a(lib_a-memcpy.o)
 .data          0x0000000000000000        0x0 /home/randy/Programs/MounRiverStudio/MounRiverStudio_Linux_X64_V230/MRS-linux-x64/resources/app/resources/linux/components/WCH/Toolchain/RISC-V Embedded GCC/bin/../lib/gcc/riscv-none-embed/8.2.0/../../../../riscv-none-embed/lib/rv32imacxw/ilp32/libg_nano.a(lib_a-memcpy.o)
 .bss           0x0000000000000000        0x0 /home/randy/Programs/MounRiverStudio/MounRiverStudio_Linux_X64_V230/MRS-linux-x64/resources/app/resources/linux/components/WCH/Toolchain/RISC-V Embedded GCC/bin/../lib/gcc/riscv-none-embed/8.2.0/../../../../riscv-none-embed/lib/rv32imacxw/ilp32/libg_nano.a(lib_a-memcpy.o)
 .text          0x0000000000000000        0x0 /home/randy/Programs/MounRiverStudio/MounRiverStudio_Linux_X64_V230/MRS-linux-x64/resources/app/resources/linux/components/WCH/Toolchain/RISC-V Embedded GCC/bin/../lib/gcc/riscv-none-embed/8.2.0/../../../../riscv-none-embed/lib/rv32imacxw/ilp32/libg_nano.a(lib_a-memmove.o)
 .data          0x0000000000000000        0x0 /home/randy/Programs/MounRiverStudio/MounRiverStudio_Linux_X64_V230/MRS-linux-x64/resources/app/resources/linux/components/WCH/Toolchain/RISC-V Embedded GCC/bin/../lib/gcc/riscv-none-embed/8.2.0/../../../../riscv-none-embed/lib/rv32imacxw/ilp32/libg_nano.a(lib_a-memmove.o)
 .bss           0x0000000000000000        0x0 /home/randy/Programs/MounRiverStudio/MounRiverStudio_Linux_X64_V230/MRS-linux-x64/resources/app/resources/linux/components/WCH/Toolchain/RISC-V Embedded GCC/bin/../lib/gcc/riscv-none-embed/8.2.0/../../../../riscv-none-embed/lib/rv32imacxw/ilp32/libg_nano.a(lib_a-memmove.o)
 .data          0x0000000000000000        0x0 /home/randy/Programs/MounRiverStudio/MounRiverStudio_Linux_X64_V230/MRS-linux-x64/resources/app/resources/linux/components/WCH/Toolchain/RISC-V Embedded GCC/bin/../lib/gcc/riscv-none-embed/8.2.0/../../../../riscv-none-embed/lib/rv32imacxw/ilp32/libg_nano.a(lib_a-memset.o)
 .bss           0x0000000000000000        0x0 /home/randy/Programs/MounRiverStudio/MounRiverStudio_Linux_X64_V230/MRS-linux-x64/resources/app/resources/linux/components/WCH/Toolchain/RISC-V Embedded GCC/bin/../lib/gcc/riscv-none-embed/8.2.0/../../../../riscv-none-embed/lib/rv32imacxw/ilp32/libg_nano.a(lib_a-memset.o)
 .text          0x0000000000000000        0x0 /home/randy/Programs/MounRiverStudio/MounRiverStudio_Linux_X64_V230/MRS-linux-x64/resources/app/resources/linux/components/WCH/Toolchain/RISC-V Embedded GCC/bin/../lib/gcc/riscv-none-embed/8.2.0/../../../../riscv-none-embed/lib/rv32imacxw/ilp32/libg_nano.a(lib_a-sscanf.o)
 .data          0x0000000000000000        0x0 /home/randy/Programs/MounRiverStudio/MounRiverStudio_Linux_X64_V230/MRS-linux-x64/resources/app/resources/linux/components/WCH/Toolchain/RISC-V Embedded GCC/bin/../lib/gcc/riscv-none-embed/8.2.0/../../../../riscv-none-embed/lib/rv32imacxw/ilp32/libg_nano.a(lib_a-sscanf.o)
 .bss           0x0000000000000000        0x0 /home/randy/Programs/MounRiverStudio/MounRiverStudio_Linux_X64_V230/MRS-linux-x64/resources/app/resources/linux/components/WCH/Toolchain/RISC-V Embedded GCC/bin/../lib/gcc/riscv-none-embed/8.2.0/../../../../riscv-none-embed/lib/rv32imacxw/ilp32/libg_nano.a(lib_a-sscanf.o)
 .text._sscanf_r
                0x0000000000000000       0x5c /home/randy/Programs/MounRiverStudio/MounRiverStudio_Linux_X64_V230/MRS-linux-x64/resources/app/resources/linux/components/WCH/Toolchain/RISC-V Embedded GCC/bin/../lib/gcc/riscv-none-embed/8.2.0/../../../../riscv-none-embed/lib/rv32imacxw/ilp32/libg_nano.a(lib_a-sscanf.o)
 .text          0x0000000000000000        0x0 /home/randy/Programs/MounRiverStudio/MounRiverStudio_Linux_X64_V230/MRS-linux-x64/resources/app/resources/linux/components/WCH/Toolchain/RISC-V Embedded GCC/bin/../lib/gcc/riscv-none-embed/8.2.0/../../../../riscv-none-embed/lib/rv32imacxw/ilp32/libg_nano.a(lib_a-stdio.o)
 .data          0x0000000000000000        0x0 /home/randy/Programs/MounRiverStudio/MounRiverStudio_Linux_X64_V230/MRS-linux-x64/resources/app/resources/linux/components/WCH/Toolchain/RISC-V Embedded GCC/bin/../lib/gcc/riscv-none-embed/8.2.0/../../../../riscv-none-embed/lib/rv32imacxw/ilp32/libg_nano.a(lib_a-stdio.o)
 .bss           0x0000000000000000        0x0 /home/randy/Programs/MounRiverStudio/MounRiverStudio_Linux_X64_V230/MRS-linux-x64/resources/app/resources/linux/components/WCH/Toolchain/RISC-V Embedded GCC/bin/../lib/gcc/riscv-none-embed/8.2.0/../../../../riscv-none-embed/lib/rv32imacxw/ilp32/libg_nano.a(lib_a-stdio.o)
 .text.__sread  0x0000000000000000       0x32 /home/randy/Programs/MounRiverStudio/MounRiverStudio_Linux_X64_V230/MRS-linux-x64/resources/app/resources/linux/components/WCH/Toolchain/RISC-V Embedded GCC/bin/../lib/gcc/riscv-none-embed/8.2.0/../../../../riscv-none-embed/lib/rv32imacxw/ilp32/libg_nano.a(lib_a-stdio.o)
 .text.__swrite
                0x0000000000000000       0x54 /home/randy/Programs/MounRiverStudio/MounRiverStudio_Linux_X64_V230/MRS-linux-x64/resources/app/resources/linux/components/WCH/Toolchain/RISC-V Embedded GCC/bin/../lib/gcc/riscv-none-embed/8.2.0/../../../../riscv-none-embed/lib/rv32imacxw/ilp32/libg_nano.a(lib_a-stdio.o)
 .text.__sseek  0x0000000000000000       0x36 /home/randy/Programs/MounRiverStudio/MounRiverStudio_Linux_X64_V230/MRS-linux-x64/resources/app/resources/linux/components/WCH/Toolchain/RISC-V Embedded GCC/bin/../lib/gcc/riscv-none-embed/8.2.0/../../../../riscv-none-embed/lib/rv32imacxw/ilp32/libg_nano.a(lib_a-stdio.o)
 .text.__sclose
                0x0000000000000000        0xc /home/randy/Programs/MounRiverStudio/MounRiverStudio_Linux_X64_V230/MRS-linux-x64/resources/app/resources/linux/components/WCH/Toolchain/RISC-V Embedded GCC/bin/../lib/gcc/riscv-none-embed/8.2.0/../../../../riscv-none-embed/lib/rv32imacxw/ilp32/libg_nano.a(lib_a-stdio.o)
 .text          0x0000000000000000        0x0 /home/randy/Programs/MounRiverStudio/MounRiverStudio_Linux_X64_V230/MRS-linux-x64/resources/app/resources/linux/components/WCH/Toolchain/RISC-V Embedded GCC/bin/../lib/gcc/riscv-none-embed/8.2.0/../../../../riscv-none-embed/lib/rv32imacxw/ilp32/libg_nano.a(lib_a-strchr.o)
 .data          0x0000000000000000        0x0 /home/randy/Programs/MounRiverStudio/MounRiverStudio_Linux_X64_V230/MRS-linux-x64/resources/app/resources/linux/components/WCH/Toolchain/RISC-V Embedded GCC/bin/../lib/gcc/riscv-none-embed/8.2.0/../../../../riscv-none-embed/lib/rv32imacxw/ilp32/libg_nano.a(lib_a-strchr.o)
 .bss           0x0000000000000000        0x0 /home/randy/Programs/MounRiverStudio/MounRiverStudio_Linux_X64_V230/MRS-linux-x64/resources/app/resources/linux/components/WCH/Toolchain/RISC-V Embedded GCC/bin/../lib/gcc/riscv-none-embed/8.2.0/../../../../riscv-none-embed/lib/rv32imacxw/ilp32/libg_nano.a(lib_a-strchr.o)
 .data          0x0000000000000000        0x0 /home/randy/Programs/MounRiverStudio/MounRiverStudio_Linux_X64_V230/MRS-linux-x64/resources/app/resources/linux/components/WCH/Toolchain/RISC-V Embedded GCC/bin/../lib/gcc/riscv-none-embed/8.2.0/../../../../riscv-none-embed/lib/rv32imacxw/ilp32/libg_nano.a(lib_a-strcmp.o)
 .bss           0x0000000000000000        0x0 /home/randy/Programs/MounRiverStudio/MounRiverStudio_Linux_X64_V230/MRS-linux-x64/resources/app/resources/linux/components/WCH/Toolchain/RISC-V Embedded GCC/bin/../lib/gcc/riscv-none-embed/8.2.0/../../../../riscv-none-embed/lib/rv32imacxw/ilp32/libg_nano.a(lib_a-strcmp.o)
 .text          0x0000000000000000        0x0 /home/randy/Programs/MounRiverStudio/MounRiverStudio_Linux_X64_V230/MRS-linux-x64/resources/app/resources/linux/components/WCH/Toolchain/RISC-V Embedded GCC/bin/../lib/gcc/riscv-none-embed/8.2.0/../../../../riscv-none-embed/lib/rv32imacxw/ilp32/libg_nano.a(lib_a-strcpy.o)
 .data          0x0000000000000000        0x0 /home/randy/Programs/MounRiverStudio/MounRiverStudio_Linux_X64_V230/MRS-linux-x64/resources/app/resources/linux/components/WCH/Toolchain/RISC-V Embedded GCC/bin/../lib/gcc/riscv-none-embed/8.2.0/../../../../riscv-none-embed/lib/rv32imacxw/ilp32/libg_nano.a(lib_a-strcpy.o)
 .bss           0x0000000000000000        0x0 /home/randy/Programs/MounRiverStudio/MounRiverStudio_Linux_X64_V230/MRS-linux-x64/resources/app/resources/linux/components/WCH/Toolchain/RISC-V Embedded GCC/bin/../lib/gcc/riscv-none-embed/8.2.0/../../../../riscv-none-embed/lib/rv32imacxw/ilp32/libg_nano.a(lib_a-strcpy.o)
 .text.strcpy   0x0000000000000000       0x10 /home/randy/Programs/MounRiverStudio/MounRiverStudio_Linux_X64_V230/MRS-linux-x64/resources/app/resources/linux/components/WCH/Toolchain/RISC-V Embedded GCC/bin/../lib/gcc/riscv-none-embed/8.2.0/../../../../riscv-none-embed/lib/rv32imacxw/ilp32/libg_nano.a(lib_a-strcpy.o)
 .debug_frame   0x0000000000000000       0x20 /home/randy/Programs/MounRiverStudio/MounRiverStudio_Linux_X64_V230/MRS-linux-x64/resources/app/resources/linux/components/WCH/Toolchain/RISC-V Embedded GCC/bin/../lib/gcc/riscv-none-embed/8.2.0/../../../../riscv-none-embed/lib/rv32imacxw/ilp32/libg_nano.a(lib_a-strcpy.o)
 .text          0x0000000000000000        0x0 /home/randy/Programs/MounRiverStudio/MounRiverStudio_Linux_X64_V230/MRS-linux-x64/resources/app/resources/linux/components/WCH/Toolchain/RISC-V Embedded GCC/bin/../lib/gcc/riscv-none-embed/8.2.0/../../../../riscv-none-embed/lib/rv32imacxw/ilp32/libg_nano.a(lib_a-strlen.o)
 .data          0x0000000000000000        0x0 /home/randy/Programs/MounRiverStudio/MounRiverStudio_Linux_X64_V230/MRS-linux-x64/resources/app/resources/linux/components/WCH/Toolchain/RISC-V Embedded GCC/bin/../lib/gcc/riscv-none-embed/8.2.0/../../../../riscv-none-embed/lib/rv32imacxw/ilp32/libg_nano.a(lib_a-strlen.o)
 .bss           0x0000000000000000        0x0 /home/randy/Programs/MounRiverStudio/MounRiverStudio_Linux_X64_V230/MRS-linux-x64/resources/app/resources/linux/components/WCH/Toolchain/RISC-V Embedded GCC/bin/../lib/gcc/riscv-none-embed/8.2.0/../../../../riscv-none-embed/lib/rv32imacxw/ilp32/libg_nano.a(lib_a-strlen.o)
 .text          0x0000000000000000        0x0 /home/randy/Programs/MounRiverStudio/MounRiverStudio_Linux_X64_V230/MRS-linux-x64/resources/app/resources/linux/components/WCH/Toolchain/RISC-V Embedded GCC/bin/../lib/gcc/riscv-none-embed/8.2.0/../../../../riscv-none-embed/lib/rv32imacxw/ilp32/libg_nano.a(lib_a-strncat.o)
 .data          0x0000000000000000        0x0 /home/randy/Programs/MounRiverStudio/MounRiverStudio_Linux_X64_V230/MRS-linux-x64/resources/app/resources/linux/components/WCH/Toolchain/RISC-V Embedded GCC/bin/../lib/gcc/riscv-none-embed/8.2.0/../../../../riscv-none-embed/lib/rv32imacxw/ilp32/libg_nano.a(lib_a-strncat.o)
 .bss           0x0000000000000000        0x0 /home/randy/Programs/MounRiverStudio/MounRiverStudio_Linux_X64_V230/MRS-linux-x64/resources/app/resources/linux/components/WCH/Toolchain/RISC-V Embedded GCC/bin/../lib/gcc/riscv-none-embed/8.2.0/../../../../riscv-none-embed/lib/rv32imacxw/ilp32/libg_nano.a(lib_a-strncat.o)
 .text          0x0000000000000000        0x0 /home/randy/Programs/MounRiverStudio/MounRiverStudio_Linux_X64_V230/MRS-linux-x64/resources/app/resources/linux/components/WCH/Toolchain/RISC-V Embedded GCC/bin/../lib/gcc/riscv-none-embed/8.2.0/../../../../riscv-none-embed/lib/rv32imacxw/ilp32/libg_nano.a(lib_a-strncpy.o)
 .data          0x0000000000000000        0x0 /home/randy/Programs/MounRiverStudio/MounRiverStudio_Linux_X64_V230/MRS-linux-x64/resources/app/resources/linux/components/WCH/Toolchain/RISC-V Embedded GCC/bin/../lib/gcc/riscv-none-embed/8.2.0/../../../../riscv-none-embed/lib/rv32imacxw/ilp32/libg_nano.a(lib_a-strncpy.o)
 .bss           0x0000000000000000        0x0 /home/randy/Programs/MounRiverStudio/MounRiverStudio_Linux_X64_V230/MRS-linux-x64/resources/app/resources/linux/components/WCH/Toolchain/RISC-V Embedded GCC/bin/../lib/gcc/riscv-none-embed/8.2.0/../../../../riscv-none-embed/lib/rv32imacxw/ilp32/libg_nano.a(lib_a-strncpy.o)
 .text          0x0000000000000000        0x0 /home/randy/Programs/MounRiverStudio/MounRiverStudio_Linux_X64_V230/MRS-linux-x64/resources/app/resources/linux/components/WCH/Toolchain/RISC-V Embedded GCC/bin/../lib/gcc/riscv-none-embed/8.2.0/../../../../riscv-none-embed/lib/rv32imacxw/ilp32/libg_nano.a(lib_a-strtok.o)
 .data          0x0000000000000000        0x0 /home/randy/Programs/MounRiverStudio/MounRiverStudio_Linux_X64_V230/MRS-linux-x64/resources/app/resources/linux/components/WCH/Toolchain/RISC-V Embedded GCC/bin/../lib/gcc/riscv-none-embed/8.2.0/../../../../riscv-none-embed/lib/rv32imacxw/ilp32/libg_nano.a(lib_a-strtok.o)
 .bss           0x0000000000000000        0x0 /home/randy/Programs/MounRiverStudio/MounRiverStudio_Linux_X64_V230/MRS-linux-x64/resources/app/resources/linux/components/WCH/Toolchain/RISC-V Embedded GCC/bin/../lib/gcc/riscv-none-embed/8.2.0/../../../../riscv-none-embed/lib/rv32imacxw/ilp32/libg_nano.a(lib_a-strtok.o)
 .text          0x0000000000000000        0x0 /home/randy/Programs/MounRiverStudio/MounRiverStudio_Linux_X64_V230/MRS-linux-x64/resources/app/resources/linux/components/WCH/Toolchain/RISC-V Embedded GCC/bin/../lib/gcc/riscv-none-embed/8.2.0/../../../../riscv-none-embed/lib/rv32imacxw/ilp32/libg_nano.a(lib_a-strtok_r.o)
 .data          0x0000000000000000        0x0 /home/randy/Programs/MounRiverStudio/MounRiverStudio_Linux_X64_V230/MRS-linux-x64/resources/app/resources/linux/components/WCH/Toolchain/RISC-V Embedded GCC/bin/../lib/gcc/riscv-none-embed/8.2.0/../../../../riscv-none-embed/lib/rv32imacxw/ilp32/libg_nano.a(lib_a-strtok_r.o)
 .bss           0x0000000000000000        0x0 /home/randy/Programs/MounRiverStudio/MounRiverStudio_Linux_X64_V230/MRS-linux-x64/resources/app/resources/linux/components/WCH/Toolchain/RISC-V Embedded GCC/bin/../lib/gcc/riscv-none-embed/8.2.0/../../../../riscv-none-embed/lib/rv32imacxw/ilp32/libg_nano.a(lib_a-strtok_r.o)
 .text.strtok_r
                0x0000000000000000        0xa /home/randy/Programs/MounRiverStudio/MounRiverStudio_Linux_X64_V230/MRS-linux-x64/resources/app/resources/linux/components/WCH/Toolchain/RISC-V Embedded GCC/bin/../lib/gcc/riscv-none-embed/8.2.0/../../../../riscv-none-embed/lib/rv32imacxw/ilp32/libg_nano.a(lib_a-strtok_r.o)
 .text          0x0000000000000000        0x0 /home/randy/Programs/MounRiverStudio/MounRiverStudio_Linux_X64_V230/MRS-linux-x64/resources/app/resources/linux/components/WCH/Toolchain/RISC-V Embedded GCC/bin/../lib/gcc/riscv-none-embed/8.2.0/../../../../riscv-none-embed/lib/rv32imacxw/ilp32/libg_nano.a(lib_a-strtol.o)
 .data          0x0000000000000000        0x0 /home/randy/Programs/MounRiverStudio/MounRiverStudio_Linux_X64_V230/MRS-linux-x64/resources/app/resources/linux/components/WCH/Toolchain/RISC-V Embedded GCC/bin/../lib/gcc/riscv-none-embed/8.2.0/../../../../riscv-none-embed/lib/rv32imacxw/ilp32/libg_nano.a(lib_a-strtol.o)
 .bss           0x0000000000000000        0x0 /home/randy/Programs/MounRiverStudio/MounRiverStudio_Linux_X64_V230/MRS-linux-x64/resources/app/resources/linux/components/WCH/Toolchain/RISC-V Embedded GCC/bin/../lib/gcc/riscv-none-embed/8.2.0/../../../../riscv-none-embed/lib/rv32imacxw/ilp32/libg_nano.a(lib_a-strtol.o)
 .text.strtol_l
                0x0000000000000000       0x1a /home/randy/Programs/MounRiverStudio/MounRiverStudio_Linux_X64_V230/MRS-linux-x64/resources/app/resources/linux/components/WCH/Toolchain/RISC-V Embedded GCC/bin/../lib/gcc/riscv-none-embed/8.2.0/../../../../riscv-none-embed/lib/rv32imacxw/ilp32/libg_nano.a(lib_a-strtol.o)
 .text          0x0000000000000000        0x0 /home/randy/Programs/MounRiverStudio/MounRiverStudio_Linux_X64_V230/MRS-linux-x64/resources/app/resources/linux/components/WCH/Toolchain/RISC-V Embedded GCC/bin/../lib/gcc/riscv-none-embed/8.2.0/../../../../riscv-none-embed/lib/rv32imacxw/ilp32/libg_nano.a(lib_a-wctomb_r.o)
 .data          0x0000000000000000        0x0 /home/randy/Programs/MounRiverStudio/MounRiverStudio_Linux_X64_V230/MRS-linux-x64/resources/app/resources/linux/components/WCH/Toolchain/RISC-V Embedded GCC/bin/../lib/gcc/riscv-none-embed/8.2.0/../../../../riscv-none-embed/lib/rv32imacxw/ilp32/libg_nano.a(lib_a-wctomb_r.o)
 .bss           0x0000000000000000        0x0 /home/randy/Programs/MounRiverStudio/MounRiverStudio_Linux_X64_V230/MRS-linux-x64/resources/app/resources/linux/components/WCH/Toolchain/RISC-V Embedded GCC/bin/../lib/gcc/riscv-none-embed/8.2.0/../../../../riscv-none-embed/lib/rv32imacxw/ilp32/libg_nano.a(lib_a-wctomb_r.o)
 .text._wctomb_r
                0x0000000000000000       0x1c /home/randy/Programs/MounRiverStudio/MounRiverStudio_Linux_X64_V230/MRS-linux-x64/resources/app/resources/linux/components/WCH/Toolchain/RISC-V Embedded GCC/bin/../lib/gcc/riscv-none-embed/8.2.0/../../../../riscv-none-embed/lib/rv32imacxw/ilp32/libg_nano.a(lib_a-wctomb_r.o)
 .text          0x0000000000000000        0x0 /home/randy/Programs/MounRiverStudio/MounRiverStudio_Linux_X64_V230/MRS-linux-x64/resources/app/resources/linux/components/WCH/Toolchain/RISC-V Embedded GCC/bin/../lib/gcc/riscv-none-embed/8.2.0/../../../../riscv-none-embed/lib/rv32imacxw/ilp32/libg_nano.a(lib_a-writer.o)
 .data          0x0000000000000000        0x0 /home/randy/Programs/MounRiverStudio/MounRiverStudio_Linux_X64_V230/MRS-linux-x64/resources/app/resources/linux/components/WCH/Toolchain/RISC-V Embedded GCC/bin/../lib/gcc/riscv-none-embed/8.2.0/../../../../riscv-none-embed/lib/rv32imacxw/ilp32/libg_nano.a(lib_a-writer.o)
 .bss           0x0000000000000000        0x0 /home/randy/Programs/MounRiverStudio/MounRiverStudio_Linux_X64_V230/MRS-linux-x64/resources/app/resources/linux/components/WCH/Toolchain/RISC-V Embedded GCC/bin/../lib/gcc/riscv-none-embed/8.2.0/../../../../riscv-none-embed/lib/rv32imacxw/ilp32/libg_nano.a(lib_a-writer.o)
 .text._write_r
                0x0000000000000000       0x3a /home/randy/Programs/MounRiverStudio/MounRiverStudio_Linux_X64_V230/MRS-linux-x64/resources/app/resources/linux/components/WCH/Toolchain/RISC-V Embedded GCC/bin/../lib/gcc/riscv-none-embed/8.2.0/../../../../riscv-none-embed/lib/rv32imacxw/ilp32/libg_nano.a(lib_a-writer.o)
 .debug_frame   0x0000000000000000       0x30 /home/randy/Programs/MounRiverStudio/MounRiverStudio_Linux_X64_V230/MRS-linux-x64/resources/app/resources/linux/components/WCH/Toolchain/RISC-V Embedded GCC/bin/../lib/gcc/riscv-none-embed/8.2.0/../../../../riscv-none-embed/lib/rv32imacxw/ilp32/libg_nano.a(lib_a-writer.o)
 .text          0x0000000000000000        0x0 /home/randy/Programs/MounRiverStudio/MounRiverStudio_Linux_X64_V230/MRS-linux-x64/resources/app/resources/linux/components/WCH/Toolchain/RISC-V Embedded GCC/bin/../lib/gcc/riscv-none-embed/8.2.0/../../../../riscv-none-embed/lib/rv32imacxw/ilp32/libg_nano.a(lib_a-closer.o)
 .data          0x0000000000000000        0x0 /home/randy/Programs/MounRiverStudio/MounRiverStudio_Linux_X64_V230/MRS-linux-x64/resources/app/resources/linux/components/WCH/Toolchain/RISC-V Embedded GCC/bin/../lib/gcc/riscv-none-embed/8.2.0/../../../../riscv-none-embed/lib/rv32imacxw/ilp32/libg_nano.a(lib_a-closer.o)
 .bss           0x0000000000000000        0x0 /home/randy/Programs/MounRiverStudio/MounRiverStudio_Linux_X64_V230/MRS-linux-x64/resources/app/resources/linux/components/WCH/Toolchain/RISC-V Embedded GCC/bin/../lib/gcc/riscv-none-embed/8.2.0/../../../../riscv-none-embed/lib/rv32imacxw/ilp32/libg_nano.a(lib_a-closer.o)
 .text._close_r
                0x0000000000000000       0x36 /home/randy/Programs/MounRiverStudio/MounRiverStudio_Linux_X64_V230/MRS-linux-x64/resources/app/resources/linux/components/WCH/Toolchain/RISC-V Embedded GCC/bin/../lib/gcc/riscv-none-embed/8.2.0/../../../../riscv-none-embed/lib/rv32imacxw/ilp32/libg_nano.a(lib_a-closer.o)
 .debug_frame   0x0000000000000000       0x30 /home/randy/Programs/MounRiverStudio/MounRiverStudio_Linux_X64_V230/MRS-linux-x64/resources/app/resources/linux/components/WCH/Toolchain/RISC-V Embedded GCC/bin/../lib/gcc/riscv-none-embed/8.2.0/../../../../riscv-none-embed/lib/rv32imacxw/ilp32/libg_nano.a(lib_a-closer.o)
 .text          0x0000000000000000        0x0 /home/randy/Programs/MounRiverStudio/MounRiverStudio_Linux_X64_V230/MRS-linux-x64/resources/app/resources/linux/components/WCH/Toolchain/RISC-V Embedded GCC/bin/../lib/gcc/riscv-none-embed/8.2.0/../../../../riscv-none-embed/lib/rv32imacxw/ilp32/libg_nano.a(lib_a-ctype_.o)
 .data          0x0000000000000000        0x0 /home/randy/Programs/MounRiverStudio/MounRiverStudio_Linux_X64_V230/MRS-linux-x64/resources/app/resources/linux/components/WCH/Toolchain/RISC-V Embedded GCC/bin/../lib/gcc/riscv-none-embed/8.2.0/../../../../riscv-none-embed/lib/rv32imacxw/ilp32/libg_nano.a(lib_a-ctype_.o)
 .bss           0x0000000000000000        0x0 /home/randy/Programs/MounRiverStudio/MounRiverStudio_Linux_X64_V230/MRS-linux-x64/resources/app/resources/linux/components/WCH/Toolchain/RISC-V Embedded GCC/bin/../lib/gcc/riscv-none-embed/8.2.0/../../../../riscv-none-embed/lib/rv32imacxw/ilp32/libg_nano.a(lib_a-ctype_.o)
 .text          0x0000000000000000        0x0 /home/randy/Programs/MounRiverStudio/MounRiverStudio_Linux_X64_V230/MRS-linux-x64/resources/app/resources/linux/components/WCH/Toolchain/RISC-V Embedded GCC/bin/../lib/gcc/riscv-none-embed/8.2.0/../../../../riscv-none-embed/lib/rv32imacxw/ilp32/libg_nano.a(lib_a-impure.o)
 .data          0x0000000000000000        0x0 /home/randy/Programs/MounRiverStudio/MounRiverStudio_Linux_X64_V230/MRS-linux-x64/resources/app/resources/linux/components/WCH/Toolchain/RISC-V Embedded GCC/bin/../lib/gcc/riscv-none-embed/8.2.0/../../../../riscv-none-embed/lib/rv32imacxw/ilp32/libg_nano.a(lib_a-impure.o)
 .bss           0x0000000000000000        0x0 /home/randy/Programs/MounRiverStudio/MounRiverStudio_Linux_X64_V230/MRS-linux-x64/resources/app/resources/linux/components/WCH/Toolchain/RISC-V Embedded GCC/bin/../lib/gcc/riscv-none-embed/8.2.0/../../../../riscv-none-embed/lib/rv32imacxw/ilp32/libg_nano.a(lib_a-impure.o)
 .sdata2._global_impure_ptr
                0x0000000000000000        0x4 /home/randy/Programs/MounRiverStudio/MounRiverStudio_Linux_X64_V230/MRS-linux-x64/resources/app/resources/linux/components/WCH/Toolchain/RISC-V Embedded GCC/bin/../lib/gcc/riscv-none-embed/8.2.0/../../../../riscv-none-embed/lib/rv32imacxw/ilp32/libg_nano.a(lib_a-impure.o)
 .text          0x0000000000000000        0x0 /home/randy/Programs/MounRiverStudio/MounRiverStudio_Linux_X64_V230/MRS-linux-x64/resources/app/resources/linux/components/WCH/Toolchain/RISC-V Embedded GCC/bin/../lib/gcc/riscv-none-embed/8.2.0/../../../../riscv-none-embed/lib/rv32imacxw/ilp32/libg_nano.a(lib_a-lseekr.o)
 .data          0x0000000000000000        0x0 /home/randy/Programs/MounRiverStudio/MounRiverStudio_Linux_X64_V230/MRS-linux-x64/resources/app/resources/linux/components/WCH/Toolchain/RISC-V Embedded GCC/bin/../lib/gcc/riscv-none-embed/8.2.0/../../../../riscv-none-embed/lib/rv32imacxw/ilp32/libg_nano.a(lib_a-lseekr.o)
 .bss           0x0000000000000000        0x0 /home/randy/Programs/MounRiverStudio/MounRiverStudio_Linux_X64_V230/MRS-linux-x64/resources/app/resources/linux/components/WCH/Toolchain/RISC-V Embedded GCC/bin/../lib/gcc/riscv-none-embed/8.2.0/../../../../riscv-none-embed/lib/rv32imacxw/ilp32/libg_nano.a(lib_a-lseekr.o)
 .text._lseek_r
                0x0000000000000000       0x3a /home/randy/Programs/MounRiverStudio/MounRiverStudio_Linux_X64_V230/MRS-linux-x64/resources/app/resources/linux/components/WCH/Toolchain/RISC-V Embedded GCC/bin/../lib/gcc/riscv-none-embed/8.2.0/../../../../riscv-none-embed/lib/rv32imacxw/ilp32/libg_nano.a(lib_a-lseekr.o)
 .debug_frame   0x0000000000000000       0x30 /home/randy/Programs/MounRiverStudio/MounRiverStudio_Linux_X64_V230/MRS-linux-x64/resources/app/resources/linux/components/WCH/Toolchain/RISC-V Embedded GCC/bin/../lib/gcc/riscv-none-embed/8.2.0/../../../../riscv-none-embed/lib/rv32imacxw/ilp32/libg_nano.a(lib_a-lseekr.o)
 .text          0x0000000000000000        0x0 /home/randy/Programs/MounRiverStudio/MounRiverStudio_Linux_X64_V230/MRS-linux-x64/resources/app/resources/linux/components/WCH/Toolchain/RISC-V Embedded GCC/bin/../lib/gcc/riscv-none-embed/8.2.0/../../../../riscv-none-embed/lib/rv32imacxw/ilp32/libg_nano.a(lib_a-malloc.o)
 .data          0x0000000000000000        0x0 /home/randy/Programs/MounRiverStudio/MounRiverStudio_Linux_X64_V230/MRS-linux-x64/resources/app/resources/linux/components/WCH/Toolchain/RISC-V Embedded GCC/bin/../lib/gcc/riscv-none-embed/8.2.0/../../../../riscv-none-embed/lib/rv32imacxw/ilp32/libg_nano.a(lib_a-malloc.o)
 .bss           0x0000000000000000        0x0 /home/randy/Programs/MounRiverStudio/MounRiverStudio_Linux_X64_V230/MRS-linux-x64/resources/app/resources/linux/components/WCH/Toolchain/RISC-V Embedded GCC/bin/../lib/gcc/riscv-none-embed/8.2.0/../../../../riscv-none-embed/lib/rv32imacxw/ilp32/libg_nano.a(lib_a-malloc.o)
 .text.free     0x0000000000000000       0x14 /home/randy/Programs/MounRiverStudio/MounRiverStudio_Linux_X64_V230/MRS-linux-x64/resources/app/resources/linux/components/WCH/Toolchain/RISC-V Embedded GCC/bin/../lib/gcc/riscv-none-embed/8.2.0/../../../../riscv-none-embed/lib/rv32imacxw/ilp32/libg_nano.a(lib_a-malloc.o)
 .text          0x0000000000000000        0x0 /home/randy/Programs/MounRiverStudio/MounRiverStudio_Linux_X64_V230/MRS-linux-x64/resources/app/resources/linux/components/WCH/Toolchain/RISC-V Embedded GCC/bin/../lib/gcc/riscv-none-embed/8.2.0/../../../../riscv-none-embed/lib/rv32imacxw/ilp32/libg_nano.a(lib_a-nano-freer.o)
 .data          0x0000000000000000        0x0 /home/randy/Programs/MounRiverStudio/MounRiverStudio_Linux_X64_V230/MRS-linux-x64/resources/app/resources/linux/components/WCH/Toolchain/RISC-V Embedded GCC/bin/../lib/gcc/riscv-none-embed/8.2.0/../../../../riscv-none-embed/lib/rv32imacxw/ilp32/libg_nano.a(lib_a-nano-freer.o)
 .bss           0x0000000000000000        0x0 /home/randy/Programs/MounRiverStudio/MounRiverStudio_Linux_X64_V230/MRS-linux-x64/resources/app/resources/linux/components/WCH/Toolchain/RISC-V Embedded GCC/bin/../lib/gcc/riscv-none-embed/8.2.0/../../../../riscv-none-embed/lib/rv32imacxw/ilp32/libg_nano.a(lib_a-nano-freer.o)
 .text          0x0000000000000000        0x0 /home/randy/Programs/MounRiverStudio/MounRiverStudio_Linux_X64_V230/MRS-linux-x64/resources/app/resources/linux/components/WCH/Toolchain/RISC-V Embedded GCC/bin/../lib/gcc/riscv-none-embed/8.2.0/../../../../riscv-none-embed/lib/rv32imacxw/ilp32/libg_nano.a(lib_a-nano-mallocr.o)
 .data          0x0000000000000000        0x0 /home/randy/Programs/MounRiverStudio/MounRiverStudio_Linux_X64_V230/MRS-linux-x64/resources/app/resources/linux/components/WCH/Toolchain/RISC-V Embedded GCC/bin/../lib/gcc/riscv-none-embed/8.2.0/../../../../riscv-none-embed/lib/rv32imacxw/ilp32/libg_nano.a(lib_a-nano-mallocr.o)
 .bss           0x0000000000000000        0x0 /home/randy/Programs/MounRiverStudio/MounRiverStudio_Linux_X64_V230/MRS-linux-x64/resources/app/resources/linux/components/WCH/Toolchain/RISC-V Embedded GCC/bin/../lib/gcc/riscv-none-embed/8.2.0/../../../../riscv-none-embed/lib/rv32imacxw/ilp32/libg_nano.a(lib_a-nano-mallocr.o)
 .text          0x0000000000000000        0x0 /home/randy/Programs/MounRiverStudio/MounRiverStudio_Linux_X64_V230/MRS-linux-x64/resources/app/resources/linux/components/WCH/Toolchain/RISC-V Embedded GCC/bin/../lib/gcc/riscv-none-embed/8.2.0/../../../../riscv-none-embed/lib/rv32imacxw/ilp32/libg_nano.a(lib_a-nano-svfscanf.o)
 .data          0x0000000000000000        0x0 /home/randy/Programs/MounRiverStudio/MounRiverStudio_Linux_X64_V230/MRS-linux-x64/resources/app/resources/linux/components/WCH/Toolchain/RISC-V Embedded GCC/bin/../lib/gcc/riscv-none-embed/8.2.0/../../../../riscv-none-embed/lib/rv32imacxw/ilp32/libg_nano.a(lib_a-nano-svfscanf.o)
 .bss           0x0000000000000000        0x0 /home/randy/Programs/MounRiverStudio/MounRiverStudio_Linux_X64_V230/MRS-linux-x64/resources/app/resources/linux/components/WCH/Toolchain/RISC-V Embedded GCC/bin/../lib/gcc/riscv-none-embed/8.2.0/../../../../riscv-none-embed/lib/rv32imacxw/ilp32/libg_nano.a(lib_a-nano-svfscanf.o)
 .text          0x0000000000000000        0x0 /home/randy/Programs/MounRiverStudio/MounRiverStudio_Linux_X64_V230/MRS-linux-x64/resources/app/resources/linux/components/WCH/Toolchain/RISC-V Embedded GCC/bin/../lib/gcc/riscv-none-embed/8.2.0/../../../../riscv-none-embed/lib/rv32imacxw/ilp32/libg_nano.a(lib_a-nano-vfscanf_i.o)
 .data          0x0000000000000000        0x0 /home/randy/Programs/MounRiverStudio/MounRiverStudio_Linux_X64_V230/MRS-linux-x64/resources/app/resources/linux/components/WCH/Toolchain/RISC-V Embedded GCC/bin/../lib/gcc/riscv-none-embed/8.2.0/../../../../riscv-none-embed/lib/rv32imacxw/ilp32/libg_nano.a(lib_a-nano-vfscanf_i.o)
 .bss           0x0000000000000000        0x0 /home/randy/Programs/MounRiverStudio/MounRiverStudio_Linux_X64_V230/MRS-linux-x64/resources/app/resources/linux/components/WCH/Toolchain/RISC-V Embedded GCC/bin/../lib/gcc/riscv-none-embed/8.2.0/../../../../riscv-none-embed/lib/rv32imacxw/ilp32/libg_nano.a(lib_a-nano-vfscanf_i.o)
 .text          0x0000000000000000        0x0 /home/randy/Programs/MounRiverStudio/MounRiverStudio_Linux_X64_V230/MRS-linux-x64/resources/app/resources/linux/components/WCH/Toolchain/RISC-V Embedded GCC/bin/../lib/gcc/riscv-none-embed/8.2.0/../../../../riscv-none-embed/lib/rv32imacxw/ilp32/libg_nano.a(lib_a-readr.o)
 .data          0x0000000000000000        0x0 /home/randy/Programs/MounRiverStudio/MounRiverStudio_Linux_X64_V230/MRS-linux-x64/resources/app/resources/linux/components/WCH/Toolchain/RISC-V Embedded GCC/bin/../lib/gcc/riscv-none-embed/8.2.0/../../../../riscv-none-embed/lib/rv32imacxw/ilp32/libg_nano.a(lib_a-readr.o)
 .bss           0x0000000000000000        0x0 /home/randy/Programs/MounRiverStudio/MounRiverStudio_Linux_X64_V230/MRS-linux-x64/resources/app/resources/linux/components/WCH/Toolchain/RISC-V Embedded GCC/bin/../lib/gcc/riscv-none-embed/8.2.0/../../../../riscv-none-embed/lib/rv32imacxw/ilp32/libg_nano.a(lib_a-readr.o)
 .text._read_r  0x0000000000000000       0x3a /home/randy/Programs/MounRiverStudio/MounRiverStudio_Linux_X64_V230/MRS-linux-x64/resources/app/resources/linux/components/WCH/Toolchain/RISC-V Embedded GCC/bin/../lib/gcc/riscv-none-embed/8.2.0/../../../../riscv-none-embed/lib/rv32imacxw/ilp32/libg_nano.a(lib_a-readr.o)
 .debug_frame   0x0000000000000000       0x30 /home/randy/Programs/MounRiverStudio/MounRiverStudio_Linux_X64_V230/MRS-linux-x64/resources/app/resources/linux/components/WCH/Toolchain/RISC-V Embedded GCC/bin/../lib/gcc/riscv-none-embed/8.2.0/../../../../riscv-none-embed/lib/rv32imacxw/ilp32/libg_nano.a(lib_a-readr.o)
 .text          0x0000000000000000        0x0 /home/randy/Programs/MounRiverStudio/MounRiverStudio_Linux_X64_V230/MRS-linux-x64/resources/app/resources/linux/components/WCH/Toolchain/RISC-V Embedded GCC/bin/../lib/gcc/riscv-none-embed/8.2.0/../../../../riscv-none-embed/lib/rv32imacxw/ilp32/libg_nano.a(lib_a-reent.o)
 .data          0x0000000000000000        0x0 /home/randy/Programs/MounRiverStudio/MounRiverStudio_Linux_X64_V230/MRS-linux-x64/resources/app/resources/linux/components/WCH/Toolchain/RISC-V Embedded GCC/bin/../lib/gcc/riscv-none-embed/8.2.0/../../../../riscv-none-embed/lib/rv32imacxw/ilp32/libg_nano.a(lib_a-reent.o)
 .bss           0x0000000000000000        0x0 /home/randy/Programs/MounRiverStudio/MounRiverStudio_Linux_X64_V230/MRS-linux-x64/resources/app/resources/linux/components/WCH/Toolchain/RISC-V Embedded GCC/bin/../lib/gcc/riscv-none-embed/8.2.0/../../../../riscv-none-embed/lib/rv32imacxw/ilp32/libg_nano.a(lib_a-reent.o)
 .text.cleanup_glue
                0x0000000000000000       0x2c /home/randy/Programs/MounRiverStudio/MounRiverStudio_Linux_X64_V230/MRS-linux-x64/resources/app/resources/linux/components/WCH/Toolchain/RISC-V Embedded GCC/bin/../lib/gcc/riscv-none-embed/8.2.0/../../../../riscv-none-embed/lib/rv32imacxw/ilp32/libg_nano.a(lib_a-reent.o)
 .text._reclaim_reent
                0x0000000000000000      0x10c /home/randy/Programs/MounRiverStudio/MounRiverStudio_Linux_X64_V230/MRS-linux-x64/resources/app/resources/linux/components/WCH/Toolchain/RISC-V Embedded GCC/bin/../lib/gcc/riscv-none-embed/8.2.0/../../../../riscv-none-embed/lib/rv32imacxw/ilp32/libg_nano.a(lib_a-reent.o)
 .text          0x0000000000000000        0x0 /home/randy/Programs/MounRiverStudio/MounRiverStudio_Linux_X64_V230/MRS-linux-x64/resources/app/resources/linux/components/WCH/Toolchain/RISC-V Embedded GCC/bin/../lib/gcc/riscv-none-embed/8.2.0/../../../../riscv-none-embed/lib/rv32imacxw/ilp32/libg_nano.a(lib_a-sbrkr.o)
 .data          0x0000000000000000        0x0 /home/randy/Programs/MounRiverStudio/MounRiverStudio_Linux_X64_V230/MRS-linux-x64/resources/app/resources/linux/components/WCH/Toolchain/RISC-V Embedded GCC/bin/../lib/gcc/riscv-none-embed/8.2.0/../../../../riscv-none-embed/lib/rv32imacxw/ilp32/libg_nano.a(lib_a-sbrkr.o)
 .bss           0x0000000000000000        0x0 /home/randy/Programs/MounRiverStudio/MounRiverStudio_Linux_X64_V230/MRS-linux-x64/resources/app/resources/linux/components/WCH/Toolchain/RISC-V Embedded GCC/bin/../lib/gcc/riscv-none-embed/8.2.0/../../../../riscv-none-embed/lib/rv32imacxw/ilp32/libg_nano.a(lib_a-sbrkr.o)
 .text          0x0000000000000000        0x0 /home/randy/Programs/MounRiverStudio/MounRiverStudio_Linux_X64_V230/MRS-linux-x64/resources/app/resources/linux/components/WCH/Toolchain/RISC-V Embedded GCC/bin/../lib/gcc/riscv-none-embed/8.2.0/../../../../riscv-none-embed/lib/rv32imacxw/ilp32/libg_nano.a(lib_a-sccl.o)
 .data          0x0000000000000000        0x0 /home/randy/Programs/MounRiverStudio/MounRiverStudio_Linux_X64_V230/MRS-linux-x64/resources/app/resources/linux/components/WCH/Toolchain/RISC-V Embedded GCC/bin/../lib/gcc/riscv-none-embed/8.2.0/../../../../riscv-none-embed/lib/rv32imacxw/ilp32/libg_nano.a(lib_a-sccl.o)
 .bss           0x0000000000000000        0x0 /home/randy/Programs/MounRiverStudio/MounRiverStudio_Linux_X64_V230/MRS-linux-x64/resources/app/resources/linux/components/WCH/Toolchain/RISC-V Embedded GCC/bin/../lib/gcc/riscv-none-embed/8.2.0/../../../../riscv-none-embed/lib/rv32imacxw/ilp32/libg_nano.a(lib_a-sccl.o)
 .text          0x0000000000000000        0x0 /home/randy/Programs/MounRiverStudio/MounRiverStudio_Linux_X64_V230/MRS-linux-x64/resources/app/resources/linux/components/WCH/Toolchain/RISC-V Embedded GCC/bin/../lib/gcc/riscv-none-embed/8.2.0/../../../../riscv-none-embed/lib/rv32imacxw/ilp32/libg_nano.a(lib_a-strtoul.o)
 .data          0x0000000000000000        0x0 /home/randy/Programs/MounRiverStudio/MounRiverStudio_Linux_X64_V230/MRS-linux-x64/resources/app/resources/linux/components/WCH/Toolchain/RISC-V Embedded GCC/bin/../lib/gcc/riscv-none-embed/8.2.0/../../../../riscv-none-embed/lib/rv32imacxw/ilp32/libg_nano.a(lib_a-strtoul.o)
 .bss           0x0000000000000000        0x0 /home/randy/Programs/MounRiverStudio/MounRiverStudio_Linux_X64_V230/MRS-linux-x64/resources/app/resources/linux/components/WCH/Toolchain/RISC-V Embedded GCC/bin/../lib/gcc/riscv-none-embed/8.2.0/../../../../riscv-none-embed/lib/rv32imacxw/ilp32/libg_nano.a(lib_a-strtoul.o)
 .text.strtoul_l
                0x0000000000000000       0x1a /home/randy/Programs/MounRiverStudio/MounRiverStudio_Linux_X64_V230/MRS-linux-x64/resources/app/resources/linux/components/WCH/Toolchain/RISC-V Embedded GCC/bin/../lib/gcc/riscv-none-embed/8.2.0/../../../../riscv-none-embed/lib/rv32imacxw/ilp32/libg_nano.a(lib_a-strtoul.o)
 .text.strtoul  0x0000000000000000       0x26 /home/randy/Programs/MounRiverStudio/MounRiverStudio_Linux_X64_V230/MRS-linux-x64/resources/app/resources/linux/components/WCH/Toolchain/RISC-V Embedded GCC/bin/../lib/gcc/riscv-none-embed/8.2.0/../../../../riscv-none-embed/lib/rv32imacxw/ilp32/libg_nano.a(lib_a-strtoul.o)
 .text          0x0000000000000000        0x0 /home/randy/Programs/MounRiverStudio/MounRiverStudio_Linux_X64_V230/MRS-linux-x64/resources/app/resources/linux/components/WCH/Toolchain/RISC-V Embedded GCC/bin/../lib/gcc/riscv-none-embed/8.2.0/../../../../riscv-none-embed/lib/rv32imacxw/ilp32/libg_nano.a(lib_a-ungetc.o)
 .data          0x0000000000000000        0x0 /home/randy/Programs/MounRiverStudio/MounRiverStudio_Linux_X64_V230/MRS-linux-x64/resources/app/resources/linux/components/WCH/Toolchain/RISC-V Embedded GCC/bin/../lib/gcc/riscv-none-embed/8.2.0/../../../../riscv-none-embed/lib/rv32imacxw/ilp32/libg_nano.a(lib_a-ungetc.o)
 .bss           0x0000000000000000        0x0 /home/randy/Programs/MounRiverStudio/MounRiverStudio_Linux_X64_V230/MRS-linux-x64/resources/app/resources/linux/components/WCH/Toolchain/RISC-V Embedded GCC/bin/../lib/gcc/riscv-none-embed/8.2.0/../../../../riscv-none-embed/lib/rv32imacxw/ilp32/libg_nano.a(lib_a-ungetc.o)
 .text._ungetc_r
                0x0000000000000000      0x11e /home/randy/Programs/MounRiverStudio/MounRiverStudio_Linux_X64_V230/MRS-linux-x64/resources/app/resources/linux/components/WCH/Toolchain/RISC-V Embedded GCC/bin/../lib/gcc/riscv-none-embed/8.2.0/../../../../riscv-none-embed/lib/rv32imacxw/ilp32/libg_nano.a(lib_a-ungetc.o)
 .text.ungetc   0x0000000000000000       0x16 /home/randy/Programs/MounRiverStudio/MounRiverStudio_Linux_X64_V230/MRS-linux-x64/resources/app/resources/linux/components/WCH/Toolchain/RISC-V Embedded GCC/bin/../lib/gcc/riscv-none-embed/8.2.0/../../../../riscv-none-embed/lib/rv32imacxw/ilp32/libg_nano.a(lib_a-ungetc.o)
 .text          0x0000000000000000        0x0 /home/randy/Programs/MounRiverStudio/MounRiverStudio_Linux_X64_V230/MRS-linux-x64/resources/app/resources/linux/components/WCH/Toolchain/RISC-V Embedded GCC/bin/../lib/gcc/riscv-none-embed/8.2.0/../../../../riscv-none-embed/lib/rv32imacxw/ilp32/libg_nano.a(lib_a-fflush.o)
 .data          0x0000000000000000        0x0 /home/randy/Programs/MounRiverStudio/MounRiverStudio_Linux_X64_V230/MRS-linux-x64/resources/app/resources/linux/components/WCH/Toolchain/RISC-V Embedded GCC/bin/../lib/gcc/riscv-none-embed/8.2.0/../../../../riscv-none-embed/lib/rv32imacxw/ilp32/libg_nano.a(lib_a-fflush.o)
 .bss           0x0000000000000000        0x0 /home/randy/Programs/MounRiverStudio/MounRiverStudio_Linux_X64_V230/MRS-linux-x64/resources/app/resources/linux/components/WCH/Toolchain/RISC-V Embedded GCC/bin/../lib/gcc/riscv-none-embed/8.2.0/../../../../riscv-none-embed/lib/rv32imacxw/ilp32/libg_nano.a(lib_a-fflush.o)
 .text.__sflush_r
                0x0000000000000000      0x136 /home/randy/Programs/MounRiverStudio/MounRiverStudio_Linux_X64_V230/MRS-linux-x64/resources/app/resources/linux/components/WCH/Toolchain/RISC-V Embedded GCC/bin/../lib/gcc/riscv-none-embed/8.2.0/../../../../riscv-none-embed/lib/rv32imacxw/ilp32/libg_nano.a(lib_a-fflush.o)
 .text._fflush_r
                0x0000000000000000       0x70 /home/randy/Programs/MounRiverStudio/MounRiverStudio_Linux_X64_V230/MRS-linux-x64/resources/app/resources/linux/components/WCH/Toolchain/RISC-V Embedded GCC/bin/../lib/gcc/riscv-none-embed/8.2.0/../../../../riscv-none-embed/lib/rv32imacxw/ilp32/libg_nano.a(lib_a-fflush.o)
 .text.fflush   0x0000000000000000       0x30 /home/randy/Programs/MounRiverStudio/MounRiverStudio_Linux_X64_V230/MRS-linux-x64/resources/app/resources/linux/components/WCH/Toolchain/RISC-V Embedded GCC/bin/../lib/gcc/riscv-none-embed/8.2.0/../../../../riscv-none-embed/lib/rv32imacxw/ilp32/libg_nano.a(lib_a-fflush.o)
 .debug_frame   0x0000000000000000       0x7c /home/randy/Programs/MounRiverStudio/MounRiverStudio_Linux_X64_V230/MRS-linux-x64/resources/app/resources/linux/components/WCH/Toolchain/RISC-V Embedded GCC/bin/../lib/gcc/riscv-none-embed/8.2.0/../../../../riscv-none-embed/lib/rv32imacxw/ilp32/libg_nano.a(lib_a-fflush.o)
 .text          0x0000000000000000        0x0 /home/randy/Programs/MounRiverStudio/MounRiverStudio_Linux_X64_V230/MRS-linux-x64/resources/app/resources/linux/components/WCH/Toolchain/RISC-V Embedded GCC/bin/../lib/gcc/riscv-none-embed/8.2.0/../../../../riscv-none-embed/lib/rv32imacxw/ilp32/libg_nano.a(lib_a-findfp.o)
 .data          0x0000000000000000        0x0 /home/randy/Programs/MounRiverStudio/MounRiverStudio_Linux_X64_V230/MRS-linux-x64/resources/app/resources/linux/components/WCH/Toolchain/RISC-V Embedded GCC/bin/../lib/gcc/riscv-none-embed/8.2.0/../../../../riscv-none-embed/lib/rv32imacxw/ilp32/libg_nano.a(lib_a-findfp.o)
 .bss           0x0000000000000000        0x0 /home/randy/Programs/MounRiverStudio/MounRiverStudio_Linux_X64_V230/MRS-linux-x64/resources/app/resources/linux/components/WCH/Toolchain/RISC-V Embedded GCC/bin/../lib/gcc/riscv-none-embed/8.2.0/../../../../riscv-none-embed/lib/rv32imacxw/ilp32/libg_nano.a(lib_a-findfp.o)
 .text.__fp_lock
                0x0000000000000000        0x4 /home/randy/Programs/MounRiverStudio/MounRiverStudio_Linux_X64_V230/MRS-linux-x64/resources/app/resources/linux/components/WCH/Toolchain/RISC-V Embedded GCC/bin/../lib/gcc/riscv-none-embed/8.2.0/../../../../riscv-none-embed/lib/rv32imacxw/ilp32/libg_nano.a(lib_a-findfp.o)
 .text.std      0x0000000000000000       0x6a /home/randy/Programs/MounRiverStudio/MounRiverStudio_Linux_X64_V230/MRS-linux-x64/resources/app/resources/linux/components/WCH/Toolchain/RISC-V Embedded GCC/bin/../lib/gcc/riscv-none-embed/8.2.0/../../../../riscv-none-embed/lib/rv32imacxw/ilp32/libg_nano.a(lib_a-findfp.o)
 .text._cleanup_r
                0x0000000000000000       0x10 /home/randy/Programs/MounRiverStudio/MounRiverStudio_Linux_X64_V230/MRS-linux-x64/resources/app/resources/linux/components/WCH/Toolchain/RISC-V Embedded GCC/bin/../lib/gcc/riscv-none-embed/8.2.0/../../../../riscv-none-embed/lib/rv32imacxw/ilp32/libg_nano.a(lib_a-findfp.o)
 .text.__fp_unlock
                0x0000000000000000        0x4 /home/randy/Programs/MounRiverStudio/MounRiverStudio_Linux_X64_V230/MRS-linux-x64/resources/app/resources/linux/components/WCH/Toolchain/RISC-V Embedded GCC/bin/../lib/gcc/riscv-none-embed/8.2.0/../../../../riscv-none-embed/lib/rv32imacxw/ilp32/libg_nano.a(lib_a-findfp.o)
 .text.__sfmoreglue
                0x0000000000000000       0x50 /home/randy/Programs/MounRiverStudio/MounRiverStudio_Linux_X64_V230/MRS-linux-x64/resources/app/resources/linux/components/WCH/Toolchain/RISC-V Embedded GCC/bin/../lib/gcc/riscv-none-embed/8.2.0/../../../../riscv-none-embed/lib/rv32imacxw/ilp32/libg_nano.a(lib_a-findfp.o)
 .text._cleanup
                0x0000000000000000       0x12 /home/randy/Programs/MounRiverStudio/MounRiverStudio_Linux_X64_V230/MRS-linux-x64/resources/app/resources/linux/components/WCH/Toolchain/RISC-V Embedded GCC/bin/../lib/gcc/riscv-none-embed/8.2.0/../../../../riscv-none-embed/lib/rv32imacxw/ilp32/libg_nano.a(lib_a-findfp.o)
 .text.__sinit  0x0000000000000000       0x8e /home/randy/Programs/MounRiverStudio/MounRiverStudio_Linux_X64_V230/MRS-linux-x64/resources/app/resources/linux/components/WCH/Toolchain/RISC-V Embedded GCC/bin/../lib/gcc/riscv-none-embed/8.2.0/../../../../riscv-none-embed/lib/rv32imacxw/ilp32/libg_nano.a(lib_a-findfp.o)
 .text.__sfp    0x0000000000000000       0xb0 /home/randy/Programs/MounRiverStudio/MounRiverStudio_Linux_X64_V230/MRS-linux-x64/resources/app/resources/linux/components/WCH/Toolchain/RISC-V Embedded GCC/bin/../lib/gcc/riscv-none-embed/8.2.0/../../../../riscv-none-embed/lib/rv32imacxw/ilp32/libg_nano.a(lib_a-findfp.o)
 .text.__sfp_lock_acquire
                0x0000000000000000        0x2 /home/randy/Programs/MounRiverStudio/MounRiverStudio_Linux_X64_V230/MRS-linux-x64/resources/app/resources/linux/components/WCH/Toolchain/RISC-V Embedded GCC/bin/../lib/gcc/riscv-none-embed/8.2.0/../../../../riscv-none-embed/lib/rv32imacxw/ilp32/libg_nano.a(lib_a-findfp.o)
 .text.__sfp_lock_release
                0x0000000000000000        0x2 /home/randy/Programs/MounRiverStudio/MounRiverStudio_Linux_X64_V230/MRS-linux-x64/resources/app/resources/linux/components/WCH/Toolchain/RISC-V Embedded GCC/bin/../lib/gcc/riscv-none-embed/8.2.0/../../../../riscv-none-embed/lib/rv32imacxw/ilp32/libg_nano.a(lib_a-findfp.o)
 .text.__sinit_lock_acquire
                0x0000000000000000        0x2 /home/randy/Programs/MounRiverStudio/MounRiverStudio_Linux_X64_V230/MRS-linux-x64/resources/app/resources/linux/components/WCH/Toolchain/RISC-V Embedded GCC/bin/../lib/gcc/riscv-none-embed/8.2.0/../../../../riscv-none-embed/lib/rv32imacxw/ilp32/libg_nano.a(lib_a-findfp.o)
 .text.__sinit_lock_release
                0x0000000000000000        0x2 /home/randy/Programs/MounRiverStudio/MounRiverStudio_Linux_X64_V230/MRS-linux-x64/resources/app/resources/linux/components/WCH/Toolchain/RISC-V Embedded GCC/bin/../lib/gcc/riscv-none-embed/8.2.0/../../../../riscv-none-embed/lib/rv32imacxw/ilp32/libg_nano.a(lib_a-findfp.o)
 .text.__fp_lock_all
                0x0000000000000000       0x1a /home/randy/Programs/MounRiverStudio/MounRiverStudio_Linux_X64_V230/MRS-linux-x64/resources/app/resources/linux/components/WCH/Toolchain/RISC-V Embedded GCC/bin/../lib/gcc/riscv-none-embed/8.2.0/../../../../riscv-none-embed/lib/rv32imacxw/ilp32/libg_nano.a(lib_a-findfp.o)
 .text.__fp_unlock_all
                0x0000000000000000       0x1a /home/randy/Programs/MounRiverStudio/MounRiverStudio_Linux_X64_V230/MRS-linux-x64/resources/app/resources/linux/components/WCH/Toolchain/RISC-V Embedded GCC/bin/../lib/gcc/riscv-none-embed/8.2.0/../../../../riscv-none-embed/lib/rv32imacxw/ilp32/libg_nano.a(lib_a-findfp.o)
 .text          0x0000000000000000        0x0 /home/randy/Programs/MounRiverStudio/MounRiverStudio_Linux_X64_V230/MRS-linux-x64/resources/app/resources/linux/components/WCH/Toolchain/RISC-V Embedded GCC/bin/../lib/gcc/riscv-none-embed/8.2.0/../../../../riscv-none-embed/lib/rv32imacxw/ilp32/libg_nano.a(lib_a-fwalk.o)
 .data          0x0000000000000000        0x0 /home/randy/Programs/MounRiverStudio/MounRiverStudio_Linux_X64_V230/MRS-linux-x64/resources/app/resources/linux/components/WCH/Toolchain/RISC-V Embedded GCC/bin/../lib/gcc/riscv-none-embed/8.2.0/../../../../riscv-none-embed/lib/rv32imacxw/ilp32/libg_nano.a(lib_a-fwalk.o)
 .bss           0x0000000000000000        0x0 /home/randy/Programs/MounRiverStudio/MounRiverStudio_Linux_X64_V230/MRS-linux-x64/resources/app/resources/linux/components/WCH/Toolchain/RISC-V Embedded GCC/bin/../lib/gcc/riscv-none-embed/8.2.0/../../../../riscv-none-embed/lib/rv32imacxw/ilp32/libg_nano.a(lib_a-fwalk.o)
 .text._fwalk   0x0000000000000000       0x60 /home/randy/Programs/MounRiverStudio/MounRiverStudio_Linux_X64_V230/MRS-linux-x64/resources/app/resources/linux/components/WCH/Toolchain/RISC-V Embedded GCC/bin/../lib/gcc/riscv-none-embed/8.2.0/../../../../riscv-none-embed/lib/rv32imacxw/ilp32/libg_nano.a(lib_a-fwalk.o)
 .text._fwalk_reent
                0x0000000000000000       0x6a /home/randy/Programs/MounRiverStudio/MounRiverStudio_Linux_X64_V230/MRS-linux-x64/resources/app/resources/linux/components/WCH/Toolchain/RISC-V Embedded GCC/bin/../lib/gcc/riscv-none-embed/8.2.0/../../../../riscv-none-embed/lib/rv32imacxw/ilp32/libg_nano.a(lib_a-fwalk.o)
 .debug_frame   0x0000000000000000       0x88 /home/randy/Programs/MounRiverStudio/MounRiverStudio_Linux_X64_V230/MRS-linux-x64/resources/app/resources/linux/components/WCH/Toolchain/RISC-V Embedded GCC/bin/../lib/gcc/riscv-none-embed/8.2.0/../../../../riscv-none-embed/lib/rv32imacxw/ilp32/libg_nano.a(lib_a-fwalk.o)
 .text          0x0000000000000000        0x0 /home/randy/Programs/MounRiverStudio/MounRiverStudio_Linux_X64_V230/MRS-linux-x64/resources/app/resources/linux/components/WCH/Toolchain/RISC-V Embedded GCC/bin/../lib/gcc/riscv-none-embed/8.2.0/../../../../riscv-none-embed/lib/rv32imacxw/ilp32/libg_nano.a(lib_a-memchr.o)
 .data          0x0000000000000000        0x0 /home/randy/Programs/MounRiverStudio/MounRiverStudio_Linux_X64_V230/MRS-linux-x64/resources/app/resources/linux/components/WCH/Toolchain/RISC-V Embedded GCC/bin/../lib/gcc/riscv-none-embed/8.2.0/../../../../riscv-none-embed/lib/rv32imacxw/ilp32/libg_nano.a(lib_a-memchr.o)
 .bss           0x0000000000000000        0x0 /home/randy/Programs/MounRiverStudio/MounRiverStudio_Linux_X64_V230/MRS-linux-x64/resources/app/resources/linux/components/WCH/Toolchain/RISC-V Embedded GCC/bin/../lib/gcc/riscv-none-embed/8.2.0/../../../../riscv-none-embed/lib/rv32imacxw/ilp32/libg_nano.a(lib_a-memchr.o)
 .text          0x0000000000000000        0x0 /home/randy/Programs/MounRiverStudio/MounRiverStudio_Linux_X64_V230/MRS-linux-x64/resources/app/resources/linux/components/WCH/Toolchain/RISC-V Embedded GCC/bin/../lib/gcc/riscv-none-embed/8.2.0/../../../../riscv-none-embed/lib/rv32imacxw/ilp32/libg_nano.a(lib_a-mlock.o)
 .data          0x0000000000000000        0x0 /home/randy/Programs/MounRiverStudio/MounRiverStudio_Linux_X64_V230/MRS-linux-x64/resources/app/resources/linux/components/WCH/Toolchain/RISC-V Embedded GCC/bin/../lib/gcc/riscv-none-embed/8.2.0/../../../../riscv-none-embed/lib/rv32imacxw/ilp32/libg_nano.a(lib_a-mlock.o)
 .bss           0x0000000000000000        0x0 /home/randy/Programs/MounRiverStudio/MounRiverStudio_Linux_X64_V230/MRS-linux-x64/resources/app/resources/linux/components/WCH/Toolchain/RISC-V Embedded GCC/bin/../lib/gcc/riscv-none-embed/8.2.0/../../../../riscv-none-embed/lib/rv32imacxw/ilp32/libg_nano.a(lib_a-mlock.o)
 .text          0x0000000000000000        0x0 /home/randy/Programs/MounRiverStudio/MounRiverStudio_Linux_X64_V230/MRS-linux-x64/resources/app/resources/linux/components/WCH/Toolchain/RISC-V Embedded GCC/bin/../lib/gcc/riscv-none-embed/8.2.0/../../../../riscv-none-embed/lib/rv32imacxw/ilp32/libg_nano.a(lib_a-nano-reallocr.o)
 .data          0x0000000000000000        0x0 /home/randy/Programs/MounRiverStudio/MounRiverStudio_Linux_X64_V230/MRS-linux-x64/resources/app/resources/linux/components/WCH/Toolchain/RISC-V Embedded GCC/bin/../lib/gcc/riscv-none-embed/8.2.0/../../../../riscv-none-embed/lib/rv32imacxw/ilp32/libg_nano.a(lib_a-nano-reallocr.o)
 .bss           0x0000000000000000        0x0 /home/randy/Programs/MounRiverStudio/MounRiverStudio_Linux_X64_V230/MRS-linux-x64/resources/app/resources/linux/components/WCH/Toolchain/RISC-V Embedded GCC/bin/../lib/gcc/riscv-none-embed/8.2.0/../../../../riscv-none-embed/lib/rv32imacxw/ilp32/libg_nano.a(lib_a-nano-reallocr.o)
 .text          0x0000000000000000        0x0 /home/randy/Programs/MounRiverStudio/MounRiverStudio_Linux_X64_V230/MRS-linux-x64/resources/app/resources/linux/components/WCH/Toolchain/RISC-V Embedded GCC/bin/../lib/gcc/riscv-none-embed/8.2.0/../../../../riscv-none-embed/lib/rv32imacxw/ilp32/libg_nano.a(lib_a-nano-msizer.o)
 .data          0x0000000000000000        0x0 /home/randy/Programs/MounRiverStudio/MounRiverStudio_Linux_X64_V230/MRS-linux-x64/resources/app/resources/linux/components/WCH/Toolchain/RISC-V Embedded GCC/bin/../lib/gcc/riscv-none-embed/8.2.0/../../../../riscv-none-embed/lib/rv32imacxw/ilp32/libg_nano.a(lib_a-nano-msizer.o)
 .bss           0x0000000000000000        0x0 /home/randy/Programs/MounRiverStudio/MounRiverStudio_Linux_X64_V230/MRS-linux-x64/resources/app/resources/linux/components/WCH/Toolchain/RISC-V Embedded GCC/bin/../lib/gcc/riscv-none-embed/8.2.0/../../../../riscv-none-embed/lib/rv32imacxw/ilp32/libg_nano.a(lib_a-nano-msizer.o)
 .text          0x0000000000000000        0x0 /home/randy/Programs/MounRiverStudio/MounRiverStudio_Linux_X64_V230/MRS-linux-x64/resources/app/resources/linux/components/WCH/Toolchain/RISC-V Embedded GCC/bin/../lib/gcc/riscv-none-embed/8.2.0/../../../../riscv-none-embed/lib/rv32imacxw/ilp32/libnosys.a(close.o)
 .data          0x0000000000000000        0x0 /home/randy/Programs/MounRiverStudio/MounRiverStudio_Linux_X64_V230/MRS-linux-x64/resources/app/resources/linux/components/WCH/Toolchain/RISC-V Embedded GCC/bin/../lib/gcc/riscv-none-embed/8.2.0/../../../../riscv-none-embed/lib/rv32imacxw/ilp32/libnosys.a(close.o)
 .bss           0x0000000000000000        0x0 /home/randy/Programs/MounRiverStudio/MounRiverStudio_Linux_X64_V230/MRS-linux-x64/resources/app/resources/linux/components/WCH/Toolchain/RISC-V Embedded GCC/bin/../lib/gcc/riscv-none-embed/8.2.0/../../../../riscv-none-embed/lib/rv32imacxw/ilp32/libnosys.a(close.o)
 .stab          0x0000000000000000       0x24 /home/randy/Programs/MounRiverStudio/MounRiverStudio_Linux_X64_V230/MRS-linux-x64/resources/app/resources/linux/components/WCH/Toolchain/RISC-V Embedded GCC/bin/../lib/gcc/riscv-none-embed/8.2.0/../../../../riscv-none-embed/lib/rv32imacxw/ilp32/libnosys.a(close.o)
 .text._close   0x0000000000000000       0x10 /home/randy/Programs/MounRiverStudio/MounRiverStudio_Linux_X64_V230/MRS-linux-x64/resources/app/resources/linux/components/WCH/Toolchain/RISC-V Embedded GCC/bin/../lib/gcc/riscv-none-embed/8.2.0/../../../../riscv-none-embed/lib/rv32imacxw/ilp32/libnosys.a(close.o)
 .debug_frame   0x0000000000000000       0x20 /home/randy/Programs/MounRiverStudio/MounRiverStudio_Linux_X64_V230/MRS-linux-x64/resources/app/resources/linux/components/WCH/Toolchain/RISC-V Embedded GCC/bin/../lib/gcc/riscv-none-embed/8.2.0/../../../../riscv-none-embed/lib/rv32imacxw/ilp32/libnosys.a(close.o)
 .text          0x0000000000000000        0x0 /home/randy/Programs/MounRiverStudio/MounRiverStudio_Linux_X64_V230/MRS-linux-x64/resources/app/resources/linux/components/WCH/Toolchain/RISC-V Embedded GCC/bin/../lib/gcc/riscv-none-embed/8.2.0/../../../../riscv-none-embed/lib/rv32imacxw/ilp32/libnosys.a(lseek.o)
 .data          0x0000000000000000        0x0 /home/randy/Programs/MounRiverStudio/MounRiverStudio_Linux_X64_V230/MRS-linux-x64/resources/app/resources/linux/components/WCH/Toolchain/RISC-V Embedded GCC/bin/../lib/gcc/riscv-none-embed/8.2.0/../../../../riscv-none-embed/lib/rv32imacxw/ilp32/libnosys.a(lseek.o)
 .bss           0x0000000000000000        0x0 /home/randy/Programs/MounRiverStudio/MounRiverStudio_Linux_X64_V230/MRS-linux-x64/resources/app/resources/linux/components/WCH/Toolchain/RISC-V Embedded GCC/bin/../lib/gcc/riscv-none-embed/8.2.0/../../../../riscv-none-embed/lib/rv32imacxw/ilp32/libnosys.a(lseek.o)
 .stab          0x0000000000000000       0x18 /home/randy/Programs/MounRiverStudio/MounRiverStudio_Linux_X64_V230/MRS-linux-x64/resources/app/resources/linux/components/WCH/Toolchain/RISC-V Embedded GCC/bin/../lib/gcc/riscv-none-embed/8.2.0/../../../../riscv-none-embed/lib/rv32imacxw/ilp32/libnosys.a(lseek.o)
                                         0x24 (size before relaxing)
 .text._lseek   0x0000000000000000       0x10 /home/randy/Programs/MounRiverStudio/MounRiverStudio_Linux_X64_V230/MRS-linux-x64/resources/app/resources/linux/components/WCH/Toolchain/RISC-V Embedded GCC/bin/../lib/gcc/riscv-none-embed/8.2.0/../../../../riscv-none-embed/lib/rv32imacxw/ilp32/libnosys.a(lseek.o)
 .debug_frame   0x0000000000000000       0x20 /home/randy/Programs/MounRiverStudio/MounRiverStudio_Linux_X64_V230/MRS-linux-x64/resources/app/resources/linux/components/WCH/Toolchain/RISC-V Embedded GCC/bin/../lib/gcc/riscv-none-embed/8.2.0/../../../../riscv-none-embed/lib/rv32imacxw/ilp32/libnosys.a(lseek.o)
 .text          0x0000000000000000        0x0 /home/randy/Programs/MounRiverStudio/MounRiverStudio_Linux_X64_V230/MRS-linux-x64/resources/app/resources/linux/components/WCH/Toolchain/RISC-V Embedded GCC/bin/../lib/gcc/riscv-none-embed/8.2.0/../../../../riscv-none-embed/lib/rv32imacxw/ilp32/libnosys.a(read.o)
 .data          0x0000000000000000        0x0 /home/randy/Programs/MounRiverStudio/MounRiverStudio_Linux_X64_V230/MRS-linux-x64/resources/app/resources/linux/components/WCH/Toolchain/RISC-V Embedded GCC/bin/../lib/gcc/riscv-none-embed/8.2.0/../../../../riscv-none-embed/lib/rv32imacxw/ilp32/libnosys.a(read.o)
 .bss           0x0000000000000000        0x0 /home/randy/Programs/MounRiverStudio/MounRiverStudio_Linux_X64_V230/MRS-linux-x64/resources/app/resources/linux/components/WCH/Toolchain/RISC-V Embedded GCC/bin/../lib/gcc/riscv-none-embed/8.2.0/../../../../riscv-none-embed/lib/rv32imacxw/ilp32/libnosys.a(read.o)
 .stab          0x0000000000000000       0x18 /home/randy/Programs/MounRiverStudio/MounRiverStudio_Linux_X64_V230/MRS-linux-x64/resources/app/resources/linux/components/WCH/Toolchain/RISC-V Embedded GCC/bin/../lib/gcc/riscv-none-embed/8.2.0/../../../../riscv-none-embed/lib/rv32imacxw/ilp32/libnosys.a(read.o)
                                         0x24 (size before relaxing)
 .text._read    0x0000000000000000       0x10 /home/randy/Programs/MounRiverStudio/MounRiverStudio_Linux_X64_V230/MRS-linux-x64/resources/app/resources/linux/components/WCH/Toolchain/RISC-V Embedded GCC/bin/../lib/gcc/riscv-none-embed/8.2.0/../../../../riscv-none-embed/lib/rv32imacxw/ilp32/libnosys.a(read.o)
 .debug_frame   0x0000000000000000       0x20 /home/randy/Programs/MounRiverStudio/MounRiverStudio_Linux_X64_V230/MRS-linux-x64/resources/app/resources/linux/components/WCH/Toolchain/RISC-V Embedded GCC/bin/../lib/gcc/riscv-none-embed/8.2.0/../../../../riscv-none-embed/lib/rv32imacxw/ilp32/libnosys.a(read.o)

Memory Configuration

Name             Origin             Length             Attributes
FLASH            0x0000000000000000 0x0000000000040000 xr
RAM              0x0000000020000000 0x0000000000010000 xrw
*default*        0x0000000000000000 0xffffffffffffffff

Linker script and memory map

LOAD ./User/ch32v30x_it.o
LOAD ./User/config.o
LOAD ./User/gpio_mgr.o
LOAD ./User/ini_parser.o
LOAD ./User/main.o
LOAD ./User/system_ch32v30x.o
LOAD ./User/timebase.o
LOAD ./Startup/startup_ch32v30x_D8C.o
LOAD ./Peripheral/src/ch32v30x_dbgmcu.o
LOAD ./Peripheral/src/ch32v30x_eth.o
LOAD ./Peripheral/src/ch32v30x_exti.o
LOAD ./Peripheral/src/ch32v30x_gpio.o
LOAD ./Peripheral/src/ch32v30x_misc.o
LOAD ./Peripheral/src/ch32v30x_rcc.o
LOAD ./Peripheral/src/ch32v30x_sdio.o
LOAD ./Peripheral/src/ch32v30x_tim.o
LOAD ./Peripheral/src/ch32v30x_usart.o
LOAD ./NetLib/eth_driver_10M.o
LOAD ./Debug/debug.o
LOAD ./Core/core_riscv.o
LOAD /home/randy/Programs/MounRiverStudio/MounRiverStudio_Linux_X64_V230/MRS-linux-x64/resources/app/resources/linux/components/WCH/Toolchain/RISC-V Embedded GCC/bin/../lib/gcc/riscv-none-embed/8.2.0/../../../../riscv-none-embed/lib/rv32imacxw/ilp32/libm.a
LOAD /home/randy/mounriver-studio-projects/UdpServer/NetLib/libwchnet.a
LOAD /home/randy/Programs/MounRiverStudio/MounRiverStudio_Linux_X64_V230/MRS-linux-x64/resources/app/resources/linux/components/WCH/Toolchain/RISC-V Embedded GCC/bin/../lib/gcc/riscv-none-embed/8.2.0/../../../../riscv-none-embed/lib/rv32imacxw/ilp32/libprintf.a
LOAD /home/randy/Programs/MounRiverStudio/MounRiverStudio_Linux_X64_V230/MRS-linux-x64/resources/app/resources/linux/components/WCH/Toolchain/RISC-V Embedded GCC/bin/../lib/gcc/riscv-none-embed/8.2.0/rv32imacxw/ilp32/libgcc.a
LOAD /home/randy/Programs/MounRiverStudio/MounRiverStudio_Linux_X64_V230/MRS-linux-x64/resources/app/resources/linux/components/WCH/Toolchain/RISC-V Embedded GCC/bin/../lib/gcc/riscv-none-embed/8.2.0/../../../../riscv-none-embed/lib/rv32imacxw/ilp32/libg_nano.a
LOAD /home/randy/Programs/MounRiverStudio/MounRiverStudio_Linux_X64_V230/MRS-linux-x64/resources/app/resources/linux/components/WCH/Toolchain/RISC-V Embedded GCC/bin/../lib/gcc/riscv-none-embed/8.2.0/../../../../riscv-none-embed/lib/rv32imacxw/ilp32/libc_nano.a
LOAD /home/randy/Programs/MounRiverStudio/MounRiverStudio_Linux_X64_V230/MRS-linux-x64/resources/app/resources/linux/components/WCH/Toolchain/RISC-V Embedded GCC/bin/../lib/gcc/riscv-none-embed/8.2.0/rv32imacxw/ilp32/libgcc.a
START GROUP
LOAD /home/randy/Programs/MounRiverStudio/MounRiverStudio_Linux_X64_V230/MRS-linux-x64/resources/app/resources/linux/components/WCH/Toolchain/RISC-V Embedded GCC/bin/../lib/gcc/riscv-none-embed/8.2.0/rv32imacxw/ilp32/libgcc.a
LOAD /home/randy/Programs/MounRiverStudio/MounRiverStudio_Linux_X64_V230/MRS-linux-x64/resources/app/resources/linux/components/WCH/Toolchain/RISC-V Embedded GCC/bin/../lib/gcc/riscv-none-embed/8.2.0/../../../../riscv-none-embed/lib/rv32imacxw/ilp32/libc_nano.a
LOAD /home/randy/Programs/MounRiverStudio/MounRiverStudio_Linux_X64_V230/MRS-linux-x64/resources/app/resources/linux/components/WCH/Toolchain/RISC-V Embedded GCC/bin/../lib/gcc/riscv-none-embed/8.2.0/../../../../riscv-none-embed/lib/rv32imacxw/ilp32/libnosys.a
END GROUP
START GROUP
LOAD /home/randy/Programs/MounRiverStudio/MounRiverStudio_Linux_X64_V230/MRS-linux-x64/resources/app/resources/linux/components/WCH/Toolchain/RISC-V Embedded GCC/bin/../lib/gcc/riscv-none-embed/8.2.0/rv32imacxw/ilp32/libgcc.a
LOAD /home/randy/Programs/MounRiverStudio/MounRiverStudio_Linux_X64_V230/MRS-linux-x64/resources/app/resources/linux/components/WCH/Toolchain/RISC-V Embedded GCC/bin/../lib/gcc/riscv-none-embed/8.2.0/../../../../riscv-none-embed/lib/rv32imacxw/ilp32/libc_nano.a
LOAD /home/randy/Programs/MounRiverStudio/MounRiverStudio_Linux_X64_V230/MRS-linux-x64/resources/app/resources/linux/components/WCH/Toolchain/RISC-V Embedded GCC/bin/../lib/gcc/riscv-none-embed/8.2.0/../../../../riscv-none-embed/lib/rv32imacxw/ilp32/libnosys.a
END GROUP
                0x0000000000000800                __stack_size = 0x800
                [!provide]                        PROVIDE (_stack_size = __stack_size)

.init           0x0000000000000000        0x4
                0x0000000000000000                _sinit = .
                0x0000000000000000                . = ALIGN (0x4)
 *(SORT_NONE(.init))
 .init          0x0000000000000000        0x4 ./Startup/startup_ch32v30x_D8C.o
                0x0000000000000000                _start
                0x0000000000000004                . = ALIGN (0x4)
                0x0000000000000004                _einit = .

.vector         0x0000000000000004      0x1bc
 *(.vector)
 .vector        0x0000000000000004      0x1a0 ./Startup/startup_ch32v30x_D8C.o
                0x00000000000001c0                . = ALIGN (0x40)
 *fill*         0x00000000000001a4       0x1c 

.text           0x00000000000001c0     0x9ca4
                0x00000000000001c0                . = ALIGN (0x4)
 *(.text)
 .text          0x00000000000001c0       0x60 /home/randy/Programs/MounRiverStudio/MounRiverStudio_Linux_X64_V230/MRS-linux-x64/resources/app/resources/linux/components/WCH/Toolchain/RISC-V Embedded GCC/bin/../lib/gcc/riscv-none-embed/8.2.0/rv32imacxw/ilp32/libgcc.a(save-restore.o)
                0x00000000000001c0                __riscv_save_12
                0x00000000000001c8                __riscv_save_8
                0x00000000000001c8                __riscv_save_11
                0x00000000000001c8                __riscv_save_9
                0x00000000000001c8                __riscv_save_10
                0x00000000000001d6                __riscv_save_7
                0x00000000000001d6                __riscv_save_4
                0x00000000000001d6                __riscv_save_6
                0x00000000000001d6                __riscv_save_5
                0x00000000000001f0                __riscv_save_1
                0x00000000000001f0                __riscv_save_3
                0x00000000000001f0                __riscv_save_2
                0x00000000000001f0                __riscv_save_0
                0x00000000000001fc                __riscv_restore_12
                0x0000000000000200                __riscv_restore_10
                0x0000000000000200                __riscv_restore_11
                0x0000000000000200                __riscv_restore_8
                0x0000000000000200                __riscv_restore_9
                0x000000000000020a                __riscv_restore_5
                0x000000000000020a                __riscv_restore_6
                0x000000000000020a                __riscv_restore_4
                0x000000000000020a                __riscv_restore_7
                0x0000000000000214                __riscv_restore_3
                0x0000000000000214                __riscv_restore_2
                0x0000000000000214                __riscv_restore_0
                0x0000000000000214                __riscv_restore_1
 .text          0x0000000000000220       0xa8 /home/randy/Programs/MounRiverStudio/MounRiverStudio_Linux_X64_V230/MRS-linux-x64/resources/app/resources/linux/components/WCH/Toolchain/RISC-V Embedded GCC/bin/../lib/gcc/riscv-none-embed/8.2.0/../../../../riscv-none-embed/lib/rv32imacxw/ilp32/libg_nano.a(lib_a-memset.o)
                0x0000000000000220                memset
 .text          0x00000000000002c8      0x11a /home/randy/Programs/MounRiverStudio/MounRiverStudio_Linux_X64_V230/MRS-linux-x64/resources/app/resources/linux/components/WCH/Toolchain/RISC-V Embedded GCC/bin/../lib/gcc/riscv-none-embed/8.2.0/../../../../riscv-none-embed/lib/rv32imacxw/ilp32/libg_nano.a(lib_a-strcmp.o)
                0x00000000000002c8                strcmp
 *(.text.*)
 .text.NMI_Handler
                0x00000000000003e2        0x2 ./User/ch32v30x_it.o
                0x00000000000003e2                NMI_Handler
 .text.HardFault_Handler
                0x00000000000003e4       0x52 ./User/ch32v30x_it.o
                0x00000000000003e4                HardFault_Handler
 .text.EXTI9_5_IRQHandler
                0x0000000000000436       0x54 ./User/ch32v30x_it.o
                0x0000000000000436                EXTI9_5_IRQHandler
 .text.ETH_IRQHandler
                0x000000000000048a        0x8 ./User/ch32v30x_it.o
                0x000000000000048a                ETH_IRQHandler
 .text.TIM2_IRQHandler
                0x0000000000000492       0x14 ./User/ch32v30x_it.o
                0x0000000000000492                TIM2_IRQHandler
 .text.cfg_handler
                0x00000000000004a6      0x430 ./User/config.o
 .text.Config_Load
                0x00000000000008d6       0x90 ./User/config.o
                0x00000000000008d6                Config_Load
 .text.GPIO_ParsePin
                0x0000000000000966      0x13c ./User/gpio_mgr.o
                0x0000000000000966                GPIO_ParsePin
 .text.GPIO_ConfigInputPullup
                0x0000000000000aa2       0x1e ./User/gpio_mgr.o
                0x0000000000000aa2                GPIO_ConfigInputPullup
 .text.GPIO_ReadPin
                0x0000000000000ac0       0x14 ./User/gpio_mgr.o
                0x0000000000000ac0                GPIO_ReadPin
 .text.trim.part.0
                0x0000000000000ad4       0x58 ./User/ini_parser.o
 .text.INI_Parse
                0x0000000000000b2c       0xb6 ./User/ini_parser.o
                0x0000000000000b2c                INI_Parse
 .text.read_encoder_state
                0x0000000000000be2       0x34 ./User/main.o
 .text.mStopIfError
                0x0000000000000c16       0x1a ./User/main.o
                0x0000000000000c16                mStopIfError
 .text.TIM2_Init
                0x0000000000000c30       0x6e ./User/main.o
                0x0000000000000c30                TIM2_Init
 .text.CalcBroadcastIP
                0x0000000000000c9e       0x2e ./User/main.o
                0x0000000000000c9e                CalcBroadcastIP
 .text.UdpSend  0x0000000000000ccc       0x2c ./User/main.o
                0x0000000000000ccc                UdpSend
 .text.WCHNET_UdpServerRecv
                0x0000000000000cf8       0x6a ./User/main.o
                0x0000000000000cf8                WCHNET_UdpServerRecv
 .text.WCHNET_CreateUdpSocket
                0x0000000000000d62       0x5a ./User/main.o
                0x0000000000000d62                WCHNET_CreateUdpSocket
 .text.Button_Init
                0x0000000000000dbc       0x62 ./User/main.o
                0x0000000000000dbc                Button_Init
 .text.Button_Task
                0x0000000000000e1e       0xc6 ./User/main.o
                0x0000000000000e1e                Button_Task
 .text.Encoder_Init
                0x0000000000000ee4       0x5e ./User/main.o
                0x0000000000000ee4                Encoder_Init
 .text.Encoder_Task
                0x0000000000000f42       0xd4 ./User/main.o
                0x0000000000000f42                Encoder_Task
 .text.startup.main
                0x0000000000001016      0x176 ./User/main.o
                0x0000000000001016                main
 .text.SystemInit
                0x000000000000118c       0xfa ./User/system_ch32v30x.o
                0x000000000000118c                SystemInit
 .text.SystemCoreClockUpdate
                0x0000000000001286      0x12a ./User/system_ch32v30x.o
                0x0000000000001286                SystemCoreClockUpdate
 .text.Timebase_Init
                0x00000000000013b0       0x4c ./User/timebase.o
                0x00000000000013b0                Timebase_Init
 .text.millis   0x00000000000013fc       0x2a ./User/timebase.o
                0x00000000000013fc                millis
 .text.vector_handler
                0x0000000000001426        0x2 ./Startup/startup_ch32v30x_D8C.o
                0x0000000000001426                EXTI2_IRQHandler
                0x0000000000001426                TIM8_TRG_COM_IRQHandler
                0x0000000000001426                TIM8_CC_IRQHandler
                0x0000000000001426                UART8_IRQHandler
                0x0000000000001426                TIM1_CC_IRQHandler
                0x0000000000001426                TIM6_IRQHandler
                0x0000000000001426                SysTick_Handler
                0x0000000000001426                PVD_IRQHandler
                0x0000000000001426                SDIO_IRQHandler
                0x0000000000001426                TIM9_BRK_IRQHandler
                0x0000000000001426                DMA2_Channel8_IRQHandler
                0x0000000000001426                CAN2_RX1_IRQHandler
                0x0000000000001426                EXTI3_IRQHandler
                0x0000000000001426                USBHS_IRQHandler
                0x0000000000001426                DMA2_Channel9_IRQHandler
                0x0000000000001426                TIM10_CC_IRQHandler
                0x0000000000001426                USBFS_IRQHandler
                0x0000000000001426                EXTI0_IRQHandler
                0x0000000000001426                I2C2_EV_IRQHandler
                0x0000000000001426                TIM10_TRG_COM_IRQHandler
                0x0000000000001426                CAN2_SCE_IRQHandler
                0x0000000000001426                ADC1_2_IRQHandler
                0x0000000000001426                Break_Point_Handler
                0x0000000000001426                SPI1_IRQHandler
                0x0000000000001426                TAMPER_IRQHandler
                0x0000000000001426                CAN2_RX0_IRQHandler
                0x0000000000001426                TIM8_UP_IRQHandler
                0x0000000000001426                Ecall_M_Mode_Handler
                0x0000000000001426                DMA2_Channel2_IRQHandler
                0x0000000000001426                DMA1_Channel4_IRQHandler
                0x0000000000001426                TIM9_UP_IRQHandler
                0x0000000000001426                USART3_IRQHandler
                0x0000000000001426                RTC_IRQHandler
                0x0000000000001426                DMA1_Channel7_IRQHandler
                0x0000000000001426                CAN1_RX1_IRQHandler
                0x0000000000001426                DVP_IRQHandler
                0x0000000000001426                UART5_IRQHandler
                0x0000000000001426                TIM4_IRQHandler
                0x0000000000001426                DMA2_Channel1_IRQHandler
                0x0000000000001426                I2C1_EV_IRQHandler
                0x0000000000001426                DMA1_Channel6_IRQHandler
                0x0000000000001426                UART4_IRQHandler
                0x0000000000001426                DMA2_Channel4_IRQHandler
                0x0000000000001426                TIM3_IRQHandler
                0x0000000000001426                RCC_IRQHandler
                0x0000000000001426                TIM1_TRG_COM_IRQHandler
                0x0000000000001426                DMA1_Channel1_IRQHandler
                0x0000000000001426                DMA2_Channel7_IRQHandler
                0x0000000000001426                EXTI15_10_IRQHandler
                0x0000000000001426                TIM7_IRQHandler
                0x0000000000001426                CAN2_TX_IRQHandler
                0x0000000000001426                TIM5_IRQHandler
                0x0000000000001426                ETH_WKUP_IRQHandler
                0x0000000000001426                SPI2_IRQHandler
                0x0000000000001426                TIM10_BRK_IRQHandler
                0x0000000000001426                TIM9_CC_IRQHandler
                0x0000000000001426                DMA2_Channel5_IRQHandler
                0x0000000000001426                DMA1_Channel5_IRQHandler
                0x0000000000001426                EXTI4_IRQHandler
                0x0000000000001426                USB_LP_CAN1_RX0_IRQHandler
                0x0000000000001426                RNG_IRQHandler
                0x0000000000001426                USB_HP_CAN1_TX_IRQHandler
                0x0000000000001426                DMA1_Channel3_IRQHandler
                0x0000000000001426                TIM1_UP_IRQHandler
                0x0000000000001426                WWDG_IRQHandler
                0x0000000000001426                USBHSWakeup_IRQHandler
                0x0000000000001426                DMA2_Channel11_IRQHandler
                0x0000000000001426                Ecall_U_Mode_Handler
                0x0000000000001426                DMA2_Channel6_IRQHandler
                0x0000000000001426                SW_Handler
                0x0000000000001426                TIM1_BRK_IRQHandler
                0x0000000000001426                DMA2_Channel10_IRQHandler
                0x0000000000001426                EXTI1_IRQHandler
                0x0000000000001426                RTCAlarm_IRQHandler
                0x0000000000001426                TIM10_UP_IRQHandler
                0x0000000000001426                TIM9_TRG_COM_IRQHandler
                0x0000000000001426                UART7_IRQHandler
                0x0000000000001426                USART2_IRQHandler
                0x0000000000001426                UART6_IRQHandler
                0x0000000000001426                I2C2_ER_IRQHandler
                0x0000000000001426                DMA1_Channel2_IRQHandler
                0x0000000000001426                TIM8_BRK_IRQHandler
                0x0000000000001426                CAN1_SCE_IRQHandler
                0x0000000000001426                FLASH_IRQHandler
                0x0000000000001426                USART1_IRQHandler
                0x0000000000001426                SPI3_IRQHandler
                0x0000000000001426                I2C1_ER_IRQHandler
                0x0000000000001426                USBWakeUp_IRQHandler
                0x0000000000001426                DMA2_Channel3_IRQHandler
 .text.handle_reset
                0x0000000000001428       0x8e ./Startup/startup_ch32v30x_D8C.o
                0x0000000000001428                handle_reset
 .text.DBGMCU_GetCHIPID
                0x00000000000014b6        0xa ./Peripheral/src/ch32v30x_dbgmcu.o
                0x00000000000014b6                DBGMCU_GetCHIPID
 .text.ETH_DeInit
                0x00000000000014c0       0x14 ./Peripheral/src/ch32v30x_eth.o
                0x00000000000014c0                ETH_DeInit
 .text.ETH_ReadPHYRegister
                0x00000000000014d4       0x58 ./Peripheral/src/ch32v30x_eth.o
                0x00000000000014d4                ETH_ReadPHYRegister
 .text.ETH_WritePHYRegister
                0x000000000000152c       0x52 ./Peripheral/src/ch32v30x_eth.o
                0x000000000000152c                ETH_WritePHYRegister
 .text.ETH_DMATxDescChainInit
                0x000000000000157e       0x42 ./Peripheral/src/ch32v30x_eth.o
                0x000000000000157e                ETH_DMATxDescChainInit
 .text.ETH_DMARxDescChainInit
                0x00000000000015c0       0x4c ./Peripheral/src/ch32v30x_eth.o
                0x00000000000015c0                ETH_DMARxDescChainInit
 .text.ETH_SoftwareReset
                0x000000000000160c        0xe ./Peripheral/src/ch32v30x_eth.o
                0x000000000000160c                ETH_SoftwareReset
 .text.ETH_DMAClearITPendingBit
                0x000000000000161a        0x8 ./Peripheral/src/ch32v30x_eth.o
                0x000000000000161a                ETH_DMAClearITPendingBit
 .text.ETH_FlushTransmitFIFO
                0x0000000000001622       0x10 ./Peripheral/src/ch32v30x_eth.o
                0x0000000000001622                ETH_FlushTransmitFIFO
 .text.ETH_Start
                0x0000000000001632       0x32 ./Peripheral/src/ch32v30x_eth.o
                0x0000000000001632                ETH_Start
 .text.ETH_DMAITConfig
                0x0000000000001664       0x1e ./Peripheral/src/ch32v30x_eth.o
                0x0000000000001664                ETH_DMAITConfig
 .text.EXTI_ClearITPendingBit
                0x0000000000001682        0xa ./Peripheral/src/ch32v30x_exti.o
                0x0000000000001682                EXTI_ClearITPendingBit
 .text.GPIO_Init
                0x000000000000168c       0xc0 ./Peripheral/src/ch32v30x_gpio.o
                0x000000000000168c                GPIO_Init
 .text.GPIO_ReadInputDataBit
                0x000000000000174c        0xa ./Peripheral/src/ch32v30x_gpio.o
                0x000000000000174c                GPIO_ReadInputDataBit
 .text.GPIO_SetBits
                0x0000000000001756        0x4 ./Peripheral/src/ch32v30x_gpio.o
                0x0000000000001756                GPIO_SetBits
 .text.GPIO_ResetBits
                0x000000000000175a        0x4 ./Peripheral/src/ch32v30x_gpio.o
                0x000000000000175a                GPIO_ResetBits
 .text.RCC_GetClocksFreq
                0x000000000000175e      0x176 ./Peripheral/src/ch32v30x_rcc.o
                0x000000000000175e                RCC_GetClocksFreq
 .text.RCC_AHBPeriphClockCmd
                0x00000000000018d4       0x1e ./Peripheral/src/ch32v30x_rcc.o
                0x00000000000018d4                RCC_AHBPeriphClockCmd
 .text.RCC_APB2PeriphClockCmd
                0x00000000000018f2       0x1e ./Peripheral/src/ch32v30x_rcc.o
                0x00000000000018f2                RCC_APB2PeriphClockCmd
 .text.RCC_APB1PeriphClockCmd
                0x0000000000001910       0x1e ./Peripheral/src/ch32v30x_rcc.o
                0x0000000000001910                RCC_APB1PeriphClockCmd
 .text.RCC_GetFlagStatus
                0x000000000000192e       0x2e ./Peripheral/src/ch32v30x_rcc.o
                0x000000000000192e                RCC_GetFlagStatus
 .text.RCC_PREDIV2Config
                0x000000000000195c       0x10 ./Peripheral/src/ch32v30x_rcc.o
                0x000000000000195c                RCC_PREDIV2Config
 .text.RCC_PLL3Config
                0x000000000000196c       0x12 ./Peripheral/src/ch32v30x_rcc.o
                0x000000000000196c                RCC_PLL3Config
 .text.RCC_PLL3Cmd
                0x000000000000197e       0x24 ./Peripheral/src/ch32v30x_rcc.o
                0x000000000000197e                RCC_PLL3Cmd
 .text.RCC_AHBPeriphResetCmd
                0x00000000000019a2       0x1e ./Peripheral/src/ch32v30x_rcc.o
                0x00000000000019a2                RCC_AHBPeriphResetCmd
 .text.TIM_TimeBaseInit
                0x00000000000019c0       0xaa ./Peripheral/src/ch32v30x_tim.o
                0x00000000000019c0                TIM_TimeBaseInit
 .text.TIM_TimeBaseStructInit
                0x0000000000001a6a       0x16 ./Peripheral/src/ch32v30x_tim.o
                0x0000000000001a6a                TIM_TimeBaseStructInit
 .text.TIM_Cmd  0x0000000000001a80       0x18 ./Peripheral/src/ch32v30x_tim.o
                0x0000000000001a80                TIM_Cmd
 .text.TIM_ITConfig
                0x0000000000001a98       0x12 ./Peripheral/src/ch32v30x_tim.o
                0x0000000000001a98                TIM_ITConfig
 .text.TIM_GetFlagStatus
                0x0000000000001aaa        0xa ./Peripheral/src/ch32v30x_tim.o
                0x0000000000001aaa                TIM_GetFlagStatus
 .text.TIM_ClearFlag
                0x0000000000001ab4        0xc ./Peripheral/src/ch32v30x_tim.o
                0x0000000000001ab4                TIM_ClearFlag
 .text.TIM_ClearITPendingBit
                0x0000000000001ac0        0xc ./Peripheral/src/ch32v30x_tim.o
                0x0000000000001ac0                TIM_ClearITPendingBit
 .text.USART_Init
                0x0000000000001acc       0x90 ./Peripheral/src/ch32v30x_usart.o
                0x0000000000001acc                USART_Init
 .text.USART_Cmd
                0x0000000000001b5c       0x16 ./Peripheral/src/ch32v30x_usart.o
                0x0000000000001b5c                USART_Cmd
 .text.USART_SendData
                0x0000000000001b72        0x8 ./Peripheral/src/ch32v30x_usart.o
                0x0000000000001b72                USART_SendData
 .text.USART_GetFlagStatus
                0x0000000000001b7a        0xa ./Peripheral/src/ch32v30x_usart.o
                0x0000000000001b7a                USART_GetFlagStatus
 .text.ETH_TxPktChainMode
                0x0000000000001b84       0x40 ./NetLib/eth_driver_10M.o
                0x0000000000001b84                ETH_TxPktChainMode
 .text.ETH_LedDataSet
                0x0000000000001bc4       0x22 ./NetLib/eth_driver_10M.o
                0x0000000000001bc4                ETH_LedDataSet
 .text.ETH_LedLinkSet
                0x0000000000001be6       0x22 ./NetLib/eth_driver_10M.o
                0x0000000000001be6                ETH_LedLinkSet
 .text.WCHNET_GetMacAddr
                0x0000000000001c08       0x20 ./NetLib/eth_driver_10M.o
                0x0000000000001c08                WCHNET_GetMacAddr
 .text.WCHNET_TimeIsr
                0x0000000000001c28        0xc ./NetLib/eth_driver_10M.o
                0x0000000000001c28                WCHNET_TimeIsr
 .text.ETH_LedConfiguration
                0x0000000000001c34       0x44 ./NetLib/eth_driver_10M.o
                0x0000000000001c34                ETH_LedConfiguration
 .text.ETH_SetClock
                0x0000000000001c78       0x22 ./NetLib/eth_driver_10M.o
                0x0000000000001c78                ETH_SetClock
 .text.ETH_LinkUpCfg
                0x0000000000001c9a       0x56 ./NetLib/eth_driver_10M.o
                0x0000000000001c9a                ETH_LinkUpCfg
 .text.ETH_PHYLink
                0x0000000000001cf0      0x190 ./NetLib/eth_driver_10M.o
                0x0000000000001cf0                ETH_PHYLink
 .text.ETH_RegInit
                0x0000000000001e80       0xa4 ./NetLib/eth_driver_10M.o
                0x0000000000001e80                ETH_RegInit
 .text.ETH_Configuration
                0x0000000000001f24       0xe4 ./NetLib/eth_driver_10M.o
                0x0000000000001f24                ETH_Configuration
 .text.WCHNET_ETHIsr
                0x0000000000002008       0x7e ./NetLib/eth_driver_10M.o
                0x0000000000002008                WCHNET_ETHIsr
 .text.ETH_Init
                0x0000000000002086       0x8e ./NetLib/eth_driver_10M.o
                0x0000000000002086                ETH_Init
 .text.ETH_LibInit
                0x0000000000002114       0x7e ./NetLib/eth_driver_10M.o
                0x0000000000002114                ETH_LibInit
 .text.Delay_Init
                0x0000000000002192       0x26 ./Debug/debug.o
                0x0000000000002192                Delay_Init
 .text.Delay_Us
                0x00000000000021b8       0x36 ./Debug/debug.o
                0x00000000000021b8                Delay_Us
 .text.Delay_Ms
                0x00000000000021ee       0x36 ./Debug/debug.o
                0x00000000000021ee                Delay_Ms
 .text.USART_Printf_Init
                0x0000000000002224       0x5a ./Debug/debug.o
                0x0000000000002224                USART_Printf_Init
 .text._write   0x000000000000227e       0x3e ./Debug/debug.o
                0x000000000000227e                _write
 .text._sbrk    0x00000000000022bc       0x2a ./Debug/debug.o
                0x00000000000022bc                _sbrk
 .text.__get_MEPC
                0x00000000000022e6        0x6 ./Core/core_riscv.o
                0x00000000000022e6                __get_MEPC
 .text.__get_MCAUSE
                0x00000000000022ec        0x6 ./Core/core_riscv.o
                0x00000000000022ec                __get_MCAUSE
 .text.__get_MTVAL
                0x00000000000022f2        0x6 ./Core/core_riscv.o
                0x00000000000022f2                __get_MTVAL
 .text.WCHNET_NetInput
                0x00000000000022f8       0x14 /home/randy/mounriver-studio-projects/UdpServer/NetLib/libwchnet.a(eth_api.o)
                0x00000000000022f8                WCHNET_NetInput
 .text.WCHNET_PhyStatus
                0x000000000000230c       0x4e /home/randy/mounriver-studio-projects/UdpServer/NetLib/libwchnet.a(eth_api.o)
                0x000000000000230c                WCHNET_PhyStatus
 .text.WCHNET_Rx
                0x000000000000235a       0x96 /home/randy/mounriver-studio-projects/UdpServer/NetLib/libwchnet.a(eth_api.o)
                0x000000000000235a                WCHNET_Rx
 .text.setRxBuffAddr
                0x00000000000023f0       0x12 /home/randy/mounriver-studio-projects/UdpServer/NetLib/libwchnet.a(eth_api.o)
                0x00000000000023f0                setRxBuffAddr
 .text.WCHNET_Tx
                0x0000000000002402       0x32 /home/randy/mounriver-studio-projects/UdpServer/NetLib/libwchnet.a(eth_api.o)
                0x0000000000002402                WCHNET_Tx
 .text.GetChipID
                0x0000000000002434        0xe /home/randy/mounriver-studio-projects/UdpServer/NetLib/libwchnet.a(eth_api.o)
                0x0000000000002434                GetChipID
 .text.getTxBuffAddr
                0x0000000000002442       0x6a /home/randy/mounriver-studio-projects/UdpServer/NetLib/libwchnet.a(eth_api.o)
                0x0000000000002442                getTxBuffAddr
 .text.IPCheckParaInit
                0x00000000000024ac       0x1e /home/randy/mounriver-studio-projects/UdpServer/NetLib/libwchnet.a(ipcheck.o)
                0x00000000000024ac                IPCheckParaInit
 .text.IPConflictHandle
                0x00000000000024ca       0x2c /home/randy/mounriver-studio-projects/UdpServer/NetLib/libwchnet.a(ipcheck.o)
                0x00000000000024ca                IPConflictHandle
 .text.NET_TCPError
                0x00000000000024f6        0x2 /home/randy/mounriver-studio-projects/UdpServer/NetLib/libwchnet.a(socket.o)
                0x00000000000024f6                NET_TCPError
 .text.SocketIPRAWReceive
                0x00000000000024f8       0xc4 /home/randy/mounriver-studio-projects/UdpServer/NetLib/libwchnet.a(socket.o)
                0x00000000000024f8                SocketIPRAWReceive
 .text.SocketUdpReceive
                0x00000000000025bc       0xda /home/randy/mounriver-studio-projects/UdpServer/NetLib/libwchnet.a(socket.o)
                0x00000000000025bc                SocketUdpReceive
 .text.ErrorEncode
                0x0000000000002696       0x1a /home/randy/mounriver-studio-projects/UdpServer/NetLib/libwchnet.a(socket.o)
                0x0000000000002696                ErrorEncode
 .text.WCHSocketInit
                0x00000000000026b0       0x4c /home/randy/mounriver-studio-projects/UdpServer/NetLib/libwchnet.a(socket.o)
                0x00000000000026b0                WCHSocketInit
 .text.WCHNET_Init
                0x00000000000026fc       0xac /home/randy/mounriver-studio-projects/UdpServer/NetLib/libwchnet.a(socket.o)
                0x00000000000026fc                WCHNET_Init
 .text.WCHNET_ConfigLIB
                0x00000000000027a8      0x144 /home/randy/mounriver-studio-projects/UdpServer/NetLib/libwchnet.a(socket.o)
                0x00000000000027a8                WCHNET_ConfigLIB
 .text.WCHNET_GetVer
                0x00000000000028ec        0x4 /home/randy/mounriver-studio-projects/UdpServer/NetLib/libwchnet.a(socket.o)
                0x00000000000028ec                WCHNET_GetVer
 .text.WCHFindCorrectTCBPcb
                0x00000000000028f0       0x5e /home/randy/mounriver-studio-projects/UdpServer/NetLib/libwchnet.a(socket.o)
                0x00000000000028f0                WCHFindCorrectTCBPcb
 .text.WCHNET_SocketCreat
                0x000000000000294e      0x1d0 /home/randy/mounriver-studio-projects/UdpServer/NetLib/libwchnet.a(socket.o)
                0x000000000000294e                WCHNET_SocketCreat
 .text.WCHNET_SocketUdpSendTo
                0x0000000000002b1e       0xc6 /home/randy/mounriver-studio-projects/UdpServer/NetLib/libwchnet.a(socket.o)
                0x0000000000002b1e                WCHNET_SocketUdpSendTo
 .text.WCHScokedIntHandle
                0x0000000000002be4       0x52 /home/randy/mounriver-studio-projects/UdpServer/NetLib/libwchnet.a(socket.o)
                0x0000000000002be4                WCHScokedIntHandle
 .text.LwipRemoveTcpPcb
                0x0000000000002c36       0x9e /home/randy/mounriver-studio-projects/UdpServer/NetLib/libwchnet.a(socket.o)
                0x0000000000002c36                LwipRemoveTcpPcb
 .text.WCHNET_GetPHYStatus
                0x0000000000002cd4        0xa /home/randy/mounriver-studio-projects/UdpServer/NetLib/libwchnet.a(socket.o)
                0x0000000000002cd4                WCHNET_GetPHYStatus
 .text.QueryPingEnable
                0x0000000000002cde        0xe /home/randy/mounriver-studio-projects/UdpServer/NetLib/libwchnet.a(socket.o)
                0x0000000000002cde                QueryPingEnable
 .text.LwipUnreachPort
                0x0000000000002cec       0x1a /home/randy/mounriver-studio-projects/UdpServer/NetLib/libwchnet.a(socket.o)
                0x0000000000002cec                LwipUnreachPort
 .text.LwipArpCheck
                0x0000000000002d06        0xc /home/randy/mounriver-studio-projects/UdpServer/NetLib/libwchnet.a(socket.o)
                0x0000000000002d06                LwipArpCheck
 .text.find_entry
                0x0000000000002d12      0x180 /home/randy/mounriver-studio-projects/UdpServer/NetLib/libwchnet.a(etharp.o)
 .text.update_arp_entry
                0x0000000000002e92       0xb2 /home/randy/mounriver-studio-projects/UdpServer/NetLib/libwchnet.a(etharp.o)
 .text.etharp_ip_input
                0x0000000000002f44       0x5a /home/randy/mounriver-studio-projects/UdpServer/NetLib/libwchnet.a(etharp.o)
                0x0000000000002f44                etharp_ip_input
 .text.etharp_arp_input
                0x0000000000002f9e      0x168 /home/randy/mounriver-studio-projects/UdpServer/NetLib/libwchnet.a(etharp.o)
                0x0000000000002f9e                etharp_arp_input
 .text.etharp_request
                0x0000000000003106       0xce /home/randy/mounriver-studio-projects/UdpServer/NetLib/libwchnet.a(etharp.o)
                0x0000000000003106                etharp_request
 .text.etharp_query
                0x00000000000031d4      0x118 /home/randy/mounriver-studio-projects/UdpServer/NetLib/libwchnet.a(etharp.o)
                0x00000000000031d4                etharp_query
 .text.etharp_output
                0x00000000000032ec      0x134 /home/randy/mounriver-studio-projects/UdpServer/NetLib/libwchnet.a(etharp.o)
                0x00000000000032ec                etharp_output
 .text.ethernet_input
                0x0000000000003420       0x86 /home/randy/mounriver-studio-projects/UdpServer/NetLib/libwchnet.a(etharp.o)
                0x0000000000003420                ethernet_input
 .text.ethernetif_init
                0x00000000000034a6       0x64 /home/randy/mounriver-studio-projects/UdpServer/NetLib/libwchnet.a(ethernetif.o)
                0x00000000000034a6                ethernetif_init
 .text.low_level_output
                0x000000000000350a       0x52 /home/randy/mounriver-studio-projects/UdpServer/NetLib/libwchnet.a(ethernetif.o)
 .text.ethernetif_input
                0x000000000000355c       0x70 /home/randy/mounriver-studio-projects/UdpServer/NetLib/libwchnet.a(ethernetif.o)
                0x000000000000355c                ethernetif_input
 .text.wch_ethernetif_init
                0x00000000000035cc       0x76 /home/randy/mounriver-studio-projects/UdpServer/NetLib/libwchnet.a(ethernetif.o)
                0x00000000000035cc                wch_ethernetif_init
 .text.htons    0x0000000000003642        0xe /home/randy/mounriver-studio-projects/UdpServer/NetLib/libwchnet.a(inet.o)
                0x0000000000003642                htons
 .text.ntohs    0x0000000000003650        0xe /home/randy/mounriver-studio-projects/UdpServer/NetLib/libwchnet.a(inet.o)
                0x0000000000003650                ntohs
 .text.htonl    0x000000000000365e       0x24 /home/randy/mounriver-studio-projects/UdpServer/NetLib/libwchnet.a(inet.o)
                0x000000000000365e                htonl
 .text.ntohl    0x0000000000003682        0xc /home/randy/mounriver-studio-projects/UdpServer/NetLib/libwchnet.a(inet.o)
                0x0000000000003682                ntohl
 .text.ip_route
                0x000000000000368e       0x4c /home/randy/mounriver-studio-projects/UdpServer/NetLib/libwchnet.a(ip.o)
                0x000000000000368e                ip_route
 .text.ip_input
                0x00000000000036da      0x29a /home/randy/mounriver-studio-projects/UdpServer/NetLib/libwchnet.a(ip.o)
                0x00000000000036da                ip_input
 .text.ip_output_if
                0x0000000000003974      0x15a /home/randy/mounriver-studio-projects/UdpServer/NetLib/libwchnet.a(ip.o)
                0x0000000000003974                ip_output_if
 .text.ip_output
                0x0000000000003ace       0x36 /home/randy/mounriver-studio-projects/UdpServer/NetLib/libwchnet.a(ip.o)
                0x0000000000003ace                ip_output
 .text.ip_addr_isbroadcast
                0x0000000000003b04       0x4a /home/randy/mounriver-studio-projects/UdpServer/NetLib/libwchnet.a(ip_addr.o)
                0x0000000000003b04                ip_addr_isbroadcast
 .text.ip_reass
                0x0000000000003b4e      0x3dc /home/randy/mounriver-studio-projects/UdpServer/NetLib/libwchnet.a(ip_frag.o)
                0x0000000000003b4e                ip_reass
 .text.ip_frag  0x0000000000003f2a      0x17e /home/randy/mounriver-studio-projects/UdpServer/NetLib/libwchnet.a(ip_frag.o)
                0x0000000000003f2a                ip_frag
 .text.dhcp_set_state
                0x00000000000040a8       0x16 /home/randy/mounriver-studio-projects/UdpServer/NetLib/libwchnet.a(dhcp.o)
 .text.dhcp_option
                0x00000000000040be       0x20 /home/randy/mounriver-studio-projects/UdpServer/NetLib/libwchnet.a(dhcp.o)
 .text.dhcp_option_byte
                0x00000000000040de       0x12 /home/randy/mounriver-studio-projects/UdpServer/NetLib/libwchnet.a(dhcp.o)
 .text.dhcp_option_long
                0x00000000000040f0       0x48 /home/randy/mounriver-studio-projects/UdpServer/NetLib/libwchnet.a(dhcp.o)
 .text.dhcp_option_trailer
                0x0000000000004138       0x34 /home/randy/mounriver-studio-projects/UdpServer/NetLib/libwchnet.a(dhcp.o)
 .text.dhcp_create_request
                0x000000000000416c      0x18a /home/randy/mounriver-studio-projects/UdpServer/NetLib/libwchnet.a(dhcp.o)
 .text.dhcp_delete_request
                0x00000000000042f6       0x1e /home/randy/mounriver-studio-projects/UdpServer/NetLib/libwchnet.a(dhcp.o)
 .text.dhcp_arp_reply
                0x0000000000004314      0x182 /home/randy/mounriver-studio-projects/UdpServer/NetLib/libwchnet.a(dhcp.o)
                0x0000000000004314                dhcp_arp_reply
 .text.lwip_init
                0x0000000000004496       0x18 /home/randy/mounriver-studio-projects/UdpServer/NetLib/libwchnet.a(init.o)
                0x0000000000004496                lwip_init
 .text.mem_init
                0x00000000000044ae       0x3e /home/randy/mounriver-studio-projects/UdpServer/NetLib/libwchnet.a(mem.o)
                0x00000000000044ae                mem_init
 .text.mem_free
                0x00000000000044ec       0x84 /home/randy/mounriver-studio-projects/UdpServer/NetLib/libwchnet.a(mem.o)
                0x00000000000044ec                mem_free
 .text.mem_realloc
                0x0000000000004570       0xca /home/randy/mounriver-studio-projects/UdpServer/NetLib/libwchnet.a(mem.o)
                0x0000000000004570                mem_realloc
 .text.mem_malloc
                0x000000000000463a       0xd0 /home/randy/mounriver-studio-projects/UdpServer/NetLib/libwchnet.a(mem.o)
                0x000000000000463a                mem_malloc
 .text.memp_init
                0x000000000000470a       0x50 /home/randy/mounriver-studio-projects/UdpServer/NetLib/libwchnet.a(memp.o)
                0x000000000000470a                memp_init
 .text.memp_malloc
                0x000000000000475a       0x20 /home/randy/mounriver-studio-projects/UdpServer/NetLib/libwchnet.a(memp.o)
                0x000000000000475a                memp_malloc
 .text.memp_free
                0x000000000000477a       0x18 /home/randy/mounriver-studio-projects/UdpServer/NetLib/libwchnet.a(memp.o)
                0x000000000000477a                memp_free
 .text.netif_set_ipaddr
                0x0000000000004792       0x96 /home/randy/mounriver-studio-projects/UdpServer/NetLib/libwchnet.a(netif.o)
                0x0000000000004792                netif_set_ipaddr
 .text.netif_set_addr
                0x0000000000004828       0x4e /home/randy/mounriver-studio-projects/UdpServer/NetLib/libwchnet.a(netif.o)
                0x0000000000004828                netif_set_addr
 .text.netif_add
                0x0000000000004876       0x5a /home/randy/mounriver-studio-projects/UdpServer/NetLib/libwchnet.a(netif.o)
                0x0000000000004876                netif_add
 .text.netif_set_default
                0x00000000000048d0        0x6 /home/randy/mounriver-studio-projects/UdpServer/NetLib/libwchnet.a(netif.o)
                0x00000000000048d0                netif_set_default
 .text.netif_is_up
                0x00000000000048d6        0x8 /home/randy/mounriver-studio-projects/UdpServer/NetLib/libwchnet.a(netif.o)
                0x00000000000048d6                netif_is_up
 .text.pbuf_header
                0x00000000000048de       0x6e /home/randy/mounriver-studio-projects/UdpServer/NetLib/libwchnet.a(pbuf.o)
                0x00000000000048de                pbuf_header
 .text.pbuf_free
                0x000000000000494c       0x4e /home/randy/mounriver-studio-projects/UdpServer/NetLib/libwchnet.a(pbuf.o)
                0x000000000000494c                pbuf_free
 .text.pbuf_alloc
                0x000000000000499a      0x140 /home/randy/mounriver-studio-projects/UdpServer/NetLib/libwchnet.a(pbuf.o)
                0x000000000000499a                pbuf_alloc
 .text.pbuf_realloc
                0x0000000000004ada       0x58 /home/randy/mounriver-studio-projects/UdpServer/NetLib/libwchnet.a(pbuf.o)
                0x0000000000004ada                pbuf_realloc
 .text.pbuf_clen
                0x0000000000004b32       0x12 /home/randy/mounriver-studio-projects/UdpServer/NetLib/libwchnet.a(pbuf.o)
                0x0000000000004b32                pbuf_clen
 .text.pbuf_ref
                0x0000000000004b44        0xa /home/randy/mounriver-studio-projects/UdpServer/NetLib/libwchnet.a(pbuf.o)
                0x0000000000004b44                pbuf_ref
 .text.pbuf_cat
                0x0000000000004b4e       0x1c /home/randy/mounriver-studio-projects/UdpServer/NetLib/libwchnet.a(pbuf.o)
                0x0000000000004b4e                pbuf_cat
 .text.pbuf_chain
                0x0000000000004b6a       0x14 /home/randy/mounriver-studio-projects/UdpServer/NetLib/libwchnet.a(pbuf.o)
                0x0000000000004b6a                pbuf_chain
 .text.pbuf_copy
                0x0000000000004b7e       0x9c /home/randy/mounriver-studio-projects/UdpServer/NetLib/libwchnet.a(pbuf.o)
                0x0000000000004b7e                pbuf_copy
 .text.raw_input
                0x0000000000004c1a       0x68 /home/randy/mounriver-studio-projects/UdpServer/NetLib/libwchnet.a(raw.o)
                0x0000000000004c1a                raw_input
 .text.raw_bind
                0x0000000000004c82       0x1e /home/randy/mounriver-studio-projects/UdpServer/NetLib/libwchnet.a(raw.o)
                0x0000000000004c82                raw_bind
 .text.raw_connect
                0x0000000000004ca0       0x1e /home/randy/mounriver-studio-projects/UdpServer/NetLib/libwchnet.a(raw.o)
                0x0000000000004ca0                raw_connect
 .text.raw_recv
                0x0000000000004cbe        0x6 /home/randy/mounriver-studio-projects/UdpServer/NetLib/libwchnet.a(raw.o)
                0x0000000000004cbe                raw_recv
 .text.raw_new  0x0000000000004cc4       0x30 /home/randy/mounriver-studio-projects/UdpServer/NetLib/libwchnet.a(raw.o)
                0x0000000000004cc4                raw_new
 .text.tcp_new_port
                0x0000000000004cf4       0x5c /home/randy/mounriver-studio-projects/UdpServer/NetLib/libwchnet.a(tcp.o)
 .text.tcp_bind
                0x0000000000004d50      0x116 /home/randy/mounriver-studio-projects/UdpServer/NetLib/libwchnet.a(tcp.o)
                0x0000000000004d50                tcp_bind
 .text.tcp_update_rcv_ann_wnd
                0x0000000000004e66       0x48 /home/randy/mounriver-studio-projects/UdpServer/NetLib/libwchnet.a(tcp.o)
                0x0000000000004e66                tcp_update_rcv_ann_wnd
 .text.tcp_recved
                0x0000000000004eae       0x3c /home/randy/mounriver-studio-projects/UdpServer/NetLib/libwchnet.a(tcp.o)
                0x0000000000004eae                tcp_recved
 .text.tcp_seg_free
                0x0000000000004eea       0x2a /home/randy/mounriver-studio-projects/UdpServer/NetLib/libwchnet.a(tcp.o)
                0x0000000000004eea                tcp_seg_free
 .text.tcp_segs_free
                0x0000000000004f14       0x1e /home/randy/mounriver-studio-projects/UdpServer/NetLib/libwchnet.a(tcp.o)
                0x0000000000004f14                tcp_segs_free
 .text.tcp_seg_copy
                0x0000000000004f32       0x28 /home/randy/mounriver-studio-projects/UdpServer/NetLib/libwchnet.a(tcp.o)
                0x0000000000004f32                tcp_seg_copy
 .text.tcp_arg  0x0000000000004f5a        0x4 /home/randy/mounriver-studio-projects/UdpServer/NetLib/libwchnet.a(tcp.o)
                0x0000000000004f5a                tcp_arg
 .text.tcp_err  0x0000000000004f5e        0x6 /home/randy/mounriver-studio-projects/UdpServer/NetLib/libwchnet.a(tcp.o)
                0x0000000000004f5e                tcp_err
 .text.tcp_pcb_purge
                0x0000000000004f64       0x4e /home/randy/mounriver-studio-projects/UdpServer/NetLib/libwchnet.a(tcp.o)
                0x0000000000004f64                tcp_pcb_purge
 .text.tcp_pcb_remove
                0x0000000000004fb2       0x72 /home/randy/mounriver-studio-projects/UdpServer/NetLib/libwchnet.a(tcp.o)
                0x0000000000004fb2                tcp_pcb_remove
 .text.tcp_close
                0x0000000000005024       0xb2 /home/randy/mounriver-studio-projects/UdpServer/NetLib/libwchnet.a(tcp.o)
                0x0000000000005024                tcp_close
 .text.tcp_recv_null
                0x00000000000050d6       0x30 /home/randy/mounriver-studio-projects/UdpServer/NetLib/libwchnet.a(tcp.o)
                0x00000000000050d6                tcp_recv_null
 .text.tcp_abandon
                0x0000000000005106       0x9a /home/randy/mounriver-studio-projects/UdpServer/NetLib/libwchnet.a(tcp.o)
                0x0000000000005106                tcp_abandon
 .text.tcp_next_iss
                0x00000000000051a0       0x10 /home/randy/mounriver-studio-projects/UdpServer/NetLib/libwchnet.a(tcp.o)
                0x00000000000051a0                tcp_next_iss
 .text.tcp_alloc
                0x00000000000051b0      0x134 /home/randy/mounriver-studio-projects/UdpServer/NetLib/libwchnet.a(tcp.o)
                0x00000000000051b0                tcp_alloc
 .text.tcp_new  0x00000000000052e4       0x10 /home/randy/mounriver-studio-projects/UdpServer/NetLib/libwchnet.a(tcp.o)
                0x00000000000052e4                tcp_new
 .text.tcp_eff_send_mss
                0x00000000000052f4       0x2e /home/randy/mounriver-studio-projects/UdpServer/NetLib/libwchnet.a(tcp.o)
                0x00000000000052f4                tcp_eff_send_mss
 .text.tcp_oos_insert_segment
                0x0000000000005322       0xce /home/randy/mounriver-studio-projects/UdpServer/NetLib/libwchnet.a(tcp_in.o)
 .text.tcp_receive
                0x00000000000053f0      0x944 /home/randy/mounriver-studio-projects/UdpServer/NetLib/libwchnet.a(tcp_in.o)
 .text.tcp_parseopt.isra.0
                0x0000000000005d34       0xa6 /home/randy/mounriver-studio-projects/UdpServer/NetLib/libwchnet.a(tcp_in.o)
 .text.tcp_input
                0x0000000000005dda      0xa68 /home/randy/mounriver-studio-projects/UdpServer/NetLib/libwchnet.a(tcp_in.o)
                0x0000000000005dda                tcp_input
 .text.tcp_output_set_header.isra.0.constprop.1
                0x0000000000006842       0xd4 /home/randy/mounriver-studio-projects/UdpServer/NetLib/libwchnet.a(tcp_out.o)
 .text.tcp_enqueue
                0x0000000000006916      0x448 /home/randy/mounriver-studio-projects/UdpServer/NetLib/libwchnet.a(tcp_out.o)
                0x0000000000006916                tcp_enqueue
 .text.tcp_send_ctrl
                0x0000000000006d5e       0x16 /home/randy/mounriver-studio-projects/UdpServer/NetLib/libwchnet.a(tcp_out.o)
                0x0000000000006d5e                tcp_send_ctrl
 .text.tcp_send_empty_ack
                0x0000000000006d74       0x70 /home/randy/mounriver-studio-projects/UdpServer/NetLib/libwchnet.a(tcp_out.o)
                0x0000000000006d74                tcp_send_empty_ack
 .text.tcp_output
                0x0000000000006de4      0x368 /home/randy/mounriver-studio-projects/UdpServer/NetLib/libwchnet.a(tcp_out.o)
                0x0000000000006de4                tcp_output
 .text.tcp_rst  0x000000000000714c      0x108 /home/randy/mounriver-studio-projects/UdpServer/NetLib/libwchnet.a(tcp_out.o)
                0x000000000000714c                tcp_rst
 .text.tcp_rexmit
                0x0000000000007254       0x7c /home/randy/mounriver-studio-projects/UdpServer/NetLib/libwchnet.a(tcp_out.o)
                0x0000000000007254                tcp_rexmit
 .text.tcp_rexmit_fast
                0x00000000000072d0       0x62 /home/randy/mounriver-studio-projects/UdpServer/NetLib/libwchnet.a(tcp_out.o)
                0x00000000000072d0                tcp_rexmit_fast
 .text.udp_input
                0x0000000000007332      0x238 /home/randy/mounriver-studio-projects/UdpServer/NetLib/libwchnet.a(udp.o)
                0x0000000000007332                udp_input
 .text.udp_bind
                0x000000000000756a       0x9a /home/randy/mounriver-studio-projects/UdpServer/NetLib/libwchnet.a(udp.o)
                0x000000000000756a                udp_bind
 .text.udp_sendto_if
                0x0000000000007604       0xd6 /home/randy/mounriver-studio-projects/UdpServer/NetLib/libwchnet.a(udp.o)
                0x0000000000007604                udp_sendto_if
 .text.udp_sendto
                0x00000000000076da       0x2e /home/randy/mounriver-studio-projects/UdpServer/NetLib/libwchnet.a(udp.o)
                0x00000000000076da                udp_sendto
 .text.udp_connect
                0x0000000000007708       0x7e /home/randy/mounriver-studio-projects/UdpServer/NetLib/libwchnet.a(udp.o)
                0x0000000000007708                udp_connect
 .text.udp_recv
                0x0000000000007786        0x6 /home/randy/mounriver-studio-projects/UdpServer/NetLib/libwchnet.a(udp.o)
                0x0000000000007786                udp_recv
 .text.udp_new  0x000000000000778c       0x24 /home/randy/mounriver-studio-projects/UdpServer/NetLib/libwchnet.a(udp.o)
                0x000000000000778c                udp_new
 .text.icmp_send_response.isra.0
                0x00000000000077b0       0x76 /home/randy/mounriver-studio-projects/UdpServer/NetLib/libwchnet.a(icmp.o)
 .text.icmp_input
                0x0000000000007826      0x250 /home/randy/mounriver-studio-projects/UdpServer/NetLib/libwchnet.a(icmp.o)
                0x0000000000007826                icmp_input
 .text.icmp_dest_unreach
                0x0000000000007a76       0x14 /home/randy/mounriver-studio-projects/UdpServer/NetLib/libwchnet.a(icmp.o)
                0x0000000000007a76                icmp_dest_unreach
 .text.lwip_standard_chksum
                0x0000000000007a8a       0x7e /home/randy/mounriver-studio-projects/UdpServer/NetLib/libwchnet.a(inet_chksum.o)
 .text.inet_chksum_pseudo
                0x0000000000007b08      0x10a /home/randy/mounriver-studio-projects/UdpServer/NetLib/libwchnet.a(inet_chksum.o)
                0x0000000000007b08                inet_chksum_pseudo
 .text.inet_chksum
                0x0000000000007c12       0x14 /home/randy/mounriver-studio-projects/UdpServer/NetLib/libwchnet.a(inet_chksum.o)
                0x0000000000007c12                inet_chksum
 .text.inet_chksum_pbuf
                0x0000000000007c26       0x6a /home/randy/mounriver-studio-projects/UdpServer/NetLib/libwchnet.a(inet_chksum.o)
                0x0000000000007c26                inet_chksum_pbuf
 .text.printchar
                0x0000000000007c90       0x4a /home/randy/Programs/MounRiverStudio/MounRiverStudio_Linux_X64_V230/MRS-linux-x64/resources/app/resources/linux/components/WCH/Toolchain/RISC-V Embedded GCC/bin/../lib/gcc/riscv-none-embed/8.2.0/../../../../riscv-none-embed/lib/rv32imacxw/ilp32/libprintf.a(wchprintf.o)
                0x0000000000007c90                printchar
 .text.prints   0x0000000000007cda       0xe0 /home/randy/Programs/MounRiverStudio/MounRiverStudio_Linux_X64_V230/MRS-linux-x64/resources/app/resources/linux/components/WCH/Toolchain/RISC-V Embedded GCC/bin/../lib/gcc/riscv-none-embed/8.2.0/../../../../riscv-none-embed/lib/rv32imacxw/ilp32/libprintf.a(wchprintf.o)
                0x0000000000007cda                prints
 .text.printInt
                0x0000000000007dba       0xf2 /home/randy/Programs/MounRiverStudio/MounRiverStudio_Linux_X64_V230/MRS-linux-x64/resources/app/resources/linux/components/WCH/Toolchain/RISC-V Embedded GCC/bin/../lib/gcc/riscv-none-embed/8.2.0/../../../../riscv-none-embed/lib/rv32imacxw/ilp32/libprintf.a(wchprintf.o)
                0x0000000000007dba                printInt
 .text.printLongLongInt
                0x0000000000007eac        0x4 /home/randy/Programs/MounRiverStudio/MounRiverStudio_Linux_X64_V230/MRS-linux-x64/resources/app/resources/linux/components/WCH/Toolchain/RISC-V Embedded GCC/bin/../lib/gcc/riscv-none-embed/8.2.0/../../../../riscv-none-embed/lib/rv32imacxw/ilp32/libprintf.a(wchprintf.o)
                0x0000000000007eac                printLongLongInt
 .text.printDouble
                0x0000000000007eb0        0x4 /home/randy/Programs/MounRiverStudio/MounRiverStudio_Linux_X64_V230/MRS-linux-x64/resources/app/resources/linux/components/WCH/Toolchain/RISC-V Embedded GCC/bin/../lib/gcc/riscv-none-embed/8.2.0/../../../../riscv-none-embed/lib/rv32imacxw/ilp32/libprintf.a(wchprintf.o)
                0x0000000000007eb0                printDouble
 .text.print    0x0000000000007eb4      0x320 /home/randy/Programs/MounRiverStudio/MounRiverStudio_Linux_X64_V230/MRS-linux-x64/resources/app/resources/linux/components/WCH/Toolchain/RISC-V Embedded GCC/bin/../lib/gcc/riscv-none-embed/8.2.0/../../../../riscv-none-embed/lib/rv32imacxw/ilp32/libprintf.a(wchprintf.o)
                0x0000000000007eb4                print
 .text.printf   0x00000000000081d4       0x24 /home/randy/Programs/MounRiverStudio/MounRiverStudio_Linux_X64_V230/MRS-linux-x64/resources/app/resources/linux/components/WCH/Toolchain/RISC-V Embedded GCC/bin/../lib/gcc/riscv-none-embed/8.2.0/../../../../riscv-none-embed/lib/rv32imacxw/ilp32/libprintf.a(wchprintf.o)
                0x00000000000081d4                printf
 .text.sprintf  0x00000000000081f8       0x28 /home/randy/Programs/MounRiverStudio/MounRiverStudio_Linux_X64_V230/MRS-linux-x64/resources/app/resources/linux/components/WCH/Toolchain/RISC-V Embedded GCC/bin/../lib/gcc/riscv-none-embed/8.2.0/../../../../riscv-none-embed/lib/rv32imacxw/ilp32/libprintf.a(wchprintf.o)
                0x00000000000081f8                sprintf
 .text.puts     0x0000000000008220       0x4a /home/randy/Programs/MounRiverStudio/MounRiverStudio_Linux_X64_V230/MRS-linux-x64/resources/app/resources/linux/components/WCH/Toolchain/RISC-V Embedded GCC/bin/../lib/gcc/riscv-none-embed/8.2.0/../../../../riscv-none-embed/lib/rv32imacxw/ilp32/libprintf.a(wchprintf.o)
                0x0000000000008220                puts
 .text.atoi     0x000000000000826a        0x6 /home/randy/Programs/MounRiverStudio/MounRiverStudio_Linux_X64_V230/MRS-linux-x64/resources/app/resources/linux/components/WCH/Toolchain/RISC-V Embedded GCC/bin/../lib/gcc/riscv-none-embed/8.2.0/../../../../riscv-none-embed/lib/rv32imacxw/ilp32/libg_nano.a(lib_a-atoi.o)
                0x000000000000826a                atoi
 .text.__locale_ctype_ptr_l
                0x0000000000008270        0x6 /home/randy/Programs/MounRiverStudio/MounRiverStudio_Linux_X64_V230/MRS-linux-x64/resources/app/resources/linux/components/WCH/Toolchain/RISC-V Embedded GCC/bin/../lib/gcc/riscv-none-embed/8.2.0/../../../../riscv-none-embed/lib/rv32imacxw/ilp32/libg_nano.a(lib_a-locale.o)
                0x0000000000008270                __locale_ctype_ptr_l
 .text.__locale_ctype_ptr
                0x0000000000008276       0x18 /home/randy/Programs/MounRiverStudio/MounRiverStudio_Linux_X64_V230/MRS-linux-x64/resources/app/resources/linux/components/WCH/Toolchain/RISC-V Embedded GCC/bin/../lib/gcc/riscv-none-embed/8.2.0/../../../../riscv-none-embed/lib/rv32imacxw/ilp32/libg_nano.a(lib_a-locale.o)
                0x0000000000008276                __locale_ctype_ptr
 .text.__ascii_mbtowc
                0x000000000000828e       0x32 /home/randy/Programs/MounRiverStudio/MounRiverStudio_Linux_X64_V230/MRS-linux-x64/resources/app/resources/linux/components/WCH/Toolchain/RISC-V Embedded GCC/bin/../lib/gcc/riscv-none-embed/8.2.0/../../../../riscv-none-embed/lib/rv32imacxw/ilp32/libg_nano.a(lib_a-mbtowc_r.o)
                0x000000000000828e                __ascii_mbtowc
 .text.memcpy   0x00000000000082c0       0xb2 /home/randy/Programs/MounRiverStudio/MounRiverStudio_Linux_X64_V230/MRS-linux-x64/resources/app/resources/linux/components/WCH/Toolchain/RISC-V Embedded GCC/bin/../lib/gcc/riscv-none-embed/8.2.0/../../../../riscv-none-embed/lib/rv32imacxw/ilp32/libg_nano.a(lib_a-memcpy.o)
                0x00000000000082c0                memcpy
 .text.memmove  0x0000000000008372       0x46 /home/randy/Programs/MounRiverStudio/MounRiverStudio_Linux_X64_V230/MRS-linux-x64/resources/app/resources/linux/components/WCH/Toolchain/RISC-V Embedded GCC/bin/../lib/gcc/riscv-none-embed/8.2.0/../../../../riscv-none-embed/lib/rv32imacxw/ilp32/libg_nano.a(lib_a-memmove.o)
                0x0000000000008372                memmove
 .text.sscanf   0x00000000000083b8       0x50 /home/randy/Programs/MounRiverStudio/MounRiverStudio_Linux_X64_V230/MRS-linux-x64/resources/app/resources/linux/components/WCH/Toolchain/RISC-V Embedded GCC/bin/../lib/gcc/riscv-none-embed/8.2.0/../../../../riscv-none-embed/lib/rv32imacxw/ilp32/libg_nano.a(lib_a-sscanf.o)
                0x00000000000083b8                sscanf
                0x00000000000083b8                siscanf
 .text.__seofread
                0x0000000000008408        0x4 /home/randy/Programs/MounRiverStudio/MounRiverStudio_Linux_X64_V230/MRS-linux-x64/resources/app/resources/linux/components/WCH/Toolchain/RISC-V Embedded GCC/bin/../lib/gcc/riscv-none-embed/8.2.0/../../../../riscv-none-embed/lib/rv32imacxw/ilp32/libg_nano.a(lib_a-stdio.o)
                0x0000000000008408                __seofread
 .text.strchr   0x000000000000840c       0x18 /home/randy/Programs/MounRiverStudio/MounRiverStudio_Linux_X64_V230/MRS-linux-x64/resources/app/resources/linux/components/WCH/Toolchain/RISC-V Embedded GCC/bin/../lib/gcc/riscv-none-embed/8.2.0/../../../../riscv-none-embed/lib/rv32imacxw/ilp32/libg_nano.a(lib_a-strchr.o)
                0x000000000000840c                strchr
 .text.strlen   0x0000000000008424       0x12 /home/randy/Programs/MounRiverStudio/MounRiverStudio_Linux_X64_V230/MRS-linux-x64/resources/app/resources/linux/components/WCH/Toolchain/RISC-V Embedded GCC/bin/../lib/gcc/riscv-none-embed/8.2.0/../../../../riscv-none-embed/lib/rv32imacxw/ilp32/libg_nano.a(lib_a-strlen.o)
                0x0000000000008424                strlen
 .text.strncat  0x0000000000008436       0x2c /home/randy/Programs/MounRiverStudio/MounRiverStudio_Linux_X64_V230/MRS-linux-x64/resources/app/resources/linux/components/WCH/Toolchain/RISC-V Embedded GCC/bin/../lib/gcc/riscv-none-embed/8.2.0/../../../../riscv-none-embed/lib/rv32imacxw/ilp32/libg_nano.a(lib_a-strncat.o)
                0x0000000000008436                strncat
 .text.strncpy  0x0000000000008462       0x24 /home/randy/Programs/MounRiverStudio/MounRiverStudio_Linux_X64_V230/MRS-linux-x64/resources/app/resources/linux/components/WCH/Toolchain/RISC-V Embedded GCC/bin/../lib/gcc/riscv-none-embed/8.2.0/../../../../riscv-none-embed/lib/rv32imacxw/ilp32/libg_nano.a(lib_a-strncpy.o)
                0x0000000000008462                strncpy
 .text.strtok   0x0000000000008486       0x7c /home/randy/Programs/MounRiverStudio/MounRiverStudio_Linux_X64_V230/MRS-linux-x64/resources/app/resources/linux/components/WCH/Toolchain/RISC-V Embedded GCC/bin/../lib/gcc/riscv-none-embed/8.2.0/../../../../riscv-none-embed/lib/rv32imacxw/ilp32/libg_nano.a(lib_a-strtok.o)
                0x0000000000008486                strtok
 .text.__strtok_r
                0x0000000000008502       0x5c /home/randy/Programs/MounRiverStudio/MounRiverStudio_Linux_X64_V230/MRS-linux-x64/resources/app/resources/linux/components/WCH/Toolchain/RISC-V Embedded GCC/bin/../lib/gcc/riscv-none-embed/8.2.0/../../../../riscv-none-embed/lib/rv32imacxw/ilp32/libg_nano.a(lib_a-strtok_r.o)
                0x0000000000008502                __strtok_r
 .text._strtol_l.isra.0
                0x000000000000855e      0x13a /home/randy/Programs/MounRiverStudio/MounRiverStudio_Linux_X64_V230/MRS-linux-x64/resources/app/resources/linux/components/WCH/Toolchain/RISC-V Embedded GCC/bin/../lib/gcc/riscv-none-embed/8.2.0/../../../../riscv-none-embed/lib/rv32imacxw/ilp32/libg_nano.a(lib_a-strtol.o)
 .text._strtol_r
                0x0000000000008698       0x16 /home/randy/Programs/MounRiverStudio/MounRiverStudio_Linux_X64_V230/MRS-linux-x64/resources/app/resources/linux/components/WCH/Toolchain/RISC-V Embedded GCC/bin/../lib/gcc/riscv-none-embed/8.2.0/../../../../riscv-none-embed/lib/rv32imacxw/ilp32/libg_nano.a(lib_a-strtol.o)
                0x0000000000008698                _strtol_r
 .text.strtol   0x00000000000086ae       0x1e /home/randy/Programs/MounRiverStudio/MounRiverStudio_Linux_X64_V230/MRS-linux-x64/resources/app/resources/linux/components/WCH/Toolchain/RISC-V Embedded GCC/bin/../lib/gcc/riscv-none-embed/8.2.0/../../../../riscv-none-embed/lib/rv32imacxw/ilp32/libg_nano.a(lib_a-strtol.o)
                0x00000000000086ae                strtol
 .text.__ascii_wctomb
                0x00000000000086cc       0x1e /home/randy/Programs/MounRiverStudio/MounRiverStudio_Linux_X64_V230/MRS-linux-x64/resources/app/resources/linux/components/WCH/Toolchain/RISC-V Embedded GCC/bin/../lib/gcc/riscv-none-embed/8.2.0/../../../../riscv-none-embed/lib/rv32imacxw/ilp32/libg_nano.a(lib_a-wctomb_r.o)
                0x00000000000086cc                __ascii_wctomb
 .text.malloc   0x00000000000086ea        0xa /home/randy/Programs/MounRiverStudio/MounRiverStudio_Linux_X64_V230/MRS-linux-x64/resources/app/resources/linux/components/WCH/Toolchain/RISC-V Embedded GCC/bin/../lib/gcc/riscv-none-embed/8.2.0/../../../../riscv-none-embed/lib/rv32imacxw/ilp32/libg_nano.a(lib_a-malloc.o)
                0x00000000000086ea                malloc
 .text._free_r  0x00000000000086f4       0xa8 /home/randy/Programs/MounRiverStudio/MounRiverStudio_Linux_X64_V230/MRS-linux-x64/resources/app/resources/linux/components/WCH/Toolchain/RISC-V Embedded GCC/bin/../lib/gcc/riscv-none-embed/8.2.0/../../../../riscv-none-embed/lib/rv32imacxw/ilp32/libg_nano.a(lib_a-nano-freer.o)
                0x00000000000086f4                _free_r
 .text._malloc_r
                0x000000000000879c       0xda /home/randy/Programs/MounRiverStudio/MounRiverStudio_Linux_X64_V230/MRS-linux-x64/resources/app/resources/linux/components/WCH/Toolchain/RISC-V Embedded GCC/bin/../lib/gcc/riscv-none-embed/8.2.0/../../../../riscv-none-embed/lib/rv32imacxw/ilp32/libg_nano.a(lib_a-nano-mallocr.o)
                0x000000000000879c                _malloc_r
 .text._sungetc_r
                0x0000000000008876       0x96 /home/randy/Programs/MounRiverStudio/MounRiverStudio_Linux_X64_V230/MRS-linux-x64/resources/app/resources/linux/components/WCH/Toolchain/RISC-V Embedded GCC/bin/../lib/gcc/riscv-none-embed/8.2.0/../../../../riscv-none-embed/lib/rv32imacxw/ilp32/libg_nano.a(lib_a-nano-svfscanf.o)
                0x0000000000008876                _sungetc_r
 .text.__ssrefill_r
                0x000000000000890c       0x44 /home/randy/Programs/MounRiverStudio/MounRiverStudio_Linux_X64_V230/MRS-linux-x64/resources/app/resources/linux/components/WCH/Toolchain/RISC-V Embedded GCC/bin/../lib/gcc/riscv-none-embed/8.2.0/../../../../riscv-none-embed/lib/rv32imacxw/ilp32/libg_nano.a(lib_a-nano-svfscanf.o)
                0x000000000000890c                __ssrefill_r
 .text.__ssvfscanf_r
                0x0000000000008950      0x3a2 /home/randy/Programs/MounRiverStudio/MounRiverStudio_Linux_X64_V230/MRS-linux-x64/resources/app/resources/linux/components/WCH/Toolchain/RISC-V Embedded GCC/bin/../lib/gcc/riscv-none-embed/8.2.0/../../../../riscv-none-embed/lib/rv32imacxw/ilp32/libg_nano.a(lib_a-nano-svfscanf.o)
                0x0000000000008950                __ssvfscanf_r
                0x0000000000008950                __ssvfiscanf_r
 .text._scanf_chars
                0x0000000000008cf2       0xe2 /home/randy/Programs/MounRiverStudio/MounRiverStudio_Linux_X64_V230/MRS-linux-x64/resources/app/resources/linux/components/WCH/Toolchain/RISC-V Embedded GCC/bin/../lib/gcc/riscv-none-embed/8.2.0/../../../../riscv-none-embed/lib/rv32imacxw/ilp32/libg_nano.a(lib_a-nano-vfscanf_i.o)
                0x0000000000008cf2                _scanf_chars
 .text._scanf_i
                0x0000000000008dd4      0x256 /home/randy/Programs/MounRiverStudio/MounRiverStudio_Linux_X64_V230/MRS-linux-x64/resources/app/resources/linux/components/WCH/Toolchain/RISC-V Embedded GCC/bin/../lib/gcc/riscv-none-embed/8.2.0/../../../../riscv-none-embed/lib/rv32imacxw/ilp32/libg_nano.a(lib_a-nano-vfscanf_i.o)
                0x0000000000008dd4                _scanf_i
 .text._sbrk_r  0x000000000000902a       0x32 /home/randy/Programs/MounRiverStudio/MounRiverStudio_Linux_X64_V230/MRS-linux-x64/resources/app/resources/linux/components/WCH/Toolchain/RISC-V Embedded GCC/bin/../lib/gcc/riscv-none-embed/8.2.0/../../../../riscv-none-embed/lib/rv32imacxw/ilp32/libg_nano.a(lib_a-sbrkr.o)
                0x000000000000902a                _sbrk_r
 .text.__sccl   0x000000000000905c       0x82 /home/randy/Programs/MounRiverStudio/MounRiverStudio_Linux_X64_V230/MRS-linux-x64/resources/app/resources/linux/components/WCH/Toolchain/RISC-V Embedded GCC/bin/../lib/gcc/riscv-none-embed/8.2.0/../../../../riscv-none-embed/lib/rv32imacxw/ilp32/libg_nano.a(lib_a-sccl.o)
                0x000000000000905c                __sccl
 .text._strtoul_l.isra.0
                0x00000000000090de      0x130 /home/randy/Programs/MounRiverStudio/MounRiverStudio_Linux_X64_V230/MRS-linux-x64/resources/app/resources/linux/components/WCH/Toolchain/RISC-V Embedded GCC/bin/../lib/gcc/riscv-none-embed/8.2.0/../../../../riscv-none-embed/lib/rv32imacxw/ilp32/libg_nano.a(lib_a-strtoul.o)
 .text._strtoul_r
                0x000000000000920e       0x16 /home/randy/Programs/MounRiverStudio/MounRiverStudio_Linux_X64_V230/MRS-linux-x64/resources/app/resources/linux/components/WCH/Toolchain/RISC-V Embedded GCC/bin/../lib/gcc/riscv-none-embed/8.2.0/../../../../riscv-none-embed/lib/rv32imacxw/ilp32/libg_nano.a(lib_a-strtoul.o)
                0x000000000000920e                _strtoul_r
 .text.__submore
                0x0000000000009224       0x84 /home/randy/Programs/MounRiverStudio/MounRiverStudio_Linux_X64_V230/MRS-linux-x64/resources/app/resources/linux/components/WCH/Toolchain/RISC-V Embedded GCC/bin/../lib/gcc/riscv-none-embed/8.2.0/../../../../riscv-none-embed/lib/rv32imacxw/ilp32/libg_nano.a(lib_a-ungetc.o)
                0x0000000000009224                __submore
 .text.memchr   0x00000000000092a8       0x18 /home/randy/Programs/MounRiverStudio/MounRiverStudio_Linux_X64_V230/MRS-linux-x64/resources/app/resources/linux/components/WCH/Toolchain/RISC-V Embedded GCC/bin/../lib/gcc/riscv-none-embed/8.2.0/../../../../riscv-none-embed/lib/rv32imacxw/ilp32/libg_nano.a(lib_a-memchr.o)
                0x00000000000092a8                memchr
 .text.__malloc_lock
                0x00000000000092c0        0x2 /home/randy/Programs/MounRiverStudio/MounRiverStudio_Linux_X64_V230/MRS-linux-x64/resources/app/resources/linux/components/WCH/Toolchain/RISC-V Embedded GCC/bin/../lib/gcc/riscv-none-embed/8.2.0/../../../../riscv-none-embed/lib/rv32imacxw/ilp32/libg_nano.a(lib_a-mlock.o)
                0x00000000000092c0                __malloc_lock
 .text.__malloc_unlock
                0x00000000000092c2        0x2 /home/randy/Programs/MounRiverStudio/MounRiverStudio_Linux_X64_V230/MRS-linux-x64/resources/app/resources/linux/components/WCH/Toolchain/RISC-V Embedded GCC/bin/../lib/gcc/riscv-none-embed/8.2.0/../../../../riscv-none-embed/lib/rv32imacxw/ilp32/libg_nano.a(lib_a-mlock.o)
                0x00000000000092c2                __malloc_unlock
 .text._realloc_r
                0x00000000000092c4       0x58 /home/randy/Programs/MounRiverStudio/MounRiverStudio_Linux_X64_V230/MRS-linux-x64/resources/app/resources/linux/components/WCH/Toolchain/RISC-V Embedded GCC/bin/../lib/gcc/riscv-none-embed/8.2.0/../../../../riscv-none-embed/lib/rv32imacxw/ilp32/libg_nano.a(lib_a-nano-reallocr.o)
                0x00000000000092c4                _realloc_r
 .text._malloc_usable_size_r
                0x000000000000931c       0x14 /home/randy/Programs/MounRiverStudio/MounRiverStudio_Linux_X64_V230/MRS-linux-x64/resources/app/resources/linux/components/WCH/Toolchain/RISC-V Embedded GCC/bin/../lib/gcc/riscv-none-embed/8.2.0/../../../../riscv-none-embed/lib/rv32imacxw/ilp32/libg_nano.a(lib_a-nano-msizer.o)
                0x000000000000931c                _malloc_usable_size_r
 *(.rodata)
 *(.rodata*)
 *fill*         0x0000000000009330        0x0 
 .rodata.HardFault_Handler.str1.4
                0x0000000000009330       0x42 ./User/ch32v30x_it.o
 *fill*         0x0000000000009372        0x2 
 .rodata.Config_Load.str1.4
                0x0000000000009374       0x68 ./User/config.o
 .rodata.cfg_handler.str1.4
                0x00000000000093dc      0x137 ./User/config.o
 *fill*         0x0000000000009513        0x1 
 .rodata.g_ini_text
                0x0000000000009514      0x417 ./User/config.o
 *fill*         0x000000000000992b        0x1 
 .rodata.GPIO_ParsePin
                0x000000000000992c       0x14 ./User/gpio_mgr.o
 .rodata.GPIO_ParsePin.str1.4
                0x0000000000009940       0x43 ./User/gpio_mgr.o
 *fill*         0x0000000000009983        0x1 
 .rodata.reserved_pins
                0x0000000000009984       0x38 ./User/gpio_mgr.o
 .rodata.str1.4
                0x00000000000099bc       0x51 ./User/gpio_mgr.o
 *fill*         0x0000000000009a0d        0x3 
 .rodata.Button_Init.str1.4
                0x0000000000009a10       0x20 ./User/main.o
 .rodata.Button_Task.str1.4
                0x0000000000009a30       0x61 ./User/main.o
 *fill*         0x0000000000009a91        0x3 
 .rodata.Encoder_Init.str1.4
                0x0000000000009a94       0x21 ./User/main.o
 *fill*         0x0000000000009ab5        0x3 
 .rodata.Encoder_Task.str1.4
                0x0000000000009ab8       0x29 ./User/main.o
 *fill*         0x0000000000009ae1        0x3 
 .rodata.WCHNET_CreateUdpSocket.str1.4
                0x0000000000009ae4        0xe ./User/main.o
 *fill*         0x0000000000009af2        0x2 
 .rodata.WCHNET_UdpServerRecv.str1.4
                0x0000000000009af4       0x36 ./User/main.o
 *fill*         0x0000000000009b2a        0x2 
 .rodata.mStopIfError.str1.4
                0x0000000000009b2c        0xe ./User/main.o
 *fill*         0x0000000000009b3a        0x2 
 .rodata.main.str1.4
                0x0000000000009b3c      0x10a ./User/main.o
                                        0x10e (size before relaxing)
 *fill*         0x0000000000009c46        0x2 
 .rodata.quad_table
                0x0000000000009c48       0x10 ./User/main.o
 .rodata.MemNum
                0x0000000000009c58       0x10 ./NetLib/eth_driver_10M.o
                0x0000000000009c58                MemNum
 .rodata.MemSize
                0x0000000000009c68       0x10 ./NetLib/eth_driver_10M.o
                0x0000000000009c68                MemSize
 .rodata.ErrTable
                0x0000000000009c78       0x10 /home/randy/mounriver-studio-projects/UdpServer/NetLib/libwchnet.a(socket.o)
                0x0000000000009c78                ErrTable
 .rodata.tcp_close
                0x0000000000009c88       0x20 /home/randy/mounriver-studio-projects/UdpServer/NetLib/libwchnet.a(tcp.o)
 .rodata.tcp_input
                0x0000000000009ca8       0x20 /home/randy/mounriver-studio-projects/UdpServer/NetLib/libwchnet.a(tcp_in.o)
 .rodata.print.str1.4
                0x0000000000009cc8        0x7 /home/randy/Programs/MounRiverStudio/MounRiverStudio_Linux_X64_V230/MRS-linux-x64/resources/app/resources/linux/components/WCH/Toolchain/RISC-V Embedded GCC/bin/../lib/gcc/riscv-none-embed/8.2.0/../../../../riscv-none-embed/lib/rv32imacxw/ilp32/libprintf.a(wchprintf.o)
 *fill*         0x0000000000009ccf        0x1 
 .rodata._setlocale_r.str1.4
                0x0000000000009cd0        0xa /home/randy/Programs/MounRiverStudio/MounRiverStudio_Linux_X64_V230/MRS-linux-x64/resources/app/resources/linux/components/WCH/Toolchain/RISC-V Embedded GCC/bin/../lib/gcc/riscv-none-embed/8.2.0/../../../../riscv-none-embed/lib/rv32imacxw/ilp32/libg_nano.a(lib_a-locale.o)
                                          0xd (size before relaxing)
 .rodata.str1.4
                0x0000000000009cda        0x2 /home/randy/Programs/MounRiverStudio/MounRiverStudio_Linux_X64_V230/MRS-linux-x64/resources/app/resources/linux/components/WCH/Toolchain/RISC-V Embedded GCC/bin/../lib/gcc/riscv-none-embed/8.2.0/../../../../riscv-none-embed/lib/rv32imacxw/ilp32/libg_nano.a(lib_a-locale.o)
 *fill*         0x0000000000009cda        0x2 
 .rodata._ctype_
                0x0000000000009cdc      0x101 /home/randy/Programs/MounRiverStudio/MounRiverStudio_Linux_X64_V230/MRS-linux-x64/resources/app/resources/linux/components/WCH/Toolchain/RISC-V Embedded GCC/bin/../lib/gcc/riscv-none-embed/8.2.0/../../../../riscv-none-embed/lib/rv32imacxw/ilp32/libg_nano.a(lib_a-ctype_.o)
                0x0000000000009cdc                _ctype_
 *fill*         0x0000000000009ddd        0x3 
 .rodata.__ssvfscanf_r.str1.4
                0x0000000000009de0        0x4 /home/randy/Programs/MounRiverStudio/MounRiverStudio_Linux_X64_V230/MRS-linux-x64/resources/app/resources/linux/components/WCH/Toolchain/RISC-V Embedded GCC/bin/../lib/gcc/riscv-none-embed/8.2.0/../../../../riscv-none-embed/lib/rv32imacxw/ilp32/libg_nano.a(lib_a-nano-svfscanf.o)
 .rodata._scanf_i.str1.4
                0x0000000000009de4       0x12 /home/randy/Programs/MounRiverStudio/MounRiverStudio_Linux_X64_V230/MRS-linux-x64/resources/app/resources/linux/components/WCH/Toolchain/RISC-V Embedded GCC/bin/../lib/gcc/riscv-none-embed/8.2.0/../../../../riscv-none-embed/lib/rv32imacxw/ilp32/libg_nano.a(lib_a-nano-vfscanf_i.o)
 *fill*         0x0000000000009df6        0x2 
 .rodata.str1.4
                0x0000000000009df8        0xc /home/randy/Programs/MounRiverStudio/MounRiverStudio_Linux_X64_V230/MRS-linux-x64/resources/app/resources/linux/components/WCH/Toolchain/RISC-V Embedded GCC/bin/../lib/gcc/riscv-none-embed/8.2.0/../../../../riscv-none-embed/lib/rv32imacxw/ilp32/libg_nano.a(lib_a-nano-vfscanf_i.o)
                                          0xb (size before relaxing)
 .rodata.__sf_fake_stderr
                0x0000000000009e04       0x20 /home/randy/Programs/MounRiverStudio/MounRiverStudio_Linux_X64_V230/MRS-linux-x64/resources/app/resources/linux/components/WCH/Toolchain/RISC-V Embedded GCC/bin/../lib/gcc/riscv-none-embed/8.2.0/../../../../riscv-none-embed/lib/rv32imacxw/ilp32/libg_nano.a(lib_a-findfp.o)
                0x0000000000009e04                __sf_fake_stderr
 .rodata.__sf_fake_stdin
                0x0000000000009e24       0x20 /home/randy/Programs/MounRiverStudio/MounRiverStudio_Linux_X64_V230/MRS-linux-x64/resources/app/resources/linux/components/WCH/Toolchain/RISC-V Embedded GCC/bin/../lib/gcc/riscv-none-embed/8.2.0/../../../../riscv-none-embed/lib/rv32imacxw/ilp32/libg_nano.a(lib_a-findfp.o)
                0x0000000000009e24                __sf_fake_stdin
 .rodata.__sf_fake_stdout
                0x0000000000009e44       0x20 /home/randy/Programs/MounRiverStudio/MounRiverStudio_Linux_X64_V230/MRS-linux-x64/resources/app/resources/linux/components/WCH/Toolchain/RISC-V Embedded GCC/bin/../lib/gcc/riscv-none-embed/8.2.0/../../../../riscv-none-embed/lib/rv32imacxw/ilp32/libg_nano.a(lib_a-findfp.o)
                0x0000000000009e44                __sf_fake_stdout
 *(.gnu.linkonce.t.*)
                0x0000000000009e64                . = ALIGN (0x4)

.rela.dyn       0x0000000000009e64        0x0
 .rela.text.HardFault_Handler
                0x0000000000009e64        0x0 ./User/ch32v30x_it.o
 .rela.text.Config_Load
                0x0000000000009e64        0x0 ./User/ch32v30x_it.o
 .rela.text.GPIO_ParsePin
                0x0000000000009e64        0x0 ./User/ch32v30x_it.o
 .rela.text.mStopIfError
                0x0000000000009e64        0x0 ./User/ch32v30x_it.o
 .rela.text.WCHNET_UdpServerRecv
                0x0000000000009e64        0x0 ./User/ch32v30x_it.o
 .rela.text.WCHNET_CreateUdpSocket
                0x0000000000009e64        0x0 ./User/ch32v30x_it.o
 .rela.text.Button_Init
                0x0000000000009e64        0x0 ./User/ch32v30x_it.o
 .rela.text.Button_Task
                0x0000000000009e64        0x0 ./User/ch32v30x_it.o
 .rela.text.Encoder_Init
                0x0000000000009e64        0x0 ./User/ch32v30x_it.o
 .rela.text.Encoder_Task
                0x0000000000009e64        0x0 ./User/ch32v30x_it.o
 .rela.text.startup.main
                0x0000000000009e64        0x0 ./User/ch32v30x_it.o
 .rela.init     0x0000000000009e64        0x0 ./User/ch32v30x_it.o
 .rela.vector   0x0000000000009e64        0x0 ./User/ch32v30x_it.o
 .rela.text.handle_reset
                0x0000000000009e64        0x0 ./User/ch32v30x_it.o
 .rela.text._sbrk
                0x0000000000009e64        0x0 ./User/ch32v30x_it.o
 .rela.sdata.curbrk.5590
                0x0000000000009e64        0x0 ./User/ch32v30x_it.o
 .rela.text.prints
                0x0000000000009e64        0x0 ./User/ch32v30x_it.o
 .rela.text.printInt
                0x0000000000009e64        0x0 ./User/ch32v30x_it.o
 .rela.text.print
                0x0000000000009e64        0x0 ./User/ch32v30x_it.o
 .rela.text.printf
                0x0000000000009e64        0x0 ./User/ch32v30x_it.o
 .rela.text.sprintf
                0x0000000000009e64        0x0 ./User/ch32v30x_it.o
 .rela.text.__ssvfscanf_r
                0x0000000000009e64        0x0 ./User/ch32v30x_it.o
 .rela.text._sbrk_r
                0x0000000000009e64        0x0 ./User/ch32v30x_it.o

.fini           0x0000000000009e64        0x0
 *(SORT_NONE(.fini))
                0x0000000000009e64                . = ALIGN (0x4)
                [!provide]                        PROVIDE (_etext = .)
                [!provide]                        PROVIDE (_eitcm = .)

.preinit_array  0x0000000000009e64        0x0
                [!provide]                        PROVIDE (__preinit_array_start = .)
 *(.preinit_array)
                [!provide]                        PROVIDE (__preinit_array_end = .)

.init_array     0x0000000000009e64        0x0
                [!provide]                        PROVIDE (__init_array_start = .)
 *(SORT_BY_INIT_PRIORITY(.init_array.*) SORT_BY_INIT_PRIORITY(.ctors.*))
 *(.init_array EXCLUDE_FILE(*crtend?.o *crtend.o *crtbegin?.o *crtbegin.o) .ctors)
                [!provide]                        PROVIDE (__init_array_end = .)

.fini_array     0x0000000000009e64        0x0
                [!provide]                        PROVIDE (__fini_array_start = .)
 *(SORT_BY_INIT_PRIORITY(.fini_array.*) SORT_BY_INIT_PRIORITY(.dtors.*))
 *(.fini_array EXCLUDE_FILE(*crtend?.o *crtend.o *crtbegin?.o *crtbegin.o) .dtors)
                [!provide]                        PROVIDE (__fini_array_end = .)

.ctors
 *crtbegin.o(.ctors)
 *crtbegin?.o(.ctors)
 *(EXCLUDE_FILE(*crtend?.o *crtend.o) .ctors)
 *(SORT_BY_NAME(.ctors.*))
 *(.ctors)

.dtors
 *crtbegin.o(.dtors)
 *crtbegin?.o(.dtors)
 *(EXCLUDE_FILE(*crtend?.o *crtend.o) .dtors)
 *(SORT_BY_NAME(.dtors.*))
 *(.dtors)

.dalign         0x0000000020000000        0x0 load address 0x0000000000009e64
                0x0000000020000000                . = ALIGN (0x4)
                0x0000000020000000                PROVIDE (_data_vma = .)

.dlalign        0x0000000000009e64        0x0
                0x0000000000009e64                . = ALIGN (0x4)
                0x0000000000009e64                PROVIDE (_data_lma = .)

.data           0x0000000020000000      0x280 load address 0x0000000000009e64
 *(.gnu.linkonce.r.*)
 *(.data .data.*)
 .data.SocketMyBuf
                0x0000000020000000       0x2d ./User/main.o
                0x0000000020000000                SocketMyBuf
 *fill*         0x000000002000002d        0x3 
 .data.AHBPrescTable
                0x0000000020000030       0x10 ./User/system_ch32v30x.o
                0x0000000020000030                AHBPrescTable
 .data.APBAHBPrescTable
                0x0000000020000040       0x10 ./Peripheral/src/ch32v30x_rcc.o
 .data.__global_locale
                0x0000000020000050      0x16c /home/randy/Programs/MounRiverStudio/MounRiverStudio_Linux_X64_V230/MRS-linux-x64/resources/app/resources/linux/components/WCH/Toolchain/RISC-V Embedded GCC/bin/../lib/gcc/riscv-none-embed/8.2.0/../../../../riscv-none-embed/lib/rv32imacxw/ilp32/libg_nano.a(lib_a-locale.o)
                0x0000000020000050                __global_locale
 .data.impure_data
                0x00000000200001bc       0x60 /home/randy/Programs/MounRiverStudio/MounRiverStudio_Linux_X64_V230/MRS-linux-x64/resources/app/resources/linux/components/WCH/Toolchain/RISC-V Embedded GCC/bin/../lib/gcc/riscv-none-embed/8.2.0/../../../../riscv-none-embed/lib/rv32imacxw/ilp32/libg_nano.a(lib_a-impure.o)
 *(.gnu.linkonce.d.*)
                0x0000000020000220                . = ALIGN (0x8)
 *fill*         0x000000002000021c        0x4 
                0x0000000020000a20                PROVIDE (__global_pointer$ = (. + 0x800))
 *(.sdata .sdata.*)
 .sdata.newline_str
                0x0000000020000220        0x2 ./User/config.o
                0x0000000020000220                newline_str
 *fill*         0x0000000020000222        0x2 
 .sdata.BroadcastAddr
                0x0000000020000224        0x4 ./User/main.o
                0x0000000020000224                BroadcastAddr
 .sdata.BroadcastPort
                0x0000000020000228        0x2 ./User/main.o
                0x0000000020000228                BroadcastPort
 *fill*         0x000000002000022a        0x2 
 .sdata.GWIPAddr
                0x000000002000022c        0x4 ./User/main.o
                0x000000002000022c                GWIPAddr
 .sdata.IPAddr  0x0000000020000230        0x4 ./User/main.o
                0x0000000020000230                IPAddr
 .sdata.IPMask  0x0000000020000234        0x4 ./User/main.o
                0x0000000020000234                IPMask
 .sdata.srcport
                0x0000000020000238        0x2 ./User/main.o
                0x0000000020000238                srcport
 *fill*         0x000000002000023a        0x2 
 .sdata.SystemCoreClock
                0x000000002000023c        0x4 ./User/system_ch32v30x.o
                0x000000002000023c                SystemCoreClock
 .sdata.ADCPrescTable
                0x0000000020000240        0x4 ./Peripheral/src/ch32v30x_rcc.o
 .sdata.phyPN   0x0000000020000244        0x1 ./NetLib/eth_driver_10M.o
                0x0000000020000244                phyPN
 *fill*         0x0000000020000245        0x3 
 .sdata.curbrk.5590
                0x0000000020000248        0x4 ./Debug/debug.o
 .sdata.DHCPXid
                0x000000002000024c        0x4 /home/randy/mounriver-studio-projects/UdpServer/NetLib/libwchnet.a(net_dhcp.o)
                0x000000002000024c                DHCPXid
 .sdata.arp_table
                0x0000000020000250        0x4 /home/randy/mounriver-studio-projects/UdpServer/NetLib/libwchnet.a(etharp.o)
                0x0000000020000250                arp_table
 .sdata.memp_num
                0x0000000020000254        0x4 /home/randy/mounriver-studio-projects/UdpServer/NetLib/libwchnet.a(memp.o)
                0x0000000020000254                memp_num
 .sdata.memp_sizes
                0x0000000020000258        0x4 /home/randy/mounriver-studio-projects/UdpServer/NetLib/libwchnet.a(memp.o)
                0x0000000020000258                memp_sizes
 .sdata.iss.3197
                0x000000002000025c        0x4 /home/randy/mounriver-studio-projects/UdpServer/NetLib/libwchnet.a(tcp.o)
 .sdata.port.3029
                0x0000000020000260        0x2 /home/randy/mounriver-studio-projects/UdpServer/NetLib/libwchnet.a(tcp.o)
 *fill*         0x0000000020000262        0x2 
 .sdata._impure_ptr
                0x0000000020000264        0x4 /home/randy/Programs/MounRiverStudio/MounRiverStudio_Linux_X64_V230/MRS-linux-x64/resources/app/resources/linux/components/WCH/Toolchain/RISC-V Embedded GCC/bin/../lib/gcc/riscv-none-embed/8.2.0/../../../../riscv-none-embed/lib/rv32imacxw/ilp32/libg_nano.a(lib_a-impure.o)
                0x0000000020000264                _impure_ptr
 *(.sdata2.*)
 .sdata2.ethbroadcast
                0x0000000020000268        0x6 /home/randy/mounriver-studio-projects/UdpServer/NetLib/libwchnet.a(etharp.o)
                0x0000000020000268                ethbroadcast
 *fill*         0x000000002000026e        0x2 
 .sdata2.ethzero
                0x0000000020000270        0x6 /home/randy/mounriver-studio-projects/UdpServer/NetLib/libwchnet.a(etharp.o)
                0x0000000020000270                ethzero
 *fill*         0x0000000020000276        0x2 
 .sdata2.ip_addr_any
                0x0000000020000278        0x4 /home/randy/mounriver-studio-projects/UdpServer/NetLib/libwchnet.a(ip_addr.o)
                0x0000000020000278                ip_addr_any
 .sdata2.ip_addr_broadcast
                0x000000002000027c        0x4 /home/randy/mounriver-studio-projects/UdpServer/NetLib/libwchnet.a(ip_addr.o)
                0x000000002000027c                ip_addr_broadcast
 *(.gnu.linkonce.s.*)
                0x0000000020000280                . = ALIGN (0x8)
 *(.srodata.cst16)
 *(.srodata.cst8)
 *(.srodata.cst4)
 *(.srodata.cst2)
 *(.srodata .srodata.*)
                0x0000000020000280                . = ALIGN (0x4)
                0x0000000020000280                PROVIDE (_edata = .)

.bss            0x0000000020000280     0x652c load address 0x000000000000a0e4
                0x0000000020000280                . = ALIGN (0x4)
                0x0000000020000280                PROVIDE (_sbss = .)
 *(.sbss*)
 .sbss.current_len
                0x0000000020000280        0x4 ./User/config.o
                0x0000000020000280                current_len
 .sbss.MACAddr  0x0000000020000284        0x6 ./User/main.o
                0x0000000020000284                MACAddr
 .sbss.SocketId
                0x000000002000028a        0x1 ./User/main.o
                0x000000002000028a                SocketId
 *fill*         0x000000002000028b        0x1 
 .sbss.g_msTicks
                0x000000002000028c        0x4 ./User/timebase.o
 .sbss.DMARxDescToGet
                0x0000000020000290        0x4 ./Peripheral/src/ch32v30x_eth.o
                0x0000000020000290                DMARxDescToGet
 .sbss.DMATxDescToSet
                0x0000000020000294        0x4 ./Peripheral/src/ch32v30x_eth.o
                0x0000000020000294                DMATxDescToSet
 .sbss.ChipId   0x0000000020000298        0x4 ./NetLib/eth_driver_10M.o
                0x0000000020000298                ChipId
 .sbss.LinkSuccTime
                0x000000002000029c        0x4 ./NetLib/eth_driver_10M.o
                0x000000002000029c                LinkSuccTime
 .sbss.LocalTime
                0x00000000200002a0        0x4 ./NetLib/eth_driver_10M.o
                0x00000000200002a0                LocalTime
 .sbss.PhyPolarityDetect
                0x00000000200002a4        0x1 ./NetLib/eth_driver_10M.o
                0x00000000200002a4                PhyPolarityDetect
 *fill*         0x00000000200002a5        0x3 
 .sbss.RandVal  0x00000000200002a8        0x4 ./NetLib/eth_driver_10M.o
                0x00000000200002a8                RandVal
 .sbss.TRDetectStep
                0x00000000200002ac        0x1 ./NetLib/eth_driver_10M.o
                0x00000000200002ac                TRDetectStep
 *fill*         0x00000000200002ad        0x1 
 .sbss.gPHYAddress
                0x00000000200002ae        0x2 ./NetLib/eth_driver_10M.o
                0x00000000200002ae                gPHYAddress
 .sbss.pDMARxSet
                0x00000000200002b0        0x4 ./NetLib/eth_driver_10M.o
                0x00000000200002b0                pDMARxSet
 .sbss.pDMATxSet
                0x00000000200002b4        0x4 ./NetLib/eth_driver_10M.o
                0x00000000200002b4                pDMATxSet
 .sbss.phyLinkCnt
                0x00000000200002b8        0x1 ./NetLib/eth_driver_10M.o
                0x00000000200002b8                phyLinkCnt
 .sbss.phyLinkReset
                0x00000000200002b9        0x1 ./NetLib/eth_driver_10M.o
                0x00000000200002b9                phyLinkReset
 .sbss.phyLinkStatus
                0x00000000200002ba        0x1 ./NetLib/eth_driver_10M.o
                0x00000000200002ba                phyLinkStatus
 *fill*         0x00000000200002bb        0x1 
 .sbss.phyLinkTime
                0x00000000200002bc        0x4 ./NetLib/eth_driver_10M.o
                0x00000000200002bc                phyLinkTime
 .sbss.phyNegoLinkTime
                0x00000000200002c0        0x4 ./NetLib/eth_driver_10M.o
                0x00000000200002c0                phyNegoLinkTime
 .sbss.phyNegoStat
                0x00000000200002c4        0x1 ./NetLib/eth_driver_10M.o
                0x00000000200002c4                phyNegoStat
 .sbss.phyStatus
                0x00000000200002c5        0x1 ./NetLib/eth_driver_10M.o
                0x00000000200002c5                phyStatus
 .sbss.phySucCnt
                0x00000000200002c6        0x1 ./NetLib/eth_driver_10M.o
                0x00000000200002c6                phySucCnt
 *fill*         0x00000000200002c7        0x1 
 .sbss.p_ms     0x00000000200002c8        0x2 ./Debug/debug.o
 .sbss.p_us     0x00000000200002ca        0x1 ./Debug/debug.o
 *fill*         0x00000000200002cb        0x1 
 .sbss.TxTimer  0x00000000200002cc        0x4 /home/randy/mounriver-studio-projects/UdpServer/NetLib/libwchnet.a(eth_api.o)
                0x00000000200002cc                TxTimer
 .sbss.ARP_Retry_Cnt
                0x00000000200002d0        0x1 /home/randy/mounriver-studio-projects/UdpServer/NetLib/libwchnet.a(socket.o)
                0x00000000200002d0                ARP_Retry_Cnt
 .sbss.ARP_Retry_Period
                0x00000000200002d1        0x1 /home/randy/mounriver-studio-projects/UdpServer/NetLib/libwchnet.a(socket.o)
                0x00000000200002d1                ARP_Retry_Period
 .sbss.Arp_Entry_timeout
                0x00000000200002d2        0x2 /home/randy/mounriver-studio-projects/UdpServer/NetLib/libwchnet.a(socket.o)
                0x00000000200002d2                Arp_Entry_timeout
 .sbss.SockNumber
                0x00000000200002d4        0x1 /home/randy/mounriver-studio-projects/UdpServer/NetLib/libwchnet.a(socket.o)
                0x00000000200002d4                SockNumber
 *fill*         0x00000000200002d5        0x3 
 .sbss.TCPVerifyConnCallback
                0x00000000200002d8        0x4 /home/randy/mounriver-studio-projects/UdpServer/NetLib/libwchnet.a(socket.o)
                0x00000000200002d8                TCPVerifyConnCallback
 .sbss.phydata  0x00000000200002dc        0x1 /home/randy/mounriver-studio-projects/UdpServer/NetLib/libwchnet.a(socket.o)
                0x00000000200002dc                phydata
 .sbss.etharp_cached_entry
                0x00000000200002dd        0x1 /home/randy/mounriver-studio-projects/UdpServer/NetLib/libwchnet.a(etharp.o)
 *fill*         0x00000000200002de        0x2 
 .sbss.frame    0x00000000200002e0        0x8 /home/randy/mounriver-studio-projects/UdpServer/NetLib/libwchnet.a(ethernetif.o)
                0x00000000200002e0                frame
 .sbss.ip_id.2947
                0x00000000200002e8        0x2 /home/randy/mounriver-studio-projects/UdpServer/NetLib/libwchnet.a(ip.o)
 .sbss.ip_reass_pbufcount
                0x00000000200002ea        0x2 /home/randy/mounriver-studio-projects/UdpServer/NetLib/libwchnet.a(ip_frag.o)
 .sbss.reassdatagrams
                0x00000000200002ec        0x4 /home/randy/mounriver-studio-projects/UdpServer/NetLib/libwchnet.a(ip_frag.o)
 .sbss.lfree    0x00000000200002f0        0x4 /home/randy/mounriver-studio-projects/UdpServer/NetLib/libwchnet.a(mem.o)
 .sbss.ram      0x00000000200002f4        0x4 /home/randy/mounriver-studio-projects/UdpServer/NetLib/libwchnet.a(mem.o)
 .sbss.ram_end  0x00000000200002f8        0x4 /home/randy/mounriver-studio-projects/UdpServer/NetLib/libwchnet.a(mem.o)
 .sbss.netif_default
                0x00000000200002fc        0x4 /home/randy/mounriver-studio-projects/UdpServer/NetLib/libwchnet.a(netif.o)
                0x00000000200002fc                netif_default
 .sbss.netif_list
                0x0000000020000300        0x4 /home/randy/mounriver-studio-projects/UdpServer/NetLib/libwchnet.a(netif.o)
                0x0000000020000300                netif_list
 .sbss.netifnum.2482
                0x0000000020000304        0x1 /home/randy/mounriver-studio-projects/UdpServer/NetLib/libwchnet.a(netif.o)
 *fill*         0x0000000020000305        0x3 
 .sbss.raw_pcbs
                0x0000000020000308        0x4 /home/randy/mounriver-studio-projects/UdpServer/NetLib/libwchnet.a(raw.o)
 .sbss.tcp_active_pcbs
                0x000000002000030c        0x4 /home/randy/mounriver-studio-projects/UdpServer/NetLib/libwchnet.a(tcp.o)
                0x000000002000030c                tcp_active_pcbs
 .sbss.tcp_bound_pcbs
                0x0000000020000310        0x4 /home/randy/mounriver-studio-projects/UdpServer/NetLib/libwchnet.a(tcp.o)
                0x0000000020000310                tcp_bound_pcbs
 .sbss.tcp_listen_pcbs
                0x0000000020000314        0x4 /home/randy/mounriver-studio-projects/UdpServer/NetLib/libwchnet.a(tcp.o)
                0x0000000020000314                tcp_listen_pcbs
 .sbss.tcp_ticks
                0x0000000020000318        0x4 /home/randy/mounriver-studio-projects/UdpServer/NetLib/libwchnet.a(tcp.o)
                0x0000000020000318                tcp_ticks
 .sbss.tcp_tmp_pcb
                0x000000002000031c        0x4 /home/randy/mounriver-studio-projects/UdpServer/NetLib/libwchnet.a(tcp.o)
                0x000000002000031c                tcp_tmp_pcb
 .sbss.tcp_tw_pcbs
                0x0000000020000320        0x4 /home/randy/mounriver-studio-projects/UdpServer/NetLib/libwchnet.a(tcp.o)
                0x0000000020000320                tcp_tw_pcbs
 .sbss.ackno    0x0000000020000324        0x4 /home/randy/mounriver-studio-projects/UdpServer/NetLib/libwchnet.a(tcp_in.o)
 .sbss.flags    0x0000000020000328        0x1 /home/randy/mounriver-studio-projects/UdpServer/NetLib/libwchnet.a(tcp_in.o)
 *fill*         0x0000000020000329        0x3 
 .sbss.iphdr    0x000000002000032c        0x4 /home/randy/mounriver-studio-projects/UdpServer/NetLib/libwchnet.a(tcp_in.o)
 .sbss.recv_data
                0x0000000020000330        0x4 /home/randy/mounriver-studio-projects/UdpServer/NetLib/libwchnet.a(tcp_in.o)
 .sbss.recv_flags
                0x0000000020000334        0x1 /home/randy/mounriver-studio-projects/UdpServer/NetLib/libwchnet.a(tcp_in.o)
 *fill*         0x0000000020000335        0x3 
 .sbss.seqno    0x0000000020000338        0x4 /home/randy/mounriver-studio-projects/UdpServer/NetLib/libwchnet.a(tcp_in.o)
 .sbss.tcp_input_pcb
                0x000000002000033c        0x4 /home/randy/mounriver-studio-projects/UdpServer/NetLib/libwchnet.a(tcp_in.o)
                0x000000002000033c                tcp_input_pcb
 .sbss.tcphdr   0x0000000020000340        0x4 /home/randy/mounriver-studio-projects/UdpServer/NetLib/libwchnet.a(tcp_in.o)
 .sbss.tcplen   0x0000000020000344        0x2 /home/randy/mounriver-studio-projects/UdpServer/NetLib/libwchnet.a(tcp_in.o)
 *fill*         0x0000000020000346        0x2 
 .sbss.udp_pcbs
                0x0000000020000348        0x4 /home/randy/mounriver-studio-projects/UdpServer/NetLib/libwchnet.a(udp.o)
                0x0000000020000348                udp_pcbs
 .sbss.__malloc_free_list
                0x000000002000034c        0x4 /home/randy/Programs/MounRiverStudio/MounRiverStudio_Linux_X64_V230/MRS-linux-x64/resources/app/resources/linux/components/WCH/Toolchain/RISC-V Embedded GCC/bin/../lib/gcc/riscv-none-embed/8.2.0/../../../../riscv-none-embed/lib/rv32imacxw/ilp32/libg_nano.a(lib_a-nano-mallocr.o)
                0x000000002000034c                __malloc_free_list
 .sbss.__malloc_sbrk_start
                0x0000000020000350        0x4 /home/randy/Programs/MounRiverStudio/MounRiverStudio_Linux_X64_V230/MRS-linux-x64/resources/app/resources/linux/components/WCH/Toolchain/RISC-V Embedded GCC/bin/../lib/gcc/riscv-none-embed/8.2.0/../../../../riscv-none-embed/lib/rv32imacxw/ilp32/libg_nano.a(lib_a-nano-mallocr.o)
                0x0000000020000350                __malloc_sbrk_start
 *(.gnu.linkonce.sb.*)
 *(.bss*)
 .bss.g_cfg     0x0000000020000354      0xe54 ./User/config.o
                0x0000000020000354                g_cfg
 .bss.SocketRecvBuf
                0x00000000200011a8      0x5c0 ./User/main.o
                0x00000000200011a8                SocketRecvBuf
 .bss.btn_state
                0x0000000020001768      0x100 ./User/main.o
 .bss.enc_state
                0x0000000020001868       0x20 ./User/main.o
 .bss.DMARxDscrTab
                0x0000000020001888       0x70 ./NetLib/eth_driver_10M.o
                0x0000000020001888                DMARxDscrTab
 .bss.DMATxDscrTab
                0x00000000200018f8       0x20 ./NetLib/eth_driver_10M.o
                0x00000000200018f8                DMATxDscrTab
 .bss.MACRxBuf  0x0000000020001918     0x29ac ./NetLib/eth_driver_10M.o
                0x0000000020001918                MACRxBuf
 .bss.MACTxBuf  0x00000000200042c4      0xbe8 ./NetLib/eth_driver_10M.o
                0x00000000200042c4                MACTxBuf
 .bss.Mem_ArpTable
                0x0000000020004eac      0x4b0 ./NetLib/eth_driver_10M.o
                0x0000000020004eac                Mem_ArpTable
 .bss.Mem_Heap_Memory
                0x000000002000535c      0x66c ./NetLib/eth_driver_10M.o
                0x000000002000535c                Mem_Heap_Memory
 .bss.Memp_Memory
                0x00000000200059c8      0xc43 ./NetLib/eth_driver_10M.o
                0x00000000200059c8                Memp_Memory
 *fill*         0x000000002000660b        0x1 
 .bss.SocketInf
                0x000000002000660c       0x3c ./NetLib/eth_driver_10M.o
                0x000000002000660c                SocketInf
 .bss.SelARP    0x0000000020006648        0xc /home/randy/mounriver-studio-projects/UdpServer/NetLib/libwchnet.a(ipcheck.o)
                0x0000000020006648                SelARP
 .bss.DHCPCtrl  0x0000000020006654       0x18 /home/randy/mounriver-studio-projects/UdpServer/NetLib/libwchnet.a(net_dhcp.o)
                0x0000000020006654                DHCPCtrl
 .bss.dhcp_host_name
                0x000000002000666c       0x40 /home/randy/mounriver-studio-projects/UdpServer/NetLib/libwchnet.a(net_dhcp.o)
                0x000000002000666c                dhcp_host_name
 .bss.DNSInf    0x00000000200066ac       0x14 /home/randy/mounriver-studio-projects/UdpServer/NetLib/libwchnet.a(net_dns.o)
                0x00000000200066ac                DNSInf
 .bss.KeepLiveCfg
                0x00000000200066c0        0xc /home/randy/mounriver-studio-projects/UdpServer/NetLib/libwchnet.a(socket.o)
                0x00000000200066c0                KeepLiveCfg
 .bss.NetInf    0x00000000200066cc       0x44 /home/randy/mounriver-studio-projects/UdpServer/NetLib/libwchnet.a(socket.o)
                0x00000000200066cc                NetInf
 .bss.WCHCfg    0x0000000020006710       0x2c /home/randy/mounriver-studio-projects/UdpServer/NetLib/libwchnet.a(socket.o)
                0x0000000020006710                WCHCfg
 .bss.WCHNetIf  0x000000002000673c       0x38 /home/randy/mounriver-studio-projects/UdpServer/NetLib/libwchnet.a(ethernetif.o)
                0x000000002000673c                WCHNetIf
 .bss.memp_tab  0x0000000020006774       0x20 /home/randy/mounriver-studio-projects/UdpServer/NetLib/libwchnet.a(memp.o)
 .bss.inseg     0x0000000020006794       0x14 /home/randy/mounriver-studio-projects/UdpServer/NetLib/libwchnet.a(tcp_in.o)
 *(.gnu.linkonce.b.*)
 *(COMMON*)
 COMMON         0x00000000200067a8        0x4 /home/randy/Programs/MounRiverStudio/MounRiverStudio_Linux_X64_V230/MRS-linux-x64/resources/app/resources/linux/components/WCH/Toolchain/RISC-V Embedded GCC/bin/../lib/gcc/riscv-none-embed/8.2.0/../../../../riscv-none-embed/lib/rv32imacxw/ilp32/libg_nano.a(lib_a-reent.o)
                0x00000000200067a8                errno
                0x00000000200067ac                . = ALIGN (0x4)
                0x00000000200067ac                PROVIDE (_ebss = .)
                0x00000000200067ac                PROVIDE (_end = _ebss)
                [!provide]                        PROVIDE (end = .)

.stack          0x000000002000f800      0x800
                0x000000002000f800                PROVIDE (_heap_end = .)
                0x000000002000f800                . = ALIGN (0x4)
                [!provide]                        PROVIDE (_susrstack = .)
                0x0000000020010000                . = (. + __stack_size)
 *fill*         0x000000002000f800      0x800 
                0x0000000020010000                PROVIDE (_eusrstack = .)
OUTPUT(UDPServer.elf elf32-littleriscv)

.debug_info     0x0000000000000000    0x1619c
 .debug_info    0x0000000000000000     0x1168 ./User/ch32v30x_it.o
 .debug_info    0x0000000000001168     0x16be ./User/config.o
 .debug_info    0x0000000000002826      0xd93 ./User/gpio_mgr.o
 .debug_info    0x00000000000035b9      0xc94 ./User/ini_parser.o
 .debug_info    0x000000000000424d     0x222f ./User/main.o
 .debug_info    0x000000000000647c      0xbb5 ./User/system_ch32v30x.o
 .debug_info    0x0000000000007031      0xdbd ./User/timebase.o
 .debug_info    0x0000000000007dee       0x22 ./Startup/startup_ch32v30x_D8C.o
 .debug_info    0x0000000000007e10      0xa94 ./Peripheral/src/ch32v30x_dbgmcu.o
 .debug_info    0x00000000000088a4     0x270c ./Peripheral/src/ch32v30x_eth.o
 .debug_info    0x000000000000afb0      0xc0d ./Peripheral/src/ch32v30x_exti.o
 .debug_info    0x000000000000bbbd     0x12aa ./Peripheral/src/ch32v30x_gpio.o
 .debug_info    0x000000000000ce67     0x158a ./Peripheral/src/ch32v30x_rcc.o
 .debug_info    0x000000000000e3f1     0x2a3c ./Peripheral/src/ch32v30x_tim.o
 .debug_info    0x0000000000010e2d     0x13cd ./Peripheral/src/ch32v30x_usart.o
 .debug_info    0x00000000000121fa     0x2beb ./NetLib/eth_driver_10M.o
 .debug_info    0x0000000000014de5      0xf4a ./Debug/debug.o
 .debug_info    0x0000000000015d2f      0x46d ./Core/core_riscv.o

.debug_abbrev   0x0000000000000000     0x36de
 .debug_abbrev  0x0000000000000000      0x2a8 ./User/ch32v30x_it.o
 .debug_abbrev  0x00000000000002a8      0x360 ./User/config.o
 .debug_abbrev  0x0000000000000608      0x352 ./User/gpio_mgr.o
 .debug_abbrev  0x000000000000095a      0x314 ./User/ini_parser.o
 .debug_abbrev  0x0000000000000c6e      0x463 ./User/main.o
 .debug_abbrev  0x00000000000010d1      0x2c0 ./User/system_ch32v30x.o
 .debug_abbrev  0x0000000000001391      0x294 ./User/timebase.o
 .debug_abbrev  0x0000000000001625       0x12 ./Startup/startup_ch32v30x_D8C.o
 .debug_abbrev  0x0000000000001637      0x2f7 ./Peripheral/src/ch32v30x_dbgmcu.o
 .debug_abbrev  0x000000000000192e      0x47b ./Peripheral/src/ch32v30x_eth.o
 .debug_abbrev  0x0000000000001da9      0x2da ./Peripheral/src/ch32v30x_exti.o
 .debug_abbrev  0x0000000000002083      0x31a ./Peripheral/src/ch32v30x_gpio.o
 .debug_abbrev  0x000000000000239d      0x351 ./Peripheral/src/ch32v30x_rcc.o
 .debug_abbrev  0x00000000000026ee      0x3ee ./Peripheral/src/ch32v30x_tim.o
 .debug_abbrev  0x0000000000002adc      0x312 ./Peripheral/src/ch32v30x_usart.o
 .debug_abbrev  0x0000000000002dee      0x4ee ./NetLib/eth_driver_10M.o
 .debug_abbrev  0x00000000000032dc      0x2f5 ./Debug/debug.o
 .debug_abbrev  0x00000000000035d1      0x10d ./Core/core_riscv.o

.debug_aranges  0x0000000000000000      0xd60
 .debug_aranges
                0x0000000000000000       0x40 ./User/ch32v30x_it.o
 .debug_aranges
                0x0000000000000040       0x28 ./User/config.o
 .debug_aranges
                0x0000000000000068       0x30 ./User/gpio_mgr.o
 .debug_aranges
                0x0000000000000098       0x28 ./User/ini_parser.o
 .debug_aranges
                0x00000000000000c0       0x88 ./User/main.o
 .debug_aranges
                0x0000000000000148       0x28 ./User/system_ch32v30x.o
 .debug_aranges
                0x0000000000000170       0x28 ./User/timebase.o
 .debug_aranges
                0x0000000000000198       0x30 ./Startup/startup_ch32v30x_D8C.o
 .debug_aranges
                0x00000000000001c8       0x48 ./Peripheral/src/ch32v30x_dbgmcu.o
 .debug_aranges
                0x0000000000000210      0x300 ./Peripheral/src/ch32v30x_eth.o
 .debug_aranges
                0x0000000000000510       0x50 ./Peripheral/src/ch32v30x_exti.o
 .debug_aranges
                0x0000000000000560       0xb0 ./Peripheral/src/ch32v30x_gpio.o
 .debug_aranges
                0x0000000000000610      0x1a8 ./Peripheral/src/ch32v30x_rcc.o
 .debug_aranges
                0x00000000000007b8      0x2d0 ./Peripheral/src/ch32v30x_tim.o
 .debug_aranges
                0x0000000000000a88       0xf0 ./Peripheral/src/ch32v30x_usart.o
 .debug_aranges
                0x0000000000000b78       0xb8 ./NetLib/eth_driver_10M.o
 .debug_aranges
                0x0000000000000c30       0x50 ./Debug/debug.o
 .debug_aranges
                0x0000000000000c80       0xe0 ./Core/core_riscv.o

.debug_ranges   0x0000000000000000      0xe88
 .debug_ranges  0x0000000000000000       0x30 ./User/ch32v30x_it.o
 .debug_ranges  0x0000000000000030       0x30 ./User/config.o
 .debug_ranges  0x0000000000000060       0x20 ./User/gpio_mgr.o
 .debug_ranges  0x0000000000000080       0x58 ./User/ini_parser.o
 .debug_ranges  0x00000000000000d8      0x168 ./User/main.o
 .debug_ranges  0x0000000000000240       0x38 ./User/system_ch32v30x.o
 .debug_ranges  0x0000000000000278       0x18 ./User/timebase.o
 .debug_ranges  0x0000000000000290       0x28 ./Startup/startup_ch32v30x_D8C.o
 .debug_ranges  0x00000000000002b8       0x50 ./Peripheral/src/ch32v30x_dbgmcu.o
 .debug_ranges  0x0000000000000308      0x368 ./Peripheral/src/ch32v30x_eth.o
 .debug_ranges  0x0000000000000670       0x40 ./Peripheral/src/ch32v30x_exti.o
 .debug_ranges  0x00000000000006b0       0xa0 ./Peripheral/src/ch32v30x_gpio.o
 .debug_ranges  0x0000000000000750      0x198 ./Peripheral/src/ch32v30x_rcc.o
 .debug_ranges  0x00000000000008e8      0x2c0 ./Peripheral/src/ch32v30x_tim.o
 .debug_ranges  0x0000000000000ba8       0xe0 ./Peripheral/src/ch32v30x_usart.o
 .debug_ranges  0x0000000000000c88       0xf0 ./NetLib/eth_driver_10M.o
 .debug_ranges  0x0000000000000d78       0x40 ./Debug/debug.o
 .debug_ranges  0x0000000000000db8       0xd0 ./Core/core_riscv.o

.debug_line     0x0000000000000000    0x12235
 .debug_line    0x0000000000000000      0x608 ./User/ch32v30x_it.o
 .debug_line    0x0000000000000608      0xb80 ./User/config.o
 .debug_line    0x0000000000001188      0x7c5 ./User/gpio_mgr.o
 .debug_line    0x000000000000194d      0x56c ./User/ini_parser.o
 .debug_line    0x0000000000001eb9     0x12c5 ./User/main.o
 .debug_line    0x000000000000317e      0xa03 ./User/system_ch32v30x.o
 .debug_line    0x0000000000003b81      0x4cb ./User/timebase.o
 .debug_line    0x000000000000404c      0x122 ./Startup/startup_ch32v30x_D8C.o
 .debug_line    0x000000000000416e      0x498 ./Peripheral/src/ch32v30x_dbgmcu.o
 .debug_line    0x0000000000004606     0x3345 ./Peripheral/src/ch32v30x_eth.o
 .debug_line    0x000000000000794b      0x6eb ./Peripheral/src/ch32v30x_exti.o
 .debug_line    0x0000000000008036     0x136c ./Peripheral/src/ch32v30x_gpio.o
 .debug_line    0x00000000000093a2     0x1a9e ./Peripheral/src/ch32v30x_rcc.o
 .debug_line    0x000000000000ae40     0x31ee ./Peripheral/src/ch32v30x_tim.o
 .debug_line    0x000000000000e02e     0x100b ./Peripheral/src/ch32v30x_usart.o
 .debug_line    0x000000000000f039     0x23a4 ./NetLib/eth_driver_10M.o
 .debug_line    0x00000000000113dd      0x854 ./Debug/debug.o
 .debug_line    0x0000000000011c31      0x604 ./Core/core_riscv.o

.debug_str      0x0000000000000000     0x476a
 .debug_str     0x0000000000000000      0x8f0 ./User/ch32v30x_it.o
                                        0x9a6 (size before relaxing)
 .debug_str     0x00000000000008f0      0x1f6 ./User/config.o
                                        0x7ee (size before relaxing)
 .debug_str     0x0000000000000ae6      0x1ca ./User/gpio_mgr.o
                                        0x7ea (size before relaxing)
 .debug_str     0x0000000000000cb0       0x3d ./User/ini_parser.o
                                        0x602 (size before relaxing)
 .debug_str     0x0000000000000ced      0x8e3 ./User/main.o
                                       0x134f (size before relaxing)
 .debug_str     0x00000000000015d0      0x109 ./User/system_ch32v30x.o
                                        0x6f2 (size before relaxing)
 .debug_str     0x00000000000016d9       0x5e ./User/timebase.o
                                        0x835 (size before relaxing)
 .debug_str     0x0000000000001737       0x2e ./Startup/startup_ch32v30x_D8C.o
                                         0x62 (size before relaxing)
 .debug_str     0x0000000000001765       0x97 ./Peripheral/src/ch32v30x_dbgmcu.o
                                        0x64e (size before relaxing)
 .debug_str     0x00000000000017fc     0x1202 ./Peripheral/src/ch32v30x_eth.o
                                       0x1918 (size before relaxing)
 .debug_str     0x00000000000029fe      0x1a4 ./Peripheral/src/ch32v30x_exti.o
                                        0x795 (size before relaxing)
 .debug_str     0x0000000000002ba2      0x25a ./Peripheral/src/ch32v30x_gpio.o
                                        0x9b8 (size before relaxing)
 .debug_str     0x0000000000002dfc      0x595 ./Peripheral/src/ch32v30x_rcc.o
                                        0xce7 (size before relaxing)
 .debug_str     0x0000000000003391      0x9cc ./Peripheral/src/ch32v30x_tim.o
                                       0x128e (size before relaxing)
 .debug_str     0x0000000000003d5d      0x3f5 ./Peripheral/src/ch32v30x_usart.o
                                        0xb02 (size before relaxing)
 .debug_str     0x0000000000004152      0x469 ./NetLib/eth_driver_10M.o
                                       0x1a44 (size before relaxing)
 .debug_str     0x00000000000045bb       0x88 ./Debug/debug.o
                                        0x929 (size before relaxing)
 .debug_str     0x0000000000004643      0x127 ./Core/core_riscv.o
                                        0x2e8 (size before relaxing)

.comment        0x0000000000000000       0x66
 .comment       0x0000000000000000       0x33 ./User/ch32v30x_it.o
                                         0x34 (size before relaxing)
 .comment       0x0000000000000033       0x34 ./User/config.o
 .comment       0x0000000000000033       0x34 ./User/gpio_mgr.o
 .comment       0x0000000000000033       0x34 ./User/ini_parser.o
 .comment       0x0000000000000033       0x34 ./User/main.o
 .comment       0x0000000000000033       0x34 ./User/system_ch32v30x.o
 .comment       0x0000000000000033       0x34 ./User/timebase.o
 .comment       0x0000000000000033       0x34 ./Peripheral/src/ch32v30x_dbgmcu.o
 .comment       0x0000000000000033       0x34 ./Peripheral/src/ch32v30x_eth.o
 .comment       0x0000000000000033       0x34 ./Peripheral/src/ch32v30x_exti.o
 .comment       0x0000000000000033       0x34 ./Peripheral/src/ch32v30x_gpio.o
 .comment       0x0000000000000033       0x34 ./Peripheral/src/ch32v30x_rcc.o
 .comment       0x0000000000000033       0x34 ./Peripheral/src/ch32v30x_tim.o
 .comment       0x0000000000000033       0x34 ./Peripheral/src/ch32v30x_usart.o
 .comment       0x0000000000000033       0x34 ./NetLib/eth_driver_10M.o
 .comment       0x0000000000000033       0x34 ./Debug/debug.o
 .comment       0x0000000000000033       0x34 ./Core/core_riscv.o
 .comment       0x0000000000000033       0x33 /home/randy/mounriver-studio-projects/UdpServer/NetLib/libwchnet.a(eth_api.o)
                                         0x34 (size before relaxing)
 .comment       0x0000000000000066       0x34 /home/randy/mounriver-studio-projects/UdpServer/NetLib/libwchnet.a(ipcheck.o)
 .comment       0x0000000000000066       0x34 /home/randy/mounriver-studio-projects/UdpServer/NetLib/libwchnet.a(net_dhcp.o)
 .comment       0x0000000000000066       0x34 /home/randy/mounriver-studio-projects/UdpServer/NetLib/libwchnet.a(net_dns.o)
 .comment       0x0000000000000066       0x34 /home/randy/mounriver-studio-projects/UdpServer/NetLib/libwchnet.a(socket.o)
 .comment       0x0000000000000066       0x34 /home/randy/mounriver-studio-projects/UdpServer/NetLib/libwchnet.a(etharp.o)
 .comment       0x0000000000000066       0x34 /home/randy/mounriver-studio-projects/UdpServer/NetLib/libwchnet.a(ethernetif.o)
 .comment       0x0000000000000066       0x34 /home/randy/mounriver-studio-projects/UdpServer/NetLib/libwchnet.a(inet.o)
 .comment       0x0000000000000066       0x34 /home/randy/mounriver-studio-projects/UdpServer/NetLib/libwchnet.a(ip.o)
 .comment       0x0000000000000066       0x34 /home/randy/mounriver-studio-projects/UdpServer/NetLib/libwchnet.a(ip_addr.o)
 .comment       0x0000000000000066       0x34 /home/randy/mounriver-studio-projects/UdpServer/NetLib/libwchnet.a(ip_frag.o)
 .comment       0x0000000000000066       0x34 /home/randy/mounriver-studio-projects/UdpServer/NetLib/libwchnet.a(dhcp.o)
 .comment       0x0000000000000066       0x34 /home/randy/mounriver-studio-projects/UdpServer/NetLib/libwchnet.a(init.o)
 .comment       0x0000000000000066       0x34 /home/randy/mounriver-studio-projects/UdpServer/NetLib/libwchnet.a(mem.o)
 .comment       0x0000000000000066       0x34 /home/randy/mounriver-studio-projects/UdpServer/NetLib/libwchnet.a(memp.o)
 .comment       0x0000000000000066       0x34 /home/randy/mounriver-studio-projects/UdpServer/NetLib/libwchnet.a(netif.o)
 .comment       0x0000000000000066       0x34 /home/randy/mounriver-studio-projects/UdpServer/NetLib/libwchnet.a(pbuf.o)
 .comment       0x0000000000000066       0x34 /home/randy/mounriver-studio-projects/UdpServer/NetLib/libwchnet.a(raw.o)
 .comment       0x0000000000000066       0x34 /home/randy/mounriver-studio-projects/UdpServer/NetLib/libwchnet.a(tcp.o)
 .comment       0x0000000000000066       0x34 /home/randy/mounriver-studio-projects/UdpServer/NetLib/libwchnet.a(tcp_in.o)
 .comment       0x0000000000000066       0x34 /home/randy/mounriver-studio-projects/UdpServer/NetLib/libwchnet.a(tcp_out.o)
 .comment       0x0000000000000066       0x34 /home/randy/mounriver-studio-projects/UdpServer/NetLib/libwchnet.a(udp.o)
 .comment       0x0000000000000066       0x34 /home/randy/mounriver-studio-projects/UdpServer/NetLib/libwchnet.a(icmp.o)
 .comment       0x0000000000000066       0x34 /home/randy/mounriver-studio-projects/UdpServer/NetLib/libwchnet.a(inet_chksum.o)
 .comment       0x0000000000000066       0x34 /home/randy/Programs/MounRiverStudio/MounRiverStudio_Linux_X64_V230/MRS-linux-x64/resources/app/resources/linux/components/WCH/Toolchain/RISC-V Embedded GCC/bin/../lib/gcc/riscv-none-embed/8.2.0/../../../../riscv-none-embed/lib/rv32imacxw/ilp32/libprintf.a(wchprintf.o)

.debug_frame    0x0000000000000000     0x27a0
 .debug_frame   0x0000000000000000       0xa8 ./User/ch32v30x_it.o
 .debug_frame   0x00000000000000a8       0x84 ./User/config.o
 .debug_frame   0x000000000000012c       0x90 ./User/gpio_mgr.o
 .debug_frame   0x00000000000001bc       0x68 ./User/ini_parser.o
 .debug_frame   0x0000000000000224      0x244 ./User/main.o
 .debug_frame   0x0000000000000468       0x3c ./User/system_ch32v30x.o
 .debug_frame   0x00000000000004a4       0x54 ./User/timebase.o
 .debug_frame   0x00000000000004f8       0x70 ./Peripheral/src/ch32v30x_dbgmcu.o
 .debug_frame   0x0000000000000568      0x6a4 ./Peripheral/src/ch32v30x_eth.o
 .debug_frame   0x0000000000000c0c       0x90 ./Peripheral/src/ch32v30x_exti.o
 .debug_frame   0x0000000000000c9c      0x174 ./Peripheral/src/ch32v30x_gpio.o
 .debug_frame   0x0000000000000e10      0x344 ./Peripheral/src/ch32v30x_rcc.o
 .debug_frame   0x0000000000001154      0x614 ./Peripheral/src/ch32v30x_tim.o
 .debug_frame   0x0000000000001768      0x1e4 ./Peripheral/src/ch32v30x_usart.o
 .debug_frame   0x000000000000194c      0x2ac ./NetLib/eth_driver_10M.o
 .debug_frame   0x0000000000001bf8       0xb8 ./Debug/debug.o
 .debug_frame   0x0000000000001cb0      0x1a0 ./Core/core_riscv.o
 .debug_frame   0x0000000000001e50       0x30 /home/randy/Programs/MounRiverStudio/MounRiverStudio_Linux_X64_V230/MRS-linux-x64/resources/app/resources/linux/components/WCH/Toolchain/RISC-V Embedded GCC/bin/../lib/gcc/riscv-none-embed/8.2.0/../../../../riscv-none-embed/lib/rv32imacxw/ilp32/libg_nano.a(lib_a-atoi.o)
 .debug_frame   0x0000000000001e80       0x78 /home/randy/Programs/MounRiverStudio/MounRiverStudio_Linux_X64_V230/MRS-linux-x64/resources/app/resources/linux/components/WCH/Toolchain/RISC-V Embedded GCC/bin/../lib/gcc/riscv-none-embed/8.2.0/../../../../riscv-none-embed/lib/rv32imacxw/ilp32/libg_nano.a(lib_a-locale.o)
 .debug_frame   0x0000000000001ef8       0x38 /home/randy/Programs/MounRiverStudio/MounRiverStudio_Linux_X64_V230/MRS-linux-x64/resources/app/resources/linux/components/WCH/Toolchain/RISC-V Embedded GCC/bin/../lib/gcc/riscv-none-embed/8.2.0/../../../../riscv-none-embed/lib/rv32imacxw/ilp32/libg_nano.a(lib_a-mbtowc_r.o)
 .debug_frame   0x0000000000001f30       0x20 /home/randy/Programs/MounRiverStudio/MounRiverStudio_Linux_X64_V230/MRS-linux-x64/resources/app/resources/linux/components/WCH/Toolchain/RISC-V Embedded GCC/bin/../lib/gcc/riscv-none-embed/8.2.0/../../../../riscv-none-embed/lib/rv32imacxw/ilp32/libg_nano.a(lib_a-memcpy.o)
 .debug_frame   0x0000000000001f50       0x20 /home/randy/Programs/MounRiverStudio/MounRiverStudio_Linux_X64_V230/MRS-linux-x64/resources/app/resources/linux/components/WCH/Toolchain/RISC-V Embedded GCC/bin/../lib/gcc/riscv-none-embed/8.2.0/../../../../riscv-none-embed/lib/rv32imacxw/ilp32/libg_nano.a(lib_a-memmove.o)
 .debug_frame   0x0000000000001f70       0x54 /home/randy/Programs/MounRiverStudio/MounRiverStudio_Linux_X64_V230/MRS-linux-x64/resources/app/resources/linux/components/WCH/Toolchain/RISC-V Embedded GCC/bin/../lib/gcc/riscv-none-embed/8.2.0/../../../../riscv-none-embed/lib/rv32imacxw/ilp32/libg_nano.a(lib_a-sscanf.o)
 .debug_frame   0x0000000000001fc4       0xa4 /home/randy/Programs/MounRiverStudio/MounRiverStudio_Linux_X64_V230/MRS-linux-x64/resources/app/resources/linux/components/WCH/Toolchain/RISC-V Embedded GCC/bin/../lib/gcc/riscv-none-embed/8.2.0/../../../../riscv-none-embed/lib/rv32imacxw/ilp32/libg_nano.a(lib_a-stdio.o)
 .debug_frame   0x0000000000002068       0x20 /home/randy/Programs/MounRiverStudio/MounRiverStudio_Linux_X64_V230/MRS-linux-x64/resources/app/resources/linux/components/WCH/Toolchain/RISC-V Embedded GCC/bin/../lib/gcc/riscv-none-embed/8.2.0/../../../../riscv-none-embed/lib/rv32imacxw/ilp32/libg_nano.a(lib_a-strchr.o)
 .debug_frame   0x0000000000002088       0x20 /home/randy/Programs/MounRiverStudio/MounRiverStudio_Linux_X64_V230/MRS-linux-x64/resources/app/resources/linux/components/WCH/Toolchain/RISC-V Embedded GCC/bin/../lib/gcc/riscv-none-embed/8.2.0/../../../../riscv-none-embed/lib/rv32imacxw/ilp32/libg_nano.a(lib_a-strlen.o)
 .debug_frame   0x00000000000020a8       0x20 /home/randy/Programs/MounRiverStudio/MounRiverStudio_Linux_X64_V230/MRS-linux-x64/resources/app/resources/linux/components/WCH/Toolchain/RISC-V Embedded GCC/bin/../lib/gcc/riscv-none-embed/8.2.0/../../../../riscv-none-embed/lib/rv32imacxw/ilp32/libg_nano.a(lib_a-strncat.o)
 .debug_frame   0x00000000000020c8       0x20 /home/randy/Programs/MounRiverStudio/MounRiverStudio_Linux_X64_V230/MRS-linux-x64/resources/app/resources/linux/components/WCH/Toolchain/RISC-V Embedded GCC/bin/../lib/gcc/riscv-none-embed/8.2.0/../../../../riscv-none-embed/lib/rv32imacxw/ilp32/libg_nano.a(lib_a-strncpy.o)
 .debug_frame   0x00000000000020e8       0x38 /home/randy/Programs/MounRiverStudio/MounRiverStudio_Linux_X64_V230/MRS-linux-x64/resources/app/resources/linux/components/WCH/Toolchain/RISC-V Embedded GCC/bin/../lib/gcc/riscv-none-embed/8.2.0/../../../../riscv-none-embed/lib/rv32imacxw/ilp32/libg_nano.a(lib_a-strtok.o)
 .debug_frame   0x0000000000002120       0x30 /home/randy/Programs/MounRiverStudio/MounRiverStudio_Linux_X64_V230/MRS-linux-x64/resources/app/resources/linux/components/WCH/Toolchain/RISC-V Embedded GCC/bin/../lib/gcc/riscv-none-embed/8.2.0/../../../../riscv-none-embed/lib/rv32imacxw/ilp32/libg_nano.a(lib_a-strtok_r.o)
 .debug_frame   0x0000000000002150       0x70 /home/randy/Programs/MounRiverStudio/MounRiverStudio_Linux_X64_V230/MRS-linux-x64/resources/app/resources/linux/components/WCH/Toolchain/RISC-V Embedded GCC/bin/../lib/gcc/riscv-none-embed/8.2.0/../../../../riscv-none-embed/lib/rv32imacxw/ilp32/libg_nano.a(lib_a-strtol.o)
 .debug_frame   0x00000000000021c0       0x30 /home/randy/Programs/MounRiverStudio/MounRiverStudio_Linux_X64_V230/MRS-linux-x64/resources/app/resources/linux/components/WCH/Toolchain/RISC-V Embedded GCC/bin/../lib/gcc/riscv-none-embed/8.2.0/../../../../riscv-none-embed/lib/rv32imacxw/ilp32/libg_nano.a(lib_a-wctomb_r.o)
 .debug_frame   0x00000000000021f0       0x30 /home/randy/Programs/MounRiverStudio/MounRiverStudio_Linux_X64_V230/MRS-linux-x64/resources/app/resources/linux/components/WCH/Toolchain/RISC-V Embedded GCC/bin/../lib/gcc/riscv-none-embed/8.2.0/../../../../riscv-none-embed/lib/rv32imacxw/ilp32/libg_nano.a(lib_a-malloc.o)
 .debug_frame   0x0000000000002220       0x40 /home/randy/Programs/MounRiverStudio/MounRiverStudio_Linux_X64_V230/MRS-linux-x64/resources/app/resources/linux/components/WCH/Toolchain/RISC-V Embedded GCC/bin/../lib/gcc/riscv-none-embed/8.2.0/../../../../riscv-none-embed/lib/rv32imacxw/ilp32/libg_nano.a(lib_a-nano-freer.o)
 .debug_frame   0x0000000000002260       0x40 /home/randy/Programs/MounRiverStudio/MounRiverStudio_Linux_X64_V230/MRS-linux-x64/resources/app/resources/linux/components/WCH/Toolchain/RISC-V Embedded GCC/bin/../lib/gcc/riscv-none-embed/8.2.0/../../../../riscv-none-embed/lib/rv32imacxw/ilp32/libg_nano.a(lib_a-nano-mallocr.o)
 .debug_frame   0x00000000000022a0       0xb4 /home/randy/Programs/MounRiverStudio/MounRiverStudio_Linux_X64_V230/MRS-linux-x64/resources/app/resources/linux/components/WCH/Toolchain/RISC-V Embedded GCC/bin/../lib/gcc/riscv-none-embed/8.2.0/../../../../riscv-none-embed/lib/rv32imacxw/ilp32/libg_nano.a(lib_a-nano-svfscanf.o)
 .debug_frame   0x0000000000002354       0xa0 /home/randy/Programs/MounRiverStudio/MounRiverStudio_Linux_X64_V230/MRS-linux-x64/resources/app/resources/linux/components/WCH/Toolchain/RISC-V Embedded GCC/bin/../lib/gcc/riscv-none-embed/8.2.0/../../../../riscv-none-embed/lib/rv32imacxw/ilp32/libg_nano.a(lib_a-nano-vfscanf_i.o)
 .debug_frame   0x00000000000023f4       0x70 /home/randy/Programs/MounRiverStudio/MounRiverStudio_Linux_X64_V230/MRS-linux-x64/resources/app/resources/linux/components/WCH/Toolchain/RISC-V Embedded GCC/bin/../lib/gcc/riscv-none-embed/8.2.0/../../../../riscv-none-embed/lib/rv32imacxw/ilp32/libg_nano.a(lib_a-reent.o)
 .debug_frame   0x0000000000002464       0x30 /home/randy/Programs/MounRiverStudio/MounRiverStudio_Linux_X64_V230/MRS-linux-x64/resources/app/resources/linux/components/WCH/Toolchain/RISC-V Embedded GCC/bin/../lib/gcc/riscv-none-embed/8.2.0/../../../../riscv-none-embed/lib/rv32imacxw/ilp32/libg_nano.a(lib_a-sbrkr.o)
 .debug_frame   0x0000000000002494       0x20 /home/randy/Programs/MounRiverStudio/MounRiverStudio_Linux_X64_V230/MRS-linux-x64/resources/app/resources/linux/components/WCH/Toolchain/RISC-V Embedded GCC/bin/../lib/gcc/riscv-none-embed/8.2.0/../../../../riscv-none-embed/lib/rv32imacxw/ilp32/libg_nano.a(lib_a-sccl.o)
 .debug_frame   0x00000000000024b4       0x70 /home/randy/Programs/MounRiverStudio/MounRiverStudio_Linux_X64_V230/MRS-linux-x64/resources/app/resources/linux/components/WCH/Toolchain/RISC-V Embedded GCC/bin/../lib/gcc/riscv-none-embed/8.2.0/../../../../riscv-none-embed/lib/rv32imacxw/ilp32/libg_nano.a(lib_a-strtoul.o)
 .debug_frame   0x0000000000002524       0x84 /home/randy/Programs/MounRiverStudio/MounRiverStudio_Linux_X64_V230/MRS-linux-x64/resources/app/resources/linux/components/WCH/Toolchain/RISC-V Embedded GCC/bin/../lib/gcc/riscv-none-embed/8.2.0/../../../../riscv-none-embed/lib/rv32imacxw/ilp32/libg_nano.a(lib_a-ungetc.o)
 .debug_frame   0x00000000000025a8      0x148 /home/randy/Programs/MounRiverStudio/MounRiverStudio_Linux_X64_V230/MRS-linux-x64/resources/app/resources/linux/components/WCH/Toolchain/RISC-V Embedded GCC/bin/../lib/gcc/riscv-none-embed/8.2.0/../../../../riscv-none-embed/lib/rv32imacxw/ilp32/libg_nano.a(lib_a-findfp.o)
 .debug_frame   0x00000000000026f0       0x20 /home/randy/Programs/MounRiverStudio/MounRiverStudio_Linux_X64_V230/MRS-linux-x64/resources/app/resources/linux/components/WCH/Toolchain/RISC-V Embedded GCC/bin/../lib/gcc/riscv-none-embed/8.2.0/../../../../riscv-none-embed/lib/rv32imacxw/ilp32/libg_nano.a(lib_a-memchr.o)
 .debug_frame   0x0000000000002710       0x30 /home/randy/Programs/MounRiverStudio/MounRiverStudio_Linux_X64_V230/MRS-linux-x64/resources/app/resources/linux/components/WCH/Toolchain/RISC-V Embedded GCC/bin/../lib/gcc/riscv-none-embed/8.2.0/../../../../riscv-none-embed/lib/rv32imacxw/ilp32/libg_nano.a(lib_a-mlock.o)
 .debug_frame   0x0000000000002740       0x40 /home/randy/Programs/MounRiverStudio/MounRiverStudio_Linux_X64_V230/MRS-linux-x64/resources/app/resources/linux/components/WCH/Toolchain/RISC-V Embedded GCC/bin/../lib/gcc/riscv-none-embed/8.2.0/../../../../riscv-none-embed/lib/rv32imacxw/ilp32/libg_nano.a(lib_a-nano-reallocr.o)
 .debug_frame   0x0000000000002780       0x20 /home/randy/Programs/MounRiverStudio/MounRiverStudio_Linux_X64_V230/MRS-linux-x64/resources/app/resources/linux/components/WCH/Toolchain/RISC-V Embedded GCC/bin/../lib/gcc/riscv-none-embed/8.2.0/../../../../riscv-none-embed/lib/rv32imacxw/ilp32/libg_nano.a(lib_a-nano-msizer.o)

.debug_loc      0x0000000000000000     0x5924
 .debug_loc     0x0000000000000000      0x4b2 ./User/config.o
 .debug_loc     0x00000000000004b2       0xe6 ./User/gpio_mgr.o
 .debug_loc     0x0000000000000598      0x2d1 ./User/ini_parser.o
 .debug_loc     0x0000000000000869      0x3db ./User/main.o
 .debug_loc     0x0000000000000c44      0x163 ./User/system_ch32v30x.o
 .debug_loc     0x0000000000000da7       0x6e ./Peripheral/src/ch32v30x_dbgmcu.o
 .debug_loc     0x0000000000000e15      0xef1 ./Peripheral/src/ch32v30x_eth.o
 .debug_loc     0x0000000000001d06      0x181 ./Peripheral/src/ch32v30x_exti.o
 .debug_loc     0x0000000000001e87      0x72b ./Peripheral/src/ch32v30x_gpio.o
 .debug_loc     0x00000000000025b2      0xadb ./Peripheral/src/ch32v30x_rcc.o
 .debug_loc     0x000000000000308d     0x18a6 ./Peripheral/src/ch32v30x_tim.o
 .debug_loc     0x0000000000004933      0x779 ./Peripheral/src/ch32v30x_usart.o
 .debug_loc     0x00000000000050ac      0x701 ./NetLib/eth_driver_10M.o
 .debug_loc     0x00000000000057ad      0x177 ./Debug/debug.o

.stabstr        0x0000000000000000       0xa9
 .stabstr       0x0000000000000000       0xa9 /home/randy/Programs/MounRiverStudio/MounRiverStudio_Linux_X64_V230/MRS-linux-x64/resources/app/resources/linux/components/WCH/Toolchain/RISC-V Embedded GCC/bin/../lib/gcc/riscv-none-embed/8.2.0/../../../../riscv-none-embed/lib/rv32imacxw/ilp32/libnosys.a(close.o)
